
firmware.elf:     file format elf32-littleriscv


Disassembly of section .text:

00010000 <_start>:
   10000:	00013197          	auipc	gp,0x13
   10004:	eb818193          	addi	gp,gp,-328 # 22eb8 <__global_pointer$>
   10008:	86c18513          	addi	a0,gp,-1940 # 22724 <heap_end.0>
   1000c:	b9418613          	addi	a2,gp,-1132 # 22a4c <_end>
   10010:	40a60633          	sub	a2,a2,a0
   10014:	00000593          	li	a1,0
   10018:	144000ef          	jal	1015c <memset>
   1001c:	00007517          	auipc	a0,0x7
   10020:	99450513          	addi	a0,a0,-1644 # 169b0 <atexit>
   10024:	00050863          	beqz	a0,10034 <_start+0x34>
   10028:	0000b517          	auipc	a0,0xb
   1002c:	56050513          	addi	a0,a0,1376 # 1b588 <__libc_fini_array>
   10030:	181060ef          	jal	169b0 <atexit>
   10034:	720060ef          	jal	16754 <__libc_init_array>
   10038:	00012503          	lw	a0,0(sp)
   1003c:	00410593          	addi	a1,sp,4
   10040:	00000613          	li	a2,0
   10044:	7b1050ef          	jal	15ff4 <main>
   10048:	7810506f          	j	15fc8 <exit>

0001004c <__do_global_dtors_aux>:
   1004c:	ff010113          	addi	sp,sp,-16
   10050:	00812423          	sw	s0,8(sp)
   10054:	8881c783          	lbu	a5,-1912(gp) # 22740 <completed.1>
   10058:	00112623          	sw	ra,12(sp)
   1005c:	02079263          	bnez	a5,10080 <__do_global_dtors_aux+0x34>
   10060:	00000793          	li	a5,0
   10064:	00078a63          	beqz	a5,10078 <__do_global_dtors_aux+0x2c>
   10068:	00022537          	lui	a0,0x22
   1006c:	a5c50513          	addi	a0,a0,-1444 # 21a5c <__EH_FRAME_BEGIN__>
   10070:	00000097          	auipc	ra,0x0
   10074:	000000e7          	jalr	zero # 0 <_start-0x10000>
   10078:	00100793          	li	a5,1
   1007c:	88f18423          	sb	a5,-1912(gp) # 22740 <completed.1>
   10080:	00c12083          	lw	ra,12(sp)
   10084:	00812403          	lw	s0,8(sp)
   10088:	01010113          	addi	sp,sp,16
   1008c:	00008067          	ret

00010090 <frame_dummy>:
   10090:	00000793          	li	a5,0
   10094:	00078c63          	beqz	a5,100ac <frame_dummy+0x1c>
   10098:	00022537          	lui	a0,0x22
   1009c:	88c18593          	addi	a1,gp,-1908 # 22744 <object.0>
   100a0:	a5c50513          	addi	a0,a0,-1444 # 21a5c <__EH_FRAME_BEGIN__>
   100a4:	00000317          	auipc	t1,0x0
   100a8:	00000067          	jr	zero # 0 <_start-0x10000>
   100ac:	00008067          	ret

000100b0 <secret_function>:
   100b0:	00021537          	lui	a0,0x21
   100b4:	14050513          	addi	a0,a0,320 # 21140 <_getpid_r+0x8>
   100b8:	3a40606f          	j	1645c <puts>

000100bc <_access>:
   100bc:	0040006f          	j	100c0 <unimplemented_syscall>

000100c0 <unimplemented_syscall>:
   100c0:	000217b7          	lui	a5,0x21
   100c4:	1ac78793          	addi	a5,a5,428 # 211ac <_getpid_r+0x74>
   100c8:	100006b7          	lui	a3,0x10000
   100cc:	0007c703          	lbu	a4,0(a5)
   100d0:	00071463          	bnez	a4,100d8 <unimplemented_syscall+0x18>
   100d4:	00100073          	ebreak
   100d8:	00178793          	addi	a5,a5,1
   100dc:	00e6a023          	sw	a4,0(a3) # 10000000 <__global_pointer$+0xffdd148>
   100e0:	fedff06f          	j	100cc <unimplemented_syscall+0xc>

000100e4 <_read>:
   100e4:	00000513          	li	a0,0
   100e8:	00008067          	ret

000100ec <_write>:
   100ec:	00060513          	mv	a0,a2
   100f0:	00c587b3          	add	a5,a1,a2
   100f4:	10000737          	lui	a4,0x10000
   100f8:	00f59463          	bne	a1,a5,10100 <_write+0x14>
   100fc:	00008067          	ret
   10100:	0005c683          	lbu	a3,0(a1)
   10104:	00158593          	addi	a1,a1,1
   10108:	00d72023          	sw	a3,0(a4) # 10000000 <__global_pointer$+0xffdd148>
   1010c:	fedff06f          	j	100f8 <_write+0xc>

00010110 <_close>:
   10110:	00000513          	li	a0,0
   10114:	00008067          	ret

00010118 <_fstat>:
   10118:	ff010113          	addi	sp,sp,-16
   1011c:	00112623          	sw	ra,12(sp)
   10120:	62c060ef          	jal	1674c <__errno>
   10124:	00c12083          	lw	ra,12(sp)
   10128:	00200793          	li	a5,2
   1012c:	00f52023          	sw	a5,0(a0)
   10130:	fff00513          	li	a0,-1
   10134:	01010113          	addi	sp,sp,16
   10138:	00008067          	ret

0001013c <_sbrk>:
   1013c:	00050713          	mv	a4,a0
   10140:	86c1a503          	lw	a0,-1940(gp) # 22724 <heap_end.0>
   10144:	00051463          	bnez	a0,1014c <_sbrk+0x10>
   10148:	b9418513          	addi	a0,gp,-1132 # 22a4c <_end>
   1014c:	00a707b3          	add	a5,a4,a0
   10150:	86f1a623          	sw	a5,-1940(gp) # 22724 <heap_end.0>
   10154:	00008067          	ret

00010158 <_exit>:
   10158:	00100073          	ebreak

0001015c <memset>:
   1015c:	00f00313          	li	t1,15
   10160:	00050713          	mv	a4,a0
   10164:	02c37e63          	bgeu	t1,a2,101a0 <memset+0x44>
   10168:	00f77793          	andi	a5,a4,15
   1016c:	0a079063          	bnez	a5,1020c <memset+0xb0>
   10170:	08059263          	bnez	a1,101f4 <memset+0x98>
   10174:	ff067693          	andi	a3,a2,-16
   10178:	00f67613          	andi	a2,a2,15
   1017c:	00e686b3          	add	a3,a3,a4
   10180:	00b72023          	sw	a1,0(a4)
   10184:	00b72223          	sw	a1,4(a4)
   10188:	00b72423          	sw	a1,8(a4)
   1018c:	00b72623          	sw	a1,12(a4)
   10190:	01070713          	addi	a4,a4,16
   10194:	fed766e3          	bltu	a4,a3,10180 <memset+0x24>
   10198:	00061463          	bnez	a2,101a0 <memset+0x44>
   1019c:	00008067          	ret
   101a0:	40c306b3          	sub	a3,t1,a2
   101a4:	00269693          	slli	a3,a3,0x2
   101a8:	00000297          	auipc	t0,0x0
   101ac:	005686b3          	add	a3,a3,t0
   101b0:	00c68067          	jr	12(a3)
   101b4:	00b70723          	sb	a1,14(a4)
   101b8:	00b706a3          	sb	a1,13(a4)
   101bc:	00b70623          	sb	a1,12(a4)
   101c0:	00b705a3          	sb	a1,11(a4)
   101c4:	00b70523          	sb	a1,10(a4)
   101c8:	00b704a3          	sb	a1,9(a4)
   101cc:	00b70423          	sb	a1,8(a4)
   101d0:	00b703a3          	sb	a1,7(a4)
   101d4:	00b70323          	sb	a1,6(a4)
   101d8:	00b702a3          	sb	a1,5(a4)
   101dc:	00b70223          	sb	a1,4(a4)
   101e0:	00b701a3          	sb	a1,3(a4)
   101e4:	00b70123          	sb	a1,2(a4)
   101e8:	00b700a3          	sb	a1,1(a4)
   101ec:	00b70023          	sb	a1,0(a4)
   101f0:	00008067          	ret
   101f4:	0ff5f593          	zext.b	a1,a1
   101f8:	00859693          	slli	a3,a1,0x8
   101fc:	00d5e5b3          	or	a1,a1,a3
   10200:	01059693          	slli	a3,a1,0x10
   10204:	00d5e5b3          	or	a1,a1,a3
   10208:	f6dff06f          	j	10174 <memset+0x18>
   1020c:	00279693          	slli	a3,a5,0x2
   10210:	00000297          	auipc	t0,0x0
   10214:	005686b3          	add	a3,a3,t0
   10218:	00008293          	mv	t0,ra
   1021c:	fa0680e7          	jalr	-96(a3)
   10220:	00028093          	mv	ra,t0
   10224:	ff078793          	addi	a5,a5,-16
   10228:	40f70733          	sub	a4,a4,a5
   1022c:	00f60633          	add	a2,a2,a5
   10230:	f6c378e3          	bgeu	t1,a2,101a0 <memset+0x44>
   10234:	f3dff06f          	j	10170 <memset+0x14>

00010238 <strcmp>:
   10238:	00b56733          	or	a4,a0,a1
   1023c:	fff00393          	li	t2,-1
   10240:	00377713          	andi	a4,a4,3
   10244:	10071063          	bnez	a4,10344 <strcmp+0x10c>
   10248:	7f7f87b7          	lui	a5,0x7f7f8
   1024c:	f7f78793          	addi	a5,a5,-129 # 7f7f7f7f <__global_pointer$+0x7f7d50c7>
   10250:	00052603          	lw	a2,0(a0)
   10254:	0005a683          	lw	a3,0(a1)
   10258:	00f672b3          	and	t0,a2,a5
   1025c:	00f66333          	or	t1,a2,a5
   10260:	00f282b3          	add	t0,t0,a5
   10264:	0062e2b3          	or	t0,t0,t1
   10268:	10729263          	bne	t0,t2,1036c <strcmp+0x134>
   1026c:	08d61663          	bne	a2,a3,102f8 <strcmp+0xc0>
   10270:	00452603          	lw	a2,4(a0)
   10274:	0045a683          	lw	a3,4(a1)
   10278:	00f672b3          	and	t0,a2,a5
   1027c:	00f66333          	or	t1,a2,a5
   10280:	00f282b3          	add	t0,t0,a5
   10284:	0062e2b3          	or	t0,t0,t1
   10288:	0c729e63          	bne	t0,t2,10364 <strcmp+0x12c>
   1028c:	06d61663          	bne	a2,a3,102f8 <strcmp+0xc0>
   10290:	00852603          	lw	a2,8(a0)
   10294:	0085a683          	lw	a3,8(a1)
   10298:	00f672b3          	and	t0,a2,a5
   1029c:	00f66333          	or	t1,a2,a5
   102a0:	00f282b3          	add	t0,t0,a5
   102a4:	0062e2b3          	or	t0,t0,t1
   102a8:	0c729863          	bne	t0,t2,10378 <strcmp+0x140>
   102ac:	04d61663          	bne	a2,a3,102f8 <strcmp+0xc0>
   102b0:	00c52603          	lw	a2,12(a0)
   102b4:	00c5a683          	lw	a3,12(a1)
   102b8:	00f672b3          	and	t0,a2,a5
   102bc:	00f66333          	or	t1,a2,a5
   102c0:	00f282b3          	add	t0,t0,a5
   102c4:	0062e2b3          	or	t0,t0,t1
   102c8:	0c729263          	bne	t0,t2,1038c <strcmp+0x154>
   102cc:	02d61663          	bne	a2,a3,102f8 <strcmp+0xc0>
   102d0:	01052603          	lw	a2,16(a0)
   102d4:	0105a683          	lw	a3,16(a1)
   102d8:	00f672b3          	and	t0,a2,a5
   102dc:	00f66333          	or	t1,a2,a5
   102e0:	00f282b3          	add	t0,t0,a5
   102e4:	0062e2b3          	or	t0,t0,t1
   102e8:	0a729c63          	bne	t0,t2,103a0 <strcmp+0x168>
   102ec:	01450513          	addi	a0,a0,20
   102f0:	01458593          	addi	a1,a1,20
   102f4:	f4d60ee3          	beq	a2,a3,10250 <strcmp+0x18>
   102f8:	01061713          	slli	a4,a2,0x10
   102fc:	01069793          	slli	a5,a3,0x10
   10300:	00f71e63          	bne	a4,a5,1031c <strcmp+0xe4>
   10304:	01065713          	srli	a4,a2,0x10
   10308:	0106d793          	srli	a5,a3,0x10
   1030c:	40f70533          	sub	a0,a4,a5
   10310:	0ff57593          	zext.b	a1,a0
   10314:	02059063          	bnez	a1,10334 <strcmp+0xfc>
   10318:	00008067          	ret
   1031c:	01075713          	srli	a4,a4,0x10
   10320:	0107d793          	srli	a5,a5,0x10
   10324:	40f70533          	sub	a0,a4,a5
   10328:	0ff57593          	zext.b	a1,a0
   1032c:	00059463          	bnez	a1,10334 <strcmp+0xfc>
   10330:	00008067          	ret
   10334:	0ff77713          	zext.b	a4,a4
   10338:	0ff7f793          	zext.b	a5,a5
   1033c:	40f70533          	sub	a0,a4,a5
   10340:	00008067          	ret
   10344:	00054603          	lbu	a2,0(a0)
   10348:	0005c683          	lbu	a3,0(a1)
   1034c:	00150513          	addi	a0,a0,1
   10350:	00158593          	addi	a1,a1,1
   10354:	00d61463          	bne	a2,a3,1035c <strcmp+0x124>
   10358:	fe0616e3          	bnez	a2,10344 <strcmp+0x10c>
   1035c:	40d60533          	sub	a0,a2,a3
   10360:	00008067          	ret
   10364:	00450513          	addi	a0,a0,4
   10368:	00458593          	addi	a1,a1,4
   1036c:	fcd61ce3          	bne	a2,a3,10344 <strcmp+0x10c>
   10370:	00000513          	li	a0,0
   10374:	00008067          	ret
   10378:	00850513          	addi	a0,a0,8
   1037c:	00858593          	addi	a1,a1,8
   10380:	fcd612e3          	bne	a2,a3,10344 <strcmp+0x10c>
   10384:	00000513          	li	a0,0
   10388:	00008067          	ret
   1038c:	00c50513          	addi	a0,a0,12
   10390:	00c58593          	addi	a1,a1,12
   10394:	fad618e3          	bne	a2,a3,10344 <strcmp+0x10c>
   10398:	00000513          	li	a0,0
   1039c:	00008067          	ret
   103a0:	01050513          	addi	a0,a0,16
   103a4:	01058593          	addi	a1,a1,16
   103a8:	f8d61ee3          	bne	a2,a3,10344 <strcmp+0x10c>
   103ac:	00000513          	li	a0,0
   103b0:	00008067          	ret

000103b4 <__udivdi3>:
   103b4:	fd010113          	addi	sp,sp,-48
   103b8:	01412c23          	sw	s4,24(sp)
   103bc:	02112623          	sw	ra,44(sp)
   103c0:	02812423          	sw	s0,40(sp)
   103c4:	02912223          	sw	s1,36(sp)
   103c8:	03212023          	sw	s2,32(sp)
   103cc:	01312e23          	sw	s3,28(sp)
   103d0:	01512a23          	sw	s5,20(sp)
   103d4:	01612823          	sw	s6,16(sp)
   103d8:	01712623          	sw	s7,12(sp)
   103dc:	01812423          	sw	s8,8(sp)
   103e0:	01912223          	sw	s9,4(sp)
   103e4:	01a12023          	sw	s10,0(sp)
   103e8:	00050a13          	mv	s4,a0
   103ec:	38069663          	bnez	a3,10778 <__udivdi3+0x3c4>
   103f0:	000227b7          	lui	a5,0x22
   103f4:	00060993          	mv	s3,a2
   103f8:	00050493          	mv	s1,a0
   103fc:	95c78793          	addi	a5,a5,-1700 # 2195c <__clz_tab>
   10400:	12c5f863          	bgeu	a1,a2,10530 <__udivdi3+0x17c>
   10404:	00010737          	lui	a4,0x10
   10408:	00058913          	mv	s2,a1
   1040c:	10e67863          	bgeu	a2,a4,1051c <__udivdi3+0x168>
   10410:	10063713          	sltiu	a4,a2,256
   10414:	00173713          	seqz	a4,a4
   10418:	00371713          	slli	a4,a4,0x3
   1041c:	00e656b3          	srl	a3,a2,a4
   10420:	00d787b3          	add	a5,a5,a3
   10424:	0007c783          	lbu	a5,0(a5)
   10428:	02000693          	li	a3,32
   1042c:	00e787b3          	add	a5,a5,a4
   10430:	40f68733          	sub	a4,a3,a5
   10434:	00f68c63          	beq	a3,a5,1044c <__udivdi3+0x98>
   10438:	00e59933          	sll	s2,a1,a4
   1043c:	00fa57b3          	srl	a5,s4,a5
   10440:	00e619b3          	sll	s3,a2,a4
   10444:	0127e933          	or	s2,a5,s2
   10448:	00ea14b3          	sll	s1,s4,a4
   1044c:	0109da93          	srli	s5,s3,0x10
   10450:	000a8593          	mv	a1,s5
   10454:	00090513          	mv	a0,s2
   10458:	01099b13          	slli	s6,s3,0x10
   1045c:	275050ef          	jal	15ed0 <__hidden___udivsi3>
   10460:	010b5b13          	srli	s6,s6,0x10
   10464:	00050593          	mv	a1,a0
   10468:	00050a13          	mv	s4,a0
   1046c:	000b0513          	mv	a0,s6
   10470:	235050ef          	jal	15ea4 <__mulsi3>
   10474:	00050413          	mv	s0,a0
   10478:	000a8593          	mv	a1,s5
   1047c:	00090513          	mv	a0,s2
   10480:	299050ef          	jal	15f18 <__umodsi3>
   10484:	01051513          	slli	a0,a0,0x10
   10488:	0104d713          	srli	a4,s1,0x10
   1048c:	00a76733          	or	a4,a4,a0
   10490:	000a0913          	mv	s2,s4
   10494:	00877e63          	bgeu	a4,s0,104b0 <__udivdi3+0xfc>
   10498:	00e98733          	add	a4,s3,a4
   1049c:	fffa0913          	addi	s2,s4,-1
   104a0:	01376863          	bltu	a4,s3,104b0 <__udivdi3+0xfc>
   104a4:	00877663          	bgeu	a4,s0,104b0 <__udivdi3+0xfc>
   104a8:	ffea0913          	addi	s2,s4,-2
   104ac:	01370733          	add	a4,a4,s3
   104b0:	40870433          	sub	s0,a4,s0
   104b4:	000a8593          	mv	a1,s5
   104b8:	00040513          	mv	a0,s0
   104bc:	215050ef          	jal	15ed0 <__hidden___udivsi3>
   104c0:	00050593          	mv	a1,a0
   104c4:	00050a13          	mv	s4,a0
   104c8:	000b0513          	mv	a0,s6
   104cc:	1d9050ef          	jal	15ea4 <__mulsi3>
   104d0:	00050b13          	mv	s6,a0
   104d4:	000a8593          	mv	a1,s5
   104d8:	00040513          	mv	a0,s0
   104dc:	23d050ef          	jal	15f18 <__umodsi3>
   104e0:	01049493          	slli	s1,s1,0x10
   104e4:	01051513          	slli	a0,a0,0x10
   104e8:	0104d493          	srli	s1,s1,0x10
   104ec:	00a4e4b3          	or	s1,s1,a0
   104f0:	000a0713          	mv	a4,s4
   104f4:	0164fc63          	bgeu	s1,s6,1050c <__udivdi3+0x158>
   104f8:	009984b3          	add	s1,s3,s1
   104fc:	fffa0713          	addi	a4,s4,-1
   10500:	0134e663          	bltu	s1,s3,1050c <__udivdi3+0x158>
   10504:	0164f463          	bgeu	s1,s6,1050c <__udivdi3+0x158>
   10508:	ffea0713          	addi	a4,s4,-2
   1050c:	01091793          	slli	a5,s2,0x10
   10510:	00e7e7b3          	or	a5,a5,a4
   10514:	00000913          	li	s2,0
   10518:	1200006f          	j	10638 <__udivdi3+0x284>
   1051c:	010006b7          	lui	a3,0x1000
   10520:	01800713          	li	a4,24
   10524:	eed67ce3          	bgeu	a2,a3,1041c <__udivdi3+0x68>
   10528:	01000713          	li	a4,16
   1052c:	ef1ff06f          	j	1041c <__udivdi3+0x68>
   10530:	00000713          	li	a4,0
   10534:	00060c63          	beqz	a2,1054c <__udivdi3+0x198>
   10538:	00010737          	lui	a4,0x10
   1053c:	12e67e63          	bgeu	a2,a4,10678 <__udivdi3+0x2c4>
   10540:	10063713          	sltiu	a4,a2,256
   10544:	00173713          	seqz	a4,a4
   10548:	00371713          	slli	a4,a4,0x3
   1054c:	00e656b3          	srl	a3,a2,a4
   10550:	00d787b3          	add	a5,a5,a3
   10554:	0007c783          	lbu	a5,0(a5)
   10558:	02000693          	li	a3,32
   1055c:	00e787b3          	add	a5,a5,a4
   10560:	40f68733          	sub	a4,a3,a5
   10564:	12f69463          	bne	a3,a5,1068c <__udivdi3+0x2d8>
   10568:	40c58a33          	sub	s4,a1,a2
   1056c:	00100913          	li	s2,1
   10570:	0109db13          	srli	s6,s3,0x10
   10574:	000b0593          	mv	a1,s6
   10578:	000a0513          	mv	a0,s4
   1057c:	01099b93          	slli	s7,s3,0x10
   10580:	151050ef          	jal	15ed0 <__hidden___udivsi3>
   10584:	010bdb93          	srli	s7,s7,0x10
   10588:	00050593          	mv	a1,a0
   1058c:	00050c13          	mv	s8,a0
   10590:	000b8513          	mv	a0,s7
   10594:	111050ef          	jal	15ea4 <__mulsi3>
   10598:	00050a93          	mv	s5,a0
   1059c:	000b0593          	mv	a1,s6
   105a0:	000a0513          	mv	a0,s4
   105a4:	175050ef          	jal	15f18 <__umodsi3>
   105a8:	01051513          	slli	a0,a0,0x10
   105ac:	0104d713          	srli	a4,s1,0x10
   105b0:	00a76733          	or	a4,a4,a0
   105b4:	000c0a13          	mv	s4,s8
   105b8:	01577e63          	bgeu	a4,s5,105d4 <__udivdi3+0x220>
   105bc:	00e98733          	add	a4,s3,a4
   105c0:	fffc0a13          	addi	s4,s8,-1
   105c4:	01376863          	bltu	a4,s3,105d4 <__udivdi3+0x220>
   105c8:	01577663          	bgeu	a4,s5,105d4 <__udivdi3+0x220>
   105cc:	ffec0a13          	addi	s4,s8,-2
   105d0:	01370733          	add	a4,a4,s3
   105d4:	41570433          	sub	s0,a4,s5
   105d8:	000b0593          	mv	a1,s6
   105dc:	00040513          	mv	a0,s0
   105e0:	0f1050ef          	jal	15ed0 <__hidden___udivsi3>
   105e4:	00050593          	mv	a1,a0
   105e8:	00050a93          	mv	s5,a0
   105ec:	000b8513          	mv	a0,s7
   105f0:	0b5050ef          	jal	15ea4 <__mulsi3>
   105f4:	00050b93          	mv	s7,a0
   105f8:	000b0593          	mv	a1,s6
   105fc:	00040513          	mv	a0,s0
   10600:	119050ef          	jal	15f18 <__umodsi3>
   10604:	01049493          	slli	s1,s1,0x10
   10608:	01051513          	slli	a0,a0,0x10
   1060c:	0104d493          	srli	s1,s1,0x10
   10610:	00a4e4b3          	or	s1,s1,a0
   10614:	000a8713          	mv	a4,s5
   10618:	0174fc63          	bgeu	s1,s7,10630 <__udivdi3+0x27c>
   1061c:	009984b3          	add	s1,s3,s1
   10620:	fffa8713          	addi	a4,s5,-1
   10624:	0134e663          	bltu	s1,s3,10630 <__udivdi3+0x27c>
   10628:	0174f463          	bgeu	s1,s7,10630 <__udivdi3+0x27c>
   1062c:	ffea8713          	addi	a4,s5,-2
   10630:	010a1793          	slli	a5,s4,0x10
   10634:	00e7e7b3          	or	a5,a5,a4
   10638:	02c12083          	lw	ra,44(sp)
   1063c:	02812403          	lw	s0,40(sp)
   10640:	02412483          	lw	s1,36(sp)
   10644:	01c12983          	lw	s3,28(sp)
   10648:	01812a03          	lw	s4,24(sp)
   1064c:	01412a83          	lw	s5,20(sp)
   10650:	01012b03          	lw	s6,16(sp)
   10654:	00c12b83          	lw	s7,12(sp)
   10658:	00812c03          	lw	s8,8(sp)
   1065c:	00412c83          	lw	s9,4(sp)
   10660:	00012d03          	lw	s10,0(sp)
   10664:	00090593          	mv	a1,s2
   10668:	00078513          	mv	a0,a5
   1066c:	02012903          	lw	s2,32(sp)
   10670:	03010113          	addi	sp,sp,48
   10674:	00008067          	ret
   10678:	010006b7          	lui	a3,0x1000
   1067c:	01800713          	li	a4,24
   10680:	ecd676e3          	bgeu	a2,a3,1054c <__udivdi3+0x198>
   10684:	01000713          	li	a4,16
   10688:	ec5ff06f          	j	1054c <__udivdi3+0x198>
   1068c:	00e619b3          	sll	s3,a2,a4
   10690:	00f5d933          	srl	s2,a1,a5
   10694:	0109db93          	srli	s7,s3,0x10
   10698:	00e595b3          	sll	a1,a1,a4
   1069c:	00fa57b3          	srl	a5,s4,a5
   106a0:	00b7eab3          	or	s5,a5,a1
   106a4:	00ea14b3          	sll	s1,s4,a4
   106a8:	000b8593          	mv	a1,s7
   106ac:	00090513          	mv	a0,s2
   106b0:	01099a13          	slli	s4,s3,0x10
   106b4:	01d050ef          	jal	15ed0 <__hidden___udivsi3>
   106b8:	010a5a13          	srli	s4,s4,0x10
   106bc:	00050593          	mv	a1,a0
   106c0:	00050b13          	mv	s6,a0
   106c4:	000a0513          	mv	a0,s4
   106c8:	7dc050ef          	jal	15ea4 <__mulsi3>
   106cc:	00050413          	mv	s0,a0
   106d0:	000b8593          	mv	a1,s7
   106d4:	00090513          	mv	a0,s2
   106d8:	041050ef          	jal	15f18 <__umodsi3>
   106dc:	01051513          	slli	a0,a0,0x10
   106e0:	010ad713          	srli	a4,s5,0x10
   106e4:	00a76733          	or	a4,a4,a0
   106e8:	000b0913          	mv	s2,s6
   106ec:	00877e63          	bgeu	a4,s0,10708 <__udivdi3+0x354>
   106f0:	00e98733          	add	a4,s3,a4
   106f4:	fffb0913          	addi	s2,s6,-1
   106f8:	01376863          	bltu	a4,s3,10708 <__udivdi3+0x354>
   106fc:	00877663          	bgeu	a4,s0,10708 <__udivdi3+0x354>
   10700:	ffeb0913          	addi	s2,s6,-2
   10704:	01370733          	add	a4,a4,s3
   10708:	40870433          	sub	s0,a4,s0
   1070c:	000b8593          	mv	a1,s7
   10710:	00040513          	mv	a0,s0
   10714:	7bc050ef          	jal	15ed0 <__hidden___udivsi3>
   10718:	00050593          	mv	a1,a0
   1071c:	00050b13          	mv	s6,a0
   10720:	000a0513          	mv	a0,s4
   10724:	780050ef          	jal	15ea4 <__mulsi3>
   10728:	00050a13          	mv	s4,a0
   1072c:	000b8593          	mv	a1,s7
   10730:	00040513          	mv	a0,s0
   10734:	7e4050ef          	jal	15f18 <__umodsi3>
   10738:	010a9793          	slli	a5,s5,0x10
   1073c:	01051513          	slli	a0,a0,0x10
   10740:	0107d793          	srli	a5,a5,0x10
   10744:	00a7e7b3          	or	a5,a5,a0
   10748:	000b0713          	mv	a4,s6
   1074c:	0147fe63          	bgeu	a5,s4,10768 <__udivdi3+0x3b4>
   10750:	00f987b3          	add	a5,s3,a5
   10754:	fffb0713          	addi	a4,s6,-1
   10758:	0137e863          	bltu	a5,s3,10768 <__udivdi3+0x3b4>
   1075c:	0147f663          	bgeu	a5,s4,10768 <__udivdi3+0x3b4>
   10760:	ffeb0713          	addi	a4,s6,-2
   10764:	013787b3          	add	a5,a5,s3
   10768:	01091913          	slli	s2,s2,0x10
   1076c:	41478a33          	sub	s4,a5,s4
   10770:	00e96933          	or	s2,s2,a4
   10774:	dfdff06f          	j	10570 <__udivdi3+0x1bc>
   10778:	1ed5ec63          	bltu	a1,a3,10970 <__udivdi3+0x5bc>
   1077c:	000107b7          	lui	a5,0x10
   10780:	04f6f463          	bgeu	a3,a5,107c8 <__udivdi3+0x414>
   10784:	1006b713          	sltiu	a4,a3,256
   10788:	00173713          	seqz	a4,a4
   1078c:	00371713          	slli	a4,a4,0x3
   10790:	000227b7          	lui	a5,0x22
   10794:	00e6d533          	srl	a0,a3,a4
   10798:	95c78793          	addi	a5,a5,-1700 # 2195c <__clz_tab>
   1079c:	00a787b3          	add	a5,a5,a0
   107a0:	0007c803          	lbu	a6,0(a5)
   107a4:	02000793          	li	a5,32
   107a8:	00e80833          	add	a6,a6,a4
   107ac:	41078933          	sub	s2,a5,a6
   107b0:	03079663          	bne	a5,a6,107dc <__udivdi3+0x428>
   107b4:	00100793          	li	a5,1
   107b8:	e8b6e0e3          	bltu	a3,a1,10638 <__udivdi3+0x284>
   107bc:	00ca37b3          	sltu	a5,s4,a2
   107c0:	0017b793          	seqz	a5,a5
   107c4:	e75ff06f          	j	10638 <__udivdi3+0x284>
   107c8:	010007b7          	lui	a5,0x1000
   107cc:	01800713          	li	a4,24
   107d0:	fcf6f0e3          	bgeu	a3,a5,10790 <__udivdi3+0x3dc>
   107d4:	01000713          	li	a4,16
   107d8:	fb9ff06f          	j	10790 <__udivdi3+0x3dc>
   107dc:	012696b3          	sll	a3,a3,s2
   107e0:	01065ab3          	srl	s5,a2,a6
   107e4:	00daeab3          	or	s5,s5,a3
   107e8:	0105d9b3          	srl	s3,a1,a6
   107ec:	010adc13          	srli	s8,s5,0x10
   107f0:	010a5833          	srl	a6,s4,a6
   107f4:	012595b3          	sll	a1,a1,s2
   107f8:	00b864b3          	or	s1,a6,a1
   107fc:	010a9b93          	slli	s7,s5,0x10
   10800:	000c0593          	mv	a1,s8
   10804:	00098513          	mv	a0,s3
   10808:	01261433          	sll	s0,a2,s2
   1080c:	010bdb93          	srli	s7,s7,0x10
   10810:	6c0050ef          	jal	15ed0 <__hidden___udivsi3>
   10814:	00050593          	mv	a1,a0
   10818:	00050d13          	mv	s10,a0
   1081c:	000b8513          	mv	a0,s7
   10820:	684050ef          	jal	15ea4 <__mulsi3>
   10824:	00050c93          	mv	s9,a0
   10828:	000c0593          	mv	a1,s8
   1082c:	00098513          	mv	a0,s3
   10830:	6e8050ef          	jal	15f18 <__umodsi3>
   10834:	01051513          	slli	a0,a0,0x10
   10838:	0104d693          	srli	a3,s1,0x10
   1083c:	00a6e6b3          	or	a3,a3,a0
   10840:	000d0b13          	mv	s6,s10
   10844:	0196fe63          	bgeu	a3,s9,10860 <__udivdi3+0x4ac>
   10848:	00da86b3          	add	a3,s5,a3
   1084c:	fffd0b13          	addi	s6,s10,-1
   10850:	0156e863          	bltu	a3,s5,10860 <__udivdi3+0x4ac>
   10854:	0196f663          	bgeu	a3,s9,10860 <__udivdi3+0x4ac>
   10858:	ffed0b13          	addi	s6,s10,-2
   1085c:	015686b3          	add	a3,a3,s5
   10860:	419689b3          	sub	s3,a3,s9
   10864:	000c0593          	mv	a1,s8
   10868:	00098513          	mv	a0,s3
   1086c:	664050ef          	jal	15ed0 <__hidden___udivsi3>
   10870:	00050593          	mv	a1,a0
   10874:	00050c93          	mv	s9,a0
   10878:	000b8513          	mv	a0,s7
   1087c:	628050ef          	jal	15ea4 <__mulsi3>
   10880:	00050b93          	mv	s7,a0
   10884:	000c0593          	mv	a1,s8
   10888:	00098513          	mv	a0,s3
   1088c:	68c050ef          	jal	15f18 <__umodsi3>
   10890:	01049713          	slli	a4,s1,0x10
   10894:	01051513          	slli	a0,a0,0x10
   10898:	01075713          	srli	a4,a4,0x10
   1089c:	00a76733          	or	a4,a4,a0
   108a0:	000c8693          	mv	a3,s9
   108a4:	01777e63          	bgeu	a4,s7,108c0 <__udivdi3+0x50c>
   108a8:	00ea8733          	add	a4,s5,a4
   108ac:	fffc8693          	addi	a3,s9,-1
   108b0:	01576863          	bltu	a4,s5,108c0 <__udivdi3+0x50c>
   108b4:	01777663          	bgeu	a4,s7,108c0 <__udivdi3+0x50c>
   108b8:	ffec8693          	addi	a3,s9,-2
   108bc:	01570733          	add	a4,a4,s5
   108c0:	010b1793          	slli	a5,s6,0x10
   108c4:	01069813          	slli	a6,a3,0x10
   108c8:	01041313          	slli	t1,s0,0x10
   108cc:	00d7e7b3          	or	a5,a5,a3
   108d0:	01085813          	srli	a6,a6,0x10
   108d4:	01035313          	srli	t1,t1,0x10
   108d8:	41770733          	sub	a4,a4,s7
   108dc:	0107de13          	srli	t3,a5,0x10
   108e0:	01045413          	srli	s0,s0,0x10
   108e4:	00080513          	mv	a0,a6
   108e8:	00030593          	mv	a1,t1
   108ec:	5b8050ef          	jal	15ea4 <__mulsi3>
   108f0:	00050893          	mv	a7,a0
   108f4:	00040593          	mv	a1,s0
   108f8:	00080513          	mv	a0,a6
   108fc:	5a8050ef          	jal	15ea4 <__mulsi3>
   10900:	00050813          	mv	a6,a0
   10904:	00030593          	mv	a1,t1
   10908:	000e0513          	mv	a0,t3
   1090c:	598050ef          	jal	15ea4 <__mulsi3>
   10910:	00050313          	mv	t1,a0
   10914:	00040593          	mv	a1,s0
   10918:	000e0513          	mv	a0,t3
   1091c:	588050ef          	jal	15ea4 <__mulsi3>
   10920:	0108d693          	srli	a3,a7,0x10
   10924:	00680833          	add	a6,a6,t1
   10928:	010686b3          	add	a3,a3,a6
   1092c:	00050613          	mv	a2,a0
   10930:	0066f663          	bgeu	a3,t1,1093c <__udivdi3+0x588>
   10934:	000105b7          	lui	a1,0x10
   10938:	00b50633          	add	a2,a0,a1
   1093c:	0106d593          	srli	a1,a3,0x10
   10940:	00c58633          	add	a2,a1,a2
   10944:	02c76263          	bltu	a4,a2,10968 <__udivdi3+0x5b4>
   10948:	bcc716e3          	bne	a4,a2,10514 <__udivdi3+0x160>
   1094c:	01089893          	slli	a7,a7,0x10
   10950:	01069693          	slli	a3,a3,0x10
   10954:	0108d893          	srli	a7,a7,0x10
   10958:	012a1733          	sll	a4,s4,s2
   1095c:	011686b3          	add	a3,a3,a7
   10960:	00000913          	li	s2,0
   10964:	ccd77ae3          	bgeu	a4,a3,10638 <__udivdi3+0x284>
   10968:	fff78793          	addi	a5,a5,-1 # ffffff <__global_pointer$+0xfdd147>
   1096c:	ba9ff06f          	j	10514 <__udivdi3+0x160>
   10970:	00000913          	li	s2,0
   10974:	00000793          	li	a5,0
   10978:	cc1ff06f          	j	10638 <__udivdi3+0x284>

0001097c <__umoddi3>:
   1097c:	fd010113          	addi	sp,sp,-48
   10980:	02812423          	sw	s0,40(sp)
   10984:	02912223          	sw	s1,36(sp)
   10988:	02112623          	sw	ra,44(sp)
   1098c:	03212023          	sw	s2,32(sp)
   10990:	01312e23          	sw	s3,28(sp)
   10994:	01412c23          	sw	s4,24(sp)
   10998:	01512a23          	sw	s5,20(sp)
   1099c:	01612823          	sw	s6,16(sp)
   109a0:	01712623          	sw	s7,12(sp)
   109a4:	01812423          	sw	s8,8(sp)
   109a8:	01912223          	sw	s9,4(sp)
   109ac:	01a12023          	sw	s10,0(sp)
   109b0:	00050413          	mv	s0,a0
   109b4:	00058493          	mv	s1,a1
   109b8:	24069c63          	bnez	a3,10c10 <__umoddi3+0x294>
   109bc:	000227b7          	lui	a5,0x22
   109c0:	00060993          	mv	s3,a2
   109c4:	95c78793          	addi	a5,a5,-1700 # 2195c <__clz_tab>
   109c8:	12c5fe63          	bgeu	a1,a2,10b04 <__umoddi3+0x188>
   109cc:	00010737          	lui	a4,0x10
   109d0:	12e67063          	bgeu	a2,a4,10af0 <__umoddi3+0x174>
   109d4:	10063713          	sltiu	a4,a2,256
   109d8:	00173713          	seqz	a4,a4
   109dc:	00371713          	slli	a4,a4,0x3
   109e0:	00e656b3          	srl	a3,a2,a4
   109e4:	00d787b3          	add	a5,a5,a3
   109e8:	0007c783          	lbu	a5,0(a5)
   109ec:	00e787b3          	add	a5,a5,a4
   109f0:	02000713          	li	a4,32
   109f4:	40f70933          	sub	s2,a4,a5
   109f8:	00f70c63          	beq	a4,a5,10a10 <__umoddi3+0x94>
   109fc:	012594b3          	sll	s1,a1,s2
   10a00:	00f557b3          	srl	a5,a0,a5
   10a04:	012619b3          	sll	s3,a2,s2
   10a08:	0097e4b3          	or	s1,a5,s1
   10a0c:	01251433          	sll	s0,a0,s2
   10a10:	0109da93          	srli	s5,s3,0x10
   10a14:	000a8593          	mv	a1,s5
   10a18:	01099b13          	slli	s6,s3,0x10
   10a1c:	00048513          	mv	a0,s1
   10a20:	4b0050ef          	jal	15ed0 <__hidden___udivsi3>
   10a24:	010b5b13          	srli	s6,s6,0x10
   10a28:	000b0593          	mv	a1,s6
   10a2c:	478050ef          	jal	15ea4 <__mulsi3>
   10a30:	00050a13          	mv	s4,a0
   10a34:	000a8593          	mv	a1,s5
   10a38:	00048513          	mv	a0,s1
   10a3c:	4dc050ef          	jal	15f18 <__umodsi3>
   10a40:	01051513          	slli	a0,a0,0x10
   10a44:	01045793          	srli	a5,s0,0x10
   10a48:	00a7e7b3          	or	a5,a5,a0
   10a4c:	0147fa63          	bgeu	a5,s4,10a60 <__umoddi3+0xe4>
   10a50:	00f987b3          	add	a5,s3,a5
   10a54:	0137e663          	bltu	a5,s3,10a60 <__umoddi3+0xe4>
   10a58:	0147f463          	bgeu	a5,s4,10a60 <__umoddi3+0xe4>
   10a5c:	013787b3          	add	a5,a5,s3
   10a60:	414784b3          	sub	s1,a5,s4
   10a64:	000a8593          	mv	a1,s5
   10a68:	00048513          	mv	a0,s1
   10a6c:	464050ef          	jal	15ed0 <__hidden___udivsi3>
   10a70:	000b0593          	mv	a1,s6
   10a74:	430050ef          	jal	15ea4 <__mulsi3>
   10a78:	00050a13          	mv	s4,a0
   10a7c:	000a8593          	mv	a1,s5
   10a80:	00048513          	mv	a0,s1
   10a84:	494050ef          	jal	15f18 <__umodsi3>
   10a88:	01041413          	slli	s0,s0,0x10
   10a8c:	01051513          	slli	a0,a0,0x10
   10a90:	01045413          	srli	s0,s0,0x10
   10a94:	00a46433          	or	s0,s0,a0
   10a98:	01447a63          	bgeu	s0,s4,10aac <__umoddi3+0x130>
   10a9c:	00898433          	add	s0,s3,s0
   10aa0:	01346663          	bltu	s0,s3,10aac <__umoddi3+0x130>
   10aa4:	01447463          	bgeu	s0,s4,10aac <__umoddi3+0x130>
   10aa8:	01340433          	add	s0,s0,s3
   10aac:	41440433          	sub	s0,s0,s4
   10ab0:	01245533          	srl	a0,s0,s2
   10ab4:	00000593          	li	a1,0
   10ab8:	02c12083          	lw	ra,44(sp)
   10abc:	02812403          	lw	s0,40(sp)
   10ac0:	02412483          	lw	s1,36(sp)
   10ac4:	02012903          	lw	s2,32(sp)
   10ac8:	01c12983          	lw	s3,28(sp)
   10acc:	01812a03          	lw	s4,24(sp)
   10ad0:	01412a83          	lw	s5,20(sp)
   10ad4:	01012b03          	lw	s6,16(sp)
   10ad8:	00c12b83          	lw	s7,12(sp)
   10adc:	00812c03          	lw	s8,8(sp)
   10ae0:	00412c83          	lw	s9,4(sp)
   10ae4:	00012d03          	lw	s10,0(sp)
   10ae8:	03010113          	addi	sp,sp,48
   10aec:	00008067          	ret
   10af0:	010006b7          	lui	a3,0x1000
   10af4:	01800713          	li	a4,24
   10af8:	eed674e3          	bgeu	a2,a3,109e0 <__umoddi3+0x64>
   10afc:	01000713          	li	a4,16
   10b00:	ee1ff06f          	j	109e0 <__umoddi3+0x64>
   10b04:	00000713          	li	a4,0
   10b08:	00060c63          	beqz	a2,10b20 <__umoddi3+0x1a4>
   10b0c:	00010737          	lui	a4,0x10
   10b10:	0ee67663          	bgeu	a2,a4,10bfc <__umoddi3+0x280>
   10b14:	10063713          	sltiu	a4,a2,256
   10b18:	00173713          	seqz	a4,a4
   10b1c:	00371713          	slli	a4,a4,0x3
   10b20:	00e656b3          	srl	a3,a2,a4
   10b24:	00d787b3          	add	a5,a5,a3
   10b28:	0007c783          	lbu	a5,0(a5)
   10b2c:	40c584b3          	sub	s1,a1,a2
   10b30:	00e787b3          	add	a5,a5,a4
   10b34:	02000713          	li	a4,32
   10b38:	40f70933          	sub	s2,a4,a5
   10b3c:	ecf70ae3          	beq	a4,a5,10a10 <__umoddi3+0x94>
   10b40:	012619b3          	sll	s3,a2,s2
   10b44:	00f5dbb3          	srl	s7,a1,a5
   10b48:	0109db13          	srli	s6,s3,0x10
   10b4c:	00f557b3          	srl	a5,a0,a5
   10b50:	012595b3          	sll	a1,a1,s2
   10b54:	00b7ea33          	or	s4,a5,a1
   10b58:	01251433          	sll	s0,a0,s2
   10b5c:	000b0593          	mv	a1,s6
   10b60:	01099a93          	slli	s5,s3,0x10
   10b64:	000b8513          	mv	a0,s7
   10b68:	368050ef          	jal	15ed0 <__hidden___udivsi3>
   10b6c:	010ada93          	srli	s5,s5,0x10
   10b70:	000a8593          	mv	a1,s5
   10b74:	330050ef          	jal	15ea4 <__mulsi3>
   10b78:	00050493          	mv	s1,a0
   10b7c:	000b0593          	mv	a1,s6
   10b80:	000b8513          	mv	a0,s7
   10b84:	394050ef          	jal	15f18 <__umodsi3>
   10b88:	01051513          	slli	a0,a0,0x10
   10b8c:	010a5713          	srli	a4,s4,0x10
   10b90:	00a76733          	or	a4,a4,a0
   10b94:	00977a63          	bgeu	a4,s1,10ba8 <__umoddi3+0x22c>
   10b98:	00e98733          	add	a4,s3,a4
   10b9c:	01376663          	bltu	a4,s3,10ba8 <__umoddi3+0x22c>
   10ba0:	00977463          	bgeu	a4,s1,10ba8 <__umoddi3+0x22c>
   10ba4:	01370733          	add	a4,a4,s3
   10ba8:	409704b3          	sub	s1,a4,s1
   10bac:	000b0593          	mv	a1,s6
   10bb0:	00048513          	mv	a0,s1
   10bb4:	31c050ef          	jal	15ed0 <__hidden___udivsi3>
   10bb8:	000a8593          	mv	a1,s5
   10bbc:	2e8050ef          	jal	15ea4 <__mulsi3>
   10bc0:	00050a93          	mv	s5,a0
   10bc4:	000b0593          	mv	a1,s6
   10bc8:	00048513          	mv	a0,s1
   10bcc:	34c050ef          	jal	15f18 <__umodsi3>
   10bd0:	010a1793          	slli	a5,s4,0x10
   10bd4:	01051513          	slli	a0,a0,0x10
   10bd8:	0107d793          	srli	a5,a5,0x10
   10bdc:	00a7e7b3          	or	a5,a5,a0
   10be0:	0157fa63          	bgeu	a5,s5,10bf4 <__umoddi3+0x278>
   10be4:	00f987b3          	add	a5,s3,a5
   10be8:	0137e663          	bltu	a5,s3,10bf4 <__umoddi3+0x278>
   10bec:	0157f463          	bgeu	a5,s5,10bf4 <__umoddi3+0x278>
   10bf0:	013787b3          	add	a5,a5,s3
   10bf4:	415784b3          	sub	s1,a5,s5
   10bf8:	e19ff06f          	j	10a10 <__umoddi3+0x94>
   10bfc:	010006b7          	lui	a3,0x1000
   10c00:	01800713          	li	a4,24
   10c04:	f0d67ee3          	bgeu	a2,a3,10b20 <__umoddi3+0x1a4>
   10c08:	01000713          	li	a4,16
   10c0c:	f15ff06f          	j	10b20 <__umoddi3+0x1a4>
   10c10:	ead5e4e3          	bltu	a1,a3,10ab8 <__umoddi3+0x13c>
   10c14:	000107b7          	lui	a5,0x10
   10c18:	04f6fe63          	bgeu	a3,a5,10c74 <__umoddi3+0x2f8>
   10c1c:	1006b793          	sltiu	a5,a3,256
   10c20:	0017b793          	seqz	a5,a5
   10c24:	00379793          	slli	a5,a5,0x3
   10c28:	00022737          	lui	a4,0x22
   10c2c:	00f6d833          	srl	a6,a3,a5
   10c30:	95c70713          	addi	a4,a4,-1700 # 2195c <__clz_tab>
   10c34:	01070733          	add	a4,a4,a6
   10c38:	00074a83          	lbu	s5,0(a4)
   10c3c:	00fa8ab3          	add	s5,s5,a5
   10c40:	02000793          	li	a5,32
   10c44:	41578a33          	sub	s4,a5,s5
   10c48:	05579063          	bne	a5,s5,10c88 <__umoddi3+0x30c>
   10c4c:	00b6e463          	bltu	a3,a1,10c54 <__umoddi3+0x2d8>
   10c50:	00c56c63          	bltu	a0,a2,10c68 <__umoddi3+0x2ec>
   10c54:	40c50933          	sub	s2,a0,a2
   10c58:	40d586b3          	sub	a3,a1,a3
   10c5c:	012534b3          	sltu	s1,a0,s2
   10c60:	00090413          	mv	s0,s2
   10c64:	409684b3          	sub	s1,a3,s1
   10c68:	00040513          	mv	a0,s0
   10c6c:	00048593          	mv	a1,s1
   10c70:	e49ff06f          	j	10ab8 <__umoddi3+0x13c>
   10c74:	01000737          	lui	a4,0x1000
   10c78:	01800793          	li	a5,24
   10c7c:	fae6f6e3          	bgeu	a3,a4,10c28 <__umoddi3+0x2ac>
   10c80:	01000793          	li	a5,16
   10c84:	fa5ff06f          	j	10c28 <__umoddi3+0x2ac>
   10c88:	014696b3          	sll	a3,a3,s4
   10c8c:	01565b33          	srl	s6,a2,s5
   10c90:	00db6b33          	or	s6,s6,a3
   10c94:	0155dbb3          	srl	s7,a1,s5
   10c98:	01555433          	srl	s0,a0,s5
   10c9c:	014595b3          	sll	a1,a1,s4
   10ca0:	010b5493          	srli	s1,s6,0x10
   10ca4:	00b46433          	or	s0,s0,a1
   10ca8:	014519b3          	sll	s3,a0,s4
   10cac:	00048593          	mv	a1,s1
   10cb0:	000b8513          	mv	a0,s7
   10cb4:	010b1c13          	slli	s8,s6,0x10
   10cb8:	01461933          	sll	s2,a2,s4
   10cbc:	010c5c13          	srli	s8,s8,0x10
   10cc0:	210050ef          	jal	15ed0 <__hidden___udivsi3>
   10cc4:	00050593          	mv	a1,a0
   10cc8:	00050d13          	mv	s10,a0
   10ccc:	000c0513          	mv	a0,s8
   10cd0:	1d4050ef          	jal	15ea4 <__mulsi3>
   10cd4:	00050c93          	mv	s9,a0
   10cd8:	00048593          	mv	a1,s1
   10cdc:	000b8513          	mv	a0,s7
   10ce0:	238050ef          	jal	15f18 <__umodsi3>
   10ce4:	01051513          	slli	a0,a0,0x10
   10ce8:	01045793          	srli	a5,s0,0x10
   10cec:	00a7e7b3          	or	a5,a5,a0
   10cf0:	000d0b93          	mv	s7,s10
   10cf4:	0197fe63          	bgeu	a5,s9,10d10 <__umoddi3+0x394>
   10cf8:	00fb07b3          	add	a5,s6,a5
   10cfc:	fffd0b93          	addi	s7,s10,-1
   10d00:	0167e863          	bltu	a5,s6,10d10 <__umoddi3+0x394>
   10d04:	0197f663          	bgeu	a5,s9,10d10 <__umoddi3+0x394>
   10d08:	ffed0b93          	addi	s7,s10,-2
   10d0c:	016787b3          	add	a5,a5,s6
   10d10:	41978cb3          	sub	s9,a5,s9
   10d14:	00048593          	mv	a1,s1
   10d18:	000c8513          	mv	a0,s9
   10d1c:	1b4050ef          	jal	15ed0 <__hidden___udivsi3>
   10d20:	00050593          	mv	a1,a0
   10d24:	00050d13          	mv	s10,a0
   10d28:	000c0513          	mv	a0,s8
   10d2c:	178050ef          	jal	15ea4 <__mulsi3>
   10d30:	00048593          	mv	a1,s1
   10d34:	00050c13          	mv	s8,a0
   10d38:	000c8513          	mv	a0,s9
   10d3c:	1dc050ef          	jal	15f18 <__umodsi3>
   10d40:	01041593          	slli	a1,s0,0x10
   10d44:	01051513          	slli	a0,a0,0x10
   10d48:	0105d593          	srli	a1,a1,0x10
   10d4c:	00a5e5b3          	or	a1,a1,a0
   10d50:	000d0793          	mv	a5,s10
   10d54:	0185fe63          	bgeu	a1,s8,10d70 <__umoddi3+0x3f4>
   10d58:	00bb05b3          	add	a1,s6,a1
   10d5c:	fffd0793          	addi	a5,s10,-1
   10d60:	0165e863          	bltu	a1,s6,10d70 <__umoddi3+0x3f4>
   10d64:	0185f663          	bgeu	a1,s8,10d70 <__umoddi3+0x3f4>
   10d68:	ffed0793          	addi	a5,s10,-2
   10d6c:	016585b3          	add	a1,a1,s6
   10d70:	010b9b93          	slli	s7,s7,0x10
   10d74:	00fbebb3          	or	s7,s7,a5
   10d78:	01091893          	slli	a7,s2,0x10
   10d7c:	01079793          	slli	a5,a5,0x10
   10d80:	0107d793          	srli	a5,a5,0x10
   10d84:	0108d893          	srli	a7,a7,0x10
   10d88:	418584b3          	sub	s1,a1,s8
   10d8c:	010bdb93          	srli	s7,s7,0x10
   10d90:	01095713          	srli	a4,s2,0x10
   10d94:	00078513          	mv	a0,a5
   10d98:	00088593          	mv	a1,a7
   10d9c:	108050ef          	jal	15ea4 <__mulsi3>
   10da0:	00050813          	mv	a6,a0
   10da4:	00070593          	mv	a1,a4
   10da8:	00078513          	mv	a0,a5
   10dac:	00070793          	mv	a5,a4
   10db0:	0f4050ef          	jal	15ea4 <__mulsi3>
   10db4:	00050713          	mv	a4,a0
   10db8:	00088593          	mv	a1,a7
   10dbc:	000b8513          	mv	a0,s7
   10dc0:	0e4050ef          	jal	15ea4 <__mulsi3>
   10dc4:	00050893          	mv	a7,a0
   10dc8:	00078593          	mv	a1,a5
   10dcc:	000b8513          	mv	a0,s7
   10dd0:	0d4050ef          	jal	15ea4 <__mulsi3>
   10dd4:	01085793          	srli	a5,a6,0x10
   10dd8:	01170733          	add	a4,a4,a7
   10ddc:	00e787b3          	add	a5,a5,a4
   10de0:	00050693          	mv	a3,a0
   10de4:	0117f663          	bgeu	a5,a7,10df0 <__umoddi3+0x474>
   10de8:	00010737          	lui	a4,0x10
   10dec:	00e506b3          	add	a3,a0,a4
   10df0:	0107d713          	srli	a4,a5,0x10
   10df4:	01081813          	slli	a6,a6,0x10
   10df8:	01079793          	slli	a5,a5,0x10
   10dfc:	01085813          	srli	a6,a6,0x10
   10e00:	00d70733          	add	a4,a4,a3
   10e04:	010787b3          	add	a5,a5,a6
   10e08:	00e4e663          	bltu	s1,a4,10e14 <__umoddi3+0x498>
   10e0c:	00e49e63          	bne	s1,a4,10e28 <__umoddi3+0x4ac>
   10e10:	00f9fc63          	bgeu	s3,a5,10e28 <__umoddi3+0x4ac>
   10e14:	41278933          	sub	s2,a5,s2
   10e18:	0127b6b3          	sltu	a3,a5,s2
   10e1c:	016686b3          	add	a3,a3,s6
   10e20:	00090793          	mv	a5,s2
   10e24:	40d70733          	sub	a4,a4,a3
   10e28:	40f987b3          	sub	a5,s3,a5
   10e2c:	00f9b9b3          	sltu	s3,s3,a5
   10e30:	40e485b3          	sub	a1,s1,a4
   10e34:	413585b3          	sub	a1,a1,s3
   10e38:	01559ab3          	sll	s5,a1,s5
   10e3c:	0147d7b3          	srl	a5,a5,s4
   10e40:	00fae533          	or	a0,s5,a5
   10e44:	0145d5b3          	srl	a1,a1,s4
   10e48:	c71ff06f          	j	10ab8 <__umoddi3+0x13c>

00010e4c <__adddf3>:
   10e4c:	00100837          	lui	a6,0x100
   10e50:	fff80813          	addi	a6,a6,-1 # fffff <__global_pointer$+0xdd147>
   10e54:	fe010113          	addi	sp,sp,-32
   10e58:	00b878b3          	and	a7,a6,a1
   10e5c:	0145d713          	srli	a4,a1,0x14
   10e60:	00d87833          	and	a6,a6,a3
   10e64:	01412423          	sw	s4,8(sp)
   10e68:	7ff77a13          	andi	s4,a4,2047
   10e6c:	00389713          	slli	a4,a7,0x3
   10e70:	0146d893          	srli	a7,a3,0x14
   10e74:	01d55793          	srli	a5,a0,0x1d
   10e78:	00381813          	slli	a6,a6,0x3
   10e7c:	01312623          	sw	s3,12(sp)
   10e80:	7ff8f893          	andi	a7,a7,2047
   10e84:	01f5d993          	srli	s3,a1,0x1f
   10e88:	00112e23          	sw	ra,28(sp)
   10e8c:	01d65593          	srli	a1,a2,0x1d
   10e90:	00812c23          	sw	s0,24(sp)
   10e94:	00912a23          	sw	s1,20(sp)
   10e98:	01212823          	sw	s2,16(sp)
   10e9c:	01512223          	sw	s5,4(sp)
   10ea0:	01f6d693          	srli	a3,a3,0x1f
   10ea4:	0105e5b3          	or	a1,a1,a6
   10ea8:	00e7e7b3          	or	a5,a5,a4
   10eac:	00351513          	slli	a0,a0,0x3
   10eb0:	00361613          	slli	a2,a2,0x3
   10eb4:	411a0833          	sub	a6,s4,a7
   10eb8:	7ff00313          	li	t1,2047
   10ebc:	32d99863          	bne	s3,a3,111ec <__adddf3+0x3a0>
   10ec0:	17005e63          	blez	a6,1103c <__adddf3+0x1f0>
   10ec4:	0a089863          	bnez	a7,10f74 <__adddf3+0x128>
   10ec8:	00c5e733          	or	a4,a1,a2
   10ecc:	02070663          	beqz	a4,10ef8 <__adddf3+0xac>
   10ed0:	fffa0813          	addi	a6,s4,-1
   10ed4:	02081063          	bnez	a6,10ef4 <__adddf3+0xa8>
   10ed8:	00c50633          	add	a2,a0,a2
   10edc:	00a63733          	sltu	a4,a2,a0
   10ee0:	00b785b3          	add	a1,a5,a1
   10ee4:	00060513          	mv	a0,a2
   10ee8:	00e587b3          	add	a5,a1,a4
   10eec:	00100a13          	li	s4,1
   10ef0:	0d40006f          	j	10fc4 <__adddf3+0x178>
   10ef4:	086a1663          	bne	s4,t1,10f80 <__adddf3+0x134>
   10ef8:	01d79693          	slli	a3,a5,0x1d
   10efc:	00355513          	srli	a0,a0,0x3
   10f00:	7ff00713          	li	a4,2047
   10f04:	00a6e6b3          	or	a3,a3,a0
   10f08:	0037d793          	srli	a5,a5,0x3
   10f0c:	00ea1e63          	bne	s4,a4,10f28 <__adddf3+0xdc>
   10f10:	00f6e6b3          	or	a3,a3,a5
   10f14:	00000793          	li	a5,0
   10f18:	00068863          	beqz	a3,10f28 <__adddf3+0xdc>
   10f1c:	000807b7          	lui	a5,0x80
   10f20:	00000693          	li	a3,0
   10f24:	00000993          	li	s3,0
   10f28:	014a1713          	slli	a4,s4,0x14
   10f2c:	7ff00637          	lui	a2,0x7ff00
   10f30:	00c79793          	slli	a5,a5,0xc
   10f34:	00c77733          	and	a4,a4,a2
   10f38:	01c12083          	lw	ra,28(sp)
   10f3c:	01812403          	lw	s0,24(sp)
   10f40:	00c7d793          	srli	a5,a5,0xc
   10f44:	00f767b3          	or	a5,a4,a5
   10f48:	01f99713          	slli	a4,s3,0x1f
   10f4c:	00e7e633          	or	a2,a5,a4
   10f50:	01412483          	lw	s1,20(sp)
   10f54:	01012903          	lw	s2,16(sp)
   10f58:	00c12983          	lw	s3,12(sp)
   10f5c:	00812a03          	lw	s4,8(sp)
   10f60:	00412a83          	lw	s5,4(sp)
   10f64:	00068513          	mv	a0,a3
   10f68:	00060593          	mv	a1,a2
   10f6c:	02010113          	addi	sp,sp,32
   10f70:	00008067          	ret
   10f74:	f86a02e3          	beq	s4,t1,10ef8 <__adddf3+0xac>
   10f78:	00800737          	lui	a4,0x800
   10f7c:	00e5e5b3          	or	a1,a1,a4
   10f80:	03800713          	li	a4,56
   10f84:	0b074663          	blt	a4,a6,11030 <__adddf3+0x1e4>
   10f88:	01f00713          	li	a4,31
   10f8c:	02000893          	li	a7,32
   10f90:	07074863          	blt	a4,a6,11000 <__adddf3+0x1b4>
   10f94:	410888b3          	sub	a7,a7,a6
   10f98:	01159733          	sll	a4,a1,a7
   10f9c:	010656b3          	srl	a3,a2,a6
   10fa0:	011618b3          	sll	a7,a2,a7
   10fa4:	00d76733          	or	a4,a4,a3
   10fa8:	011038b3          	snez	a7,a7
   10fac:	01176733          	or	a4,a4,a7
   10fb0:	0105d833          	srl	a6,a1,a6
   10fb4:	00a70533          	add	a0,a4,a0
   10fb8:	00f80833          	add	a6,a6,a5
   10fbc:	00e53733          	sltu	a4,a0,a4
   10fc0:	00e807b3          	add	a5,a6,a4
   10fc4:	00879713          	slli	a4,a5,0x8
   10fc8:	1c075e63          	bgez	a4,111a4 <__adddf3+0x358>
   10fcc:	001a0a13          	addi	s4,s4,1
   10fd0:	7ff00713          	li	a4,2047
   10fd4:	5cea0863          	beq	s4,a4,115a4 <__adddf3+0x758>
   10fd8:	ff800737          	lui	a4,0xff800
   10fdc:	fff70713          	addi	a4,a4,-1 # ff7fffff <__global_pointer$+0xff7dd147>
   10fe0:	00e7f7b3          	and	a5,a5,a4
   10fe4:	00155713          	srli	a4,a0,0x1
   10fe8:	00157513          	andi	a0,a0,1
   10fec:	00a76733          	or	a4,a4,a0
   10ff0:	01f79513          	slli	a0,a5,0x1f
   10ff4:	00e56533          	or	a0,a0,a4
   10ff8:	0017d793          	srli	a5,a5,0x1
   10ffc:	1a80006f          	j	111a4 <__adddf3+0x358>
   11000:	fe080713          	addi	a4,a6,-32
   11004:	00e5d733          	srl	a4,a1,a4
   11008:	00000693          	li	a3,0
   1100c:	01180863          	beq	a6,a7,1101c <__adddf3+0x1d0>
   11010:	04000693          	li	a3,64
   11014:	410686b3          	sub	a3,a3,a6
   11018:	00d596b3          	sll	a3,a1,a3
   1101c:	00c6e6b3          	or	a3,a3,a2
   11020:	00d036b3          	snez	a3,a3
   11024:	00d76733          	or	a4,a4,a3
   11028:	00000813          	li	a6,0
   1102c:	f89ff06f          	j	10fb4 <__adddf3+0x168>
   11030:	00c5e733          	or	a4,a1,a2
   11034:	00e03733          	snez	a4,a4
   11038:	ff1ff06f          	j	11028 <__adddf3+0x1dc>
   1103c:	0c080663          	beqz	a6,11108 <__adddf3+0x2bc>
   11040:	41488733          	sub	a4,a7,s4
   11044:	020a1463          	bnez	s4,1106c <__adddf3+0x220>
   11048:	00a7e6b3          	or	a3,a5,a0
   1104c:	00068863          	beqz	a3,1105c <__adddf3+0x210>
   11050:	fff70693          	addi	a3,a4,-1
   11054:	e80682e3          	beqz	a3,10ed8 <__adddf3+0x8c>
   11058:	02671263          	bne	a4,t1,1107c <__adddf3+0x230>
   1105c:	00058793          	mv	a5,a1
   11060:	00060513          	mv	a0,a2
   11064:	00070a13          	mv	s4,a4
   11068:	e91ff06f          	j	10ef8 <__adddf3+0xac>
   1106c:	54688263          	beq	a7,t1,115b0 <__adddf3+0x764>
   11070:	008006b7          	lui	a3,0x800
   11074:	00d7e7b3          	or	a5,a5,a3
   11078:	00070693          	mv	a3,a4
   1107c:	03800713          	li	a4,56
   11080:	06d74e63          	blt	a4,a3,110fc <__adddf3+0x2b0>
   11084:	01f00713          	li	a4,31
   11088:	02000313          	li	t1,32
   1108c:	04d74063          	blt	a4,a3,110cc <__adddf3+0x280>
   11090:	40d30333          	sub	t1,t1,a3
   11094:	00679733          	sll	a4,a5,t1
   11098:	00d55833          	srl	a6,a0,a3
   1109c:	00651333          	sll	t1,a0,t1
   110a0:	01076733          	or	a4,a4,a6
   110a4:	00603333          	snez	t1,t1
   110a8:	00676733          	or	a4,a4,t1
   110ac:	00d7d6b3          	srl	a3,a5,a3
   110b0:	00c70633          	add	a2,a4,a2
   110b4:	00b686b3          	add	a3,a3,a1
   110b8:	00e63733          	sltu	a4,a2,a4
   110bc:	00060513          	mv	a0,a2
   110c0:	00e687b3          	add	a5,a3,a4
   110c4:	00088a13          	mv	s4,a7
   110c8:	efdff06f          	j	10fc4 <__adddf3+0x178>
   110cc:	fe068713          	addi	a4,a3,-32 # 7fffe0 <__global_pointer$+0x7dd128>
   110d0:	00e7d733          	srl	a4,a5,a4
   110d4:	00000813          	li	a6,0
   110d8:	00668863          	beq	a3,t1,110e8 <__adddf3+0x29c>
   110dc:	04000813          	li	a6,64
   110e0:	40d80833          	sub	a6,a6,a3
   110e4:	01079833          	sll	a6,a5,a6
   110e8:	00a86833          	or	a6,a6,a0
   110ec:	01003833          	snez	a6,a6
   110f0:	01076733          	or	a4,a4,a6
   110f4:	00000693          	li	a3,0
   110f8:	fb9ff06f          	j	110b0 <__adddf3+0x264>
   110fc:	00a7e733          	or	a4,a5,a0
   11100:	00e03733          	snez	a4,a4
   11104:	ff1ff06f          	j	110f4 <__adddf3+0x2a8>
   11108:	001a0713          	addi	a4,s4,1
   1110c:	7fe77693          	andi	a3,a4,2046
   11110:	06069663          	bnez	a3,1117c <__adddf3+0x330>
   11114:	00a7e733          	or	a4,a5,a0
   11118:	040a1263          	bnez	s4,1115c <__adddf3+0x310>
   1111c:	46070263          	beqz	a4,11580 <__adddf3+0x734>
   11120:	00c5e733          	or	a4,a1,a2
   11124:	46070263          	beqz	a4,11588 <__adddf3+0x73c>
   11128:	00c50733          	add	a4,a0,a2
   1112c:	00b785b3          	add	a1,a5,a1
   11130:	00a737b3          	sltu	a5,a4,a0
   11134:	00f587b3          	add	a5,a1,a5
   11138:	00879693          	slli	a3,a5,0x8
   1113c:	00070613          	mv	a2,a4
   11140:	2c06de63          	bgez	a3,1141c <__adddf3+0x5d0>
   11144:	ff8006b7          	lui	a3,0xff800
   11148:	fff68693          	addi	a3,a3,-1 # ff7fffff <__global_pointer$+0xff7dd147>
   1114c:	00d7f7b3          	and	a5,a5,a3
   11150:	00070513          	mv	a0,a4
   11154:	00100a13          	li	s4,1
   11158:	da1ff06f          	j	10ef8 <__adddf3+0xac>
   1115c:	42070a63          	beqz	a4,11590 <__adddf3+0x744>
   11160:	00c5e633          	or	a2,a1,a2
   11164:	00030a13          	mv	s4,t1
   11168:	d80608e3          	beqz	a2,10ef8 <__adddf3+0xac>
   1116c:	00000993          	li	s3,0
   11170:	004007b7          	lui	a5,0x400
   11174:	00000513          	li	a0,0
   11178:	d81ff06f          	j	10ef8 <__adddf3+0xac>
   1117c:	42670263          	beq	a4,t1,115a0 <__adddf3+0x754>
   11180:	00c50633          	add	a2,a0,a2
   11184:	00a63533          	sltu	a0,a2,a0
   11188:	00b785b3          	add	a1,a5,a1
   1118c:	00a585b3          	add	a1,a1,a0
   11190:	01f59513          	slli	a0,a1,0x1f
   11194:	00165613          	srli	a2,a2,0x1
   11198:	00c56533          	or	a0,a0,a2
   1119c:	0015d793          	srli	a5,a1,0x1
   111a0:	00070a13          	mv	s4,a4
   111a4:	00757713          	andi	a4,a0,7
   111a8:	02070063          	beqz	a4,111c8 <__adddf3+0x37c>
   111ac:	00f57713          	andi	a4,a0,15
   111b0:	00400693          	li	a3,4
   111b4:	00d70a63          	beq	a4,a3,111c8 <__adddf3+0x37c>
   111b8:	00d50733          	add	a4,a0,a3
   111bc:	00a736b3          	sltu	a3,a4,a0
   111c0:	00d787b3          	add	a5,a5,a3
   111c4:	00070513          	mv	a0,a4
   111c8:	00879713          	slli	a4,a5,0x8
   111cc:	d20756e3          	bgez	a4,10ef8 <__adddf3+0xac>
   111d0:	001a0a13          	addi	s4,s4,1
   111d4:	7ff00713          	li	a4,2047
   111d8:	3cea0663          	beq	s4,a4,115a4 <__adddf3+0x758>
   111dc:	ff800737          	lui	a4,0xff800
   111e0:	fff70713          	addi	a4,a4,-1 # ff7fffff <__global_pointer$+0xff7dd147>
   111e4:	00e7f7b3          	and	a5,a5,a4
   111e8:	d11ff06f          	j	10ef8 <__adddf3+0xac>
   111ec:	0f005463          	blez	a6,112d4 <__adddf3+0x488>
   111f0:	08089c63          	bnez	a7,11288 <__adddf3+0x43c>
   111f4:	00c5e733          	or	a4,a1,a2
   111f8:	d00700e3          	beqz	a4,10ef8 <__adddf3+0xac>
   111fc:	fffa0813          	addi	a6,s4,-1
   11200:	02081063          	bnez	a6,11220 <__adddf3+0x3d4>
   11204:	40c50633          	sub	a2,a0,a2
   11208:	00c53733          	sltu	a4,a0,a2
   1120c:	40b785b3          	sub	a1,a5,a1
   11210:	00060513          	mv	a0,a2
   11214:	40e587b3          	sub	a5,a1,a4
   11218:	00100a13          	li	s4,1
   1121c:	0500006f          	j	1126c <__adddf3+0x420>
   11220:	cc6a0ce3          	beq	s4,t1,10ef8 <__adddf3+0xac>
   11224:	03800713          	li	a4,56
   11228:	0b074063          	blt	a4,a6,112c8 <__adddf3+0x47c>
   1122c:	01f00713          	li	a4,31
   11230:	02000893          	li	a7,32
   11234:	07074263          	blt	a4,a6,11298 <__adddf3+0x44c>
   11238:	410888b3          	sub	a7,a7,a6
   1123c:	01159733          	sll	a4,a1,a7
   11240:	010656b3          	srl	a3,a2,a6
   11244:	011618b3          	sll	a7,a2,a7
   11248:	00d76733          	or	a4,a4,a3
   1124c:	011038b3          	snez	a7,a7
   11250:	01176733          	or	a4,a4,a7
   11254:	0105d833          	srl	a6,a1,a6
   11258:	40e50733          	sub	a4,a0,a4
   1125c:	00e536b3          	sltu	a3,a0,a4
   11260:	41078833          	sub	a6,a5,a6
   11264:	00070513          	mv	a0,a4
   11268:	40d807b3          	sub	a5,a6,a3
   1126c:	00879713          	slli	a4,a5,0x8
   11270:	f2075ae3          	bgez	a4,111a4 <__adddf3+0x358>
   11274:	00800937          	lui	s2,0x800
   11278:	fff90913          	addi	s2,s2,-1 # 7fffff <__global_pointer$+0x7dd147>
   1127c:	0127f933          	and	s2,a5,s2
   11280:	00050a93          	mv	s5,a0
   11284:	2180006f          	j	1149c <__adddf3+0x650>
   11288:	c66a08e3          	beq	s4,t1,10ef8 <__adddf3+0xac>
   1128c:	00800737          	lui	a4,0x800
   11290:	00e5e5b3          	or	a1,a1,a4
   11294:	f91ff06f          	j	11224 <__adddf3+0x3d8>
   11298:	fe080713          	addi	a4,a6,-32
   1129c:	00e5d733          	srl	a4,a1,a4
   112a0:	00000693          	li	a3,0
   112a4:	01180863          	beq	a6,a7,112b4 <__adddf3+0x468>
   112a8:	04000693          	li	a3,64
   112ac:	410686b3          	sub	a3,a3,a6
   112b0:	00d596b3          	sll	a3,a1,a3
   112b4:	00c6e6b3          	or	a3,a3,a2
   112b8:	00d036b3          	snez	a3,a3
   112bc:	00d76733          	or	a4,a4,a3
   112c0:	00000813          	li	a6,0
   112c4:	f95ff06f          	j	11258 <__adddf3+0x40c>
   112c8:	00c5e733          	or	a4,a1,a2
   112cc:	00e03733          	snez	a4,a4
   112d0:	ff1ff06f          	j	112c0 <__adddf3+0x474>
   112d4:	0e080463          	beqz	a6,113bc <__adddf3+0x570>
   112d8:	41488833          	sub	a6,a7,s4
   112dc:	040a1263          	bnez	s4,11320 <__adddf3+0x4d4>
   112e0:	00a7e733          	or	a4,a5,a0
   112e4:	02070463          	beqz	a4,1130c <__adddf3+0x4c0>
   112e8:	fff80713          	addi	a4,a6,-1
   112ec:	00071e63          	bnez	a4,11308 <__adddf3+0x4bc>
   112f0:	40a60533          	sub	a0,a2,a0
   112f4:	40f585b3          	sub	a1,a1,a5
   112f8:	00a63633          	sltu	a2,a2,a0
   112fc:	40c587b3          	sub	a5,a1,a2
   11300:	00068993          	mv	s3,a3
   11304:	f15ff06f          	j	11218 <__adddf3+0x3cc>
   11308:	02681463          	bne	a6,t1,11330 <__adddf3+0x4e4>
   1130c:	00068993          	mv	s3,a3
   11310:	00058793          	mv	a5,a1
   11314:	00060513          	mv	a0,a2
   11318:	00080a13          	mv	s4,a6
   1131c:	bddff06f          	j	10ef8 <__adddf3+0xac>
   11320:	28688663          	beq	a7,t1,115ac <__adddf3+0x760>
   11324:	00800737          	lui	a4,0x800
   11328:	00e7e7b3          	or	a5,a5,a4
   1132c:	00080713          	mv	a4,a6
   11330:	03800813          	li	a6,56
   11334:	06e84e63          	blt	a6,a4,113b0 <__adddf3+0x564>
   11338:	01f00813          	li	a6,31
   1133c:	02000e13          	li	t3,32
   11340:	04e84063          	blt	a6,a4,11380 <__adddf3+0x534>
   11344:	40ee0e33          	sub	t3,t3,a4
   11348:	00e55333          	srl	t1,a0,a4
   1134c:	01c79833          	sll	a6,a5,t3
   11350:	01c51e33          	sll	t3,a0,t3
   11354:	00686833          	or	a6,a6,t1
   11358:	01c03e33          	snez	t3,t3
   1135c:	01c86533          	or	a0,a6,t3
   11360:	00e7d733          	srl	a4,a5,a4
   11364:	40a60533          	sub	a0,a2,a0
   11368:	40e58733          	sub	a4,a1,a4
   1136c:	00a63633          	sltu	a2,a2,a0
   11370:	40c707b3          	sub	a5,a4,a2
   11374:	00088a13          	mv	s4,a7
   11378:	00068993          	mv	s3,a3
   1137c:	ef1ff06f          	j	1126c <__adddf3+0x420>
   11380:	fe070813          	addi	a6,a4,-32 # 7fffe0 <__global_pointer$+0x7dd128>
   11384:	0107d833          	srl	a6,a5,a6
   11388:	00000313          	li	t1,0
   1138c:	01c70863          	beq	a4,t3,1139c <__adddf3+0x550>
   11390:	04000313          	li	t1,64
   11394:	40e30333          	sub	t1,t1,a4
   11398:	00679333          	sll	t1,a5,t1
   1139c:	00a36333          	or	t1,t1,a0
   113a0:	00603333          	snez	t1,t1
   113a4:	00686533          	or	a0,a6,t1
   113a8:	00000713          	li	a4,0
   113ac:	fb9ff06f          	j	11364 <__adddf3+0x518>
   113b0:	00a7e533          	or	a0,a5,a0
   113b4:	00a03533          	snez	a0,a0
   113b8:	ff1ff06f          	j	113a8 <__adddf3+0x55c>
   113bc:	001a0713          	addi	a4,s4,1
   113c0:	7fe77713          	andi	a4,a4,2046
   113c4:	0a071463          	bnez	a4,1146c <__adddf3+0x620>
   113c8:	00a7e833          	or	a6,a5,a0
   113cc:	00c5e733          	or	a4,a1,a2
   113d0:	060a1a63          	bnez	s4,11444 <__adddf3+0x5f8>
   113d4:	00081a63          	bnez	a6,113e8 <__adddf3+0x59c>
   113d8:	00058793          	mv	a5,a1
   113dc:	02071e63          	bnez	a4,11418 <__adddf3+0x5cc>
   113e0:	00000993          	li	s3,0
   113e4:	1c00006f          	j	115a4 <__adddf3+0x758>
   113e8:	1a070063          	beqz	a4,11588 <__adddf3+0x73c>
   113ec:	40c50833          	sub	a6,a0,a2
   113f0:	010538b3          	sltu	a7,a0,a6
   113f4:	40b78733          	sub	a4,a5,a1
   113f8:	41170733          	sub	a4,a4,a7
   113fc:	00871893          	slli	a7,a4,0x8
   11400:	0208d863          	bgez	a7,11430 <__adddf3+0x5e4>
   11404:	40a60533          	sub	a0,a2,a0
   11408:	00a63733          	sltu	a4,a2,a0
   1140c:	40f585b3          	sub	a1,a1,a5
   11410:	00050613          	mv	a2,a0
   11414:	40e587b3          	sub	a5,a1,a4
   11418:	00068993          	mv	s3,a3
   1141c:	00c7e533          	or	a0,a5,a2
   11420:	0e050663          	beqz	a0,1150c <__adddf3+0x6c0>
   11424:	00060513          	mv	a0,a2
   11428:	00000a13          	li	s4,0
   1142c:	d79ff06f          	j	111a4 <__adddf3+0x358>
   11430:	00e86533          	or	a0,a6,a4
   11434:	18050663          	beqz	a0,115c0 <__adddf3+0x774>
   11438:	00070793          	mv	a5,a4
   1143c:	00080613          	mv	a2,a6
   11440:	fddff06f          	j	1141c <__adddf3+0x5d0>
   11444:	00081e63          	bnez	a6,11460 <__adddf3+0x614>
   11448:	00068993          	mv	s3,a3
   1144c:	14071263          	bnez	a4,11590 <__adddf3+0x744>
   11450:	00000993          	li	s3,0
   11454:	004007b7          	lui	a5,0x400
   11458:	00000513          	li	a0,0
   1145c:	13c0006f          	j	11598 <__adddf3+0x74c>
   11460:	00030a13          	mv	s4,t1
   11464:	a8070ae3          	beqz	a4,10ef8 <__adddf3+0xac>
   11468:	d05ff06f          	j	1116c <__adddf3+0x320>
   1146c:	40c50733          	sub	a4,a0,a2
   11470:	00e53833          	sltu	a6,a0,a4
   11474:	40b78933          	sub	s2,a5,a1
   11478:	41090933          	sub	s2,s2,a6
   1147c:	00891813          	slli	a6,s2,0x8
   11480:	00070a93          	mv	s5,a4
   11484:	06085e63          	bgez	a6,11500 <__adddf3+0x6b4>
   11488:	40a60ab3          	sub	s5,a2,a0
   1148c:	40f58933          	sub	s2,a1,a5
   11490:	01563633          	sltu	a2,a2,s5
   11494:	40c90933          	sub	s2,s2,a2
   11498:	00068993          	mv	s3,a3
   1149c:	06090e63          	beqz	s2,11518 <__adddf3+0x6cc>
   114a0:	00090513          	mv	a0,s2
   114a4:	2d9040ef          	jal	15f7c <__clzsi2>
   114a8:	ff850613          	addi	a2,a0,-8
   114ac:	02000793          	li	a5,32
   114b0:	40c787b3          	sub	a5,a5,a2
   114b4:	00c91933          	sll	s2,s2,a2
   114b8:	00fad7b3          	srl	a5,s5,a5
   114bc:	0127e7b3          	or	a5,a5,s2
   114c0:	00ca9933          	sll	s2,s5,a2
   114c4:	0b464263          	blt	a2,s4,11568 <__adddf3+0x71c>
   114c8:	41460633          	sub	a2,a2,s4
   114cc:	00160593          	addi	a1,a2,1 # 7ff00001 <__global_pointer$+0x7fedd149>
   114d0:	01f00713          	li	a4,31
   114d4:	02000693          	li	a3,32
   114d8:	06b74063          	blt	a4,a1,11538 <__adddf3+0x6ec>
   114dc:	40b686b3          	sub	a3,a3,a1
   114e0:	00d79633          	sll	a2,a5,a3
   114e4:	00b95733          	srl	a4,s2,a1
   114e8:	00d916b3          	sll	a3,s2,a3
   114ec:	00e66633          	or	a2,a2,a4
   114f0:	00d036b3          	snez	a3,a3
   114f4:	00d66633          	or	a2,a2,a3
   114f8:	00b7d7b3          	srl	a5,a5,a1
   114fc:	f21ff06f          	j	1141c <__adddf3+0x5d0>
   11500:	01276533          	or	a0,a4,s2
   11504:	f8051ce3          	bnez	a0,1149c <__adddf3+0x650>
   11508:	00000993          	li	s3,0
   1150c:	00000793          	li	a5,0
   11510:	00000a13          	li	s4,0
   11514:	9e5ff06f          	j	10ef8 <__adddf3+0xac>
   11518:	000a8513          	mv	a0,s5
   1151c:	261040ef          	jal	15f7c <__clzsi2>
   11520:	01850613          	addi	a2,a0,24
   11524:	01f00793          	li	a5,31
   11528:	f8c7d2e3          	bge	a5,a2,114ac <__adddf3+0x660>
   1152c:	ff850793          	addi	a5,a0,-8
   11530:	00fa97b3          	sll	a5,s5,a5
   11534:	f91ff06f          	j	114c4 <__adddf3+0x678>
   11538:	fe160613          	addi	a2,a2,-31
   1153c:	00c7d633          	srl	a2,a5,a2
   11540:	00000713          	li	a4,0
   11544:	00d58863          	beq	a1,a3,11554 <__adddf3+0x708>
   11548:	04000713          	li	a4,64
   1154c:	40b70733          	sub	a4,a4,a1
   11550:	00e79733          	sll	a4,a5,a4
   11554:	00e96733          	or	a4,s2,a4
   11558:	00e03733          	snez	a4,a4
   1155c:	00e66633          	or	a2,a2,a4
   11560:	00000793          	li	a5,0
   11564:	eb9ff06f          	j	1141c <__adddf3+0x5d0>
   11568:	ff800737          	lui	a4,0xff800
   1156c:	fff70713          	addi	a4,a4,-1 # ff7fffff <__global_pointer$+0xff7dd147>
   11570:	40ca0a33          	sub	s4,s4,a2
   11574:	00e7f7b3          	and	a5,a5,a4
   11578:	00090513          	mv	a0,s2
   1157c:	c29ff06f          	j	111a4 <__adddf3+0x358>
   11580:	00058793          	mv	a5,a1
   11584:	e99ff06f          	j	1141c <__adddf3+0x5d0>
   11588:	00050613          	mv	a2,a0
   1158c:	e91ff06f          	j	1141c <__adddf3+0x5d0>
   11590:	00058793          	mv	a5,a1
   11594:	00060513          	mv	a0,a2
   11598:	00030a13          	mv	s4,t1
   1159c:	95dff06f          	j	10ef8 <__adddf3+0xac>
   115a0:	00070a13          	mv	s4,a4
   115a4:	00000793          	li	a5,0
   115a8:	bcdff06f          	j	11174 <__adddf3+0x328>
   115ac:	00068993          	mv	s3,a3
   115b0:	00058793          	mv	a5,a1
   115b4:	00060513          	mv	a0,a2
   115b8:	00088a13          	mv	s4,a7
   115bc:	93dff06f          	j	10ef8 <__adddf3+0xac>
   115c0:	00000993          	li	s3,0
   115c4:	00000793          	li	a5,0
   115c8:	931ff06f          	j	10ef8 <__adddf3+0xac>

000115cc <__divdf3>:
   115cc:	fb010113          	addi	sp,sp,-80
   115d0:	03512a23          	sw	s5,52(sp)
   115d4:	0145da93          	srli	s5,a1,0x14
   115d8:	04812423          	sw	s0,72(sp)
   115dc:	03412c23          	sw	s4,56(sp)
   115e0:	03612823          	sw	s6,48(sp)
   115e4:	03812423          	sw	s8,40(sp)
   115e8:	03a12023          	sw	s10,32(sp)
   115ec:	00c59413          	slli	s0,a1,0xc
   115f0:	04112623          	sw	ra,76(sp)
   115f4:	04912223          	sw	s1,68(sp)
   115f8:	05212023          	sw	s2,64(sp)
   115fc:	03312e23          	sw	s3,60(sp)
   11600:	03712623          	sw	s7,44(sp)
   11604:	03912223          	sw	s9,36(sp)
   11608:	01b12e23          	sw	s11,28(sp)
   1160c:	7ffafa93          	andi	s5,s5,2047
   11610:	00050a13          	mv	s4,a0
   11614:	00060d13          	mv	s10,a2
   11618:	00068c13          	mv	s8,a3
   1161c:	00c45413          	srli	s0,s0,0xc
   11620:	01f5db13          	srli	s6,a1,0x1f
   11624:	0a0a8063          	beqz	s5,116c4 <__divdf3+0xf8>
   11628:	7ff00793          	li	a5,2047
   1162c:	10fa8063          	beq	s5,a5,1172c <__divdf3+0x160>
   11630:	01d55b93          	srli	s7,a0,0x1d
   11634:	00341413          	slli	s0,s0,0x3
   11638:	008bebb3          	or	s7,s7,s0
   1163c:	008007b7          	lui	a5,0x800
   11640:	00fbebb3          	or	s7,s7,a5
   11644:	00351493          	slli	s1,a0,0x3
   11648:	c01a8a93          	addi	s5,s5,-1023
   1164c:	00000c93          	li	s9,0
   11650:	014c5713          	srli	a4,s8,0x14
   11654:	00cc1413          	slli	s0,s8,0xc
   11658:	7ff77713          	andi	a4,a4,2047
   1165c:	00c45413          	srli	s0,s0,0xc
   11660:	01fc5c13          	srli	s8,s8,0x1f
   11664:	0e070e63          	beqz	a4,11760 <__divdf3+0x194>
   11668:	7ff00793          	li	a5,2047
   1166c:	16f70263          	beq	a4,a5,117d0 <__divdf3+0x204>
   11670:	00341413          	slli	s0,s0,0x3
   11674:	01dd5793          	srli	a5,s10,0x1d
   11678:	0087e7b3          	or	a5,a5,s0
   1167c:	00800437          	lui	s0,0x800
   11680:	0087e433          	or	s0,a5,s0
   11684:	003d1813          	slli	a6,s10,0x3
   11688:	c0170713          	addi	a4,a4,-1023
   1168c:	00000693          	li	a3,0
   11690:	002c9793          	slli	a5,s9,0x2
   11694:	00d7e7b3          	or	a5,a5,a3
   11698:	40ea8ab3          	sub	s5,s5,a4
   1169c:	fff78793          	addi	a5,a5,-1 # 7fffff <__global_pointer$+0x7dd147>
   116a0:	00e00713          	li	a4,14
   116a4:	018b4a33          	xor	s4,s6,s8
   116a8:	14f76c63          	bltu	a4,a5,11800 <__divdf3+0x234>
   116ac:	00022737          	lui	a4,0x22
   116b0:	00279793          	slli	a5,a5,0x2
   116b4:	92070713          	addi	a4,a4,-1760 # 21920 <blanks.1+0x10>
   116b8:	00e787b3          	add	a5,a5,a4
   116bc:	0007a783          	lw	a5,0(a5)
   116c0:	00078067          	jr	a5
   116c4:	00a46bb3          	or	s7,s0,a0
   116c8:	060b8c63          	beqz	s7,11740 <__divdf3+0x174>
   116cc:	02040e63          	beqz	s0,11708 <__divdf3+0x13c>
   116d0:	00040513          	mv	a0,s0
   116d4:	0a9040ef          	jal	15f7c <__clzsi2>
   116d8:	ff550793          	addi	a5,a0,-11
   116dc:	01d00b93          	li	s7,29
   116e0:	ff850713          	addi	a4,a0,-8
   116e4:	40fb8bb3          	sub	s7,s7,a5
   116e8:	00e41433          	sll	s0,s0,a4
   116ec:	017a5bb3          	srl	s7,s4,s7
   116f0:	008bebb3          	or	s7,s7,s0
   116f4:	00ea1433          	sll	s0,s4,a4
   116f8:	c0d00a93          	li	s5,-1011
   116fc:	40aa8ab3          	sub	s5,s5,a0
   11700:	00040493          	mv	s1,s0
   11704:	f49ff06f          	j	1164c <__divdf3+0x80>
   11708:	075040ef          	jal	15f7c <__clzsi2>
   1170c:	00050b93          	mv	s7,a0
   11710:	015b8793          	addi	a5,s7,21
   11714:	01c00713          	li	a4,28
   11718:	02050513          	addi	a0,a0,32
   1171c:	fcf750e3          	bge	a4,a5,116dc <__divdf3+0x110>
   11720:	ff8b8b93          	addi	s7,s7,-8
   11724:	017a1bb3          	sll	s7,s4,s7
   11728:	fd1ff06f          	j	116f8 <__divdf3+0x12c>
   1172c:	00a46bb3          	or	s7,s0,a0
   11730:	020b9063          	bnez	s7,11750 <__divdf3+0x184>
   11734:	00000493          	li	s1,0
   11738:	00200c93          	li	s9,2
   1173c:	f15ff06f          	j	11650 <__divdf3+0x84>
   11740:	00000493          	li	s1,0
   11744:	00000a93          	li	s5,0
   11748:	00100c93          	li	s9,1
   1174c:	f05ff06f          	j	11650 <__divdf3+0x84>
   11750:	00050493          	mv	s1,a0
   11754:	00040b93          	mv	s7,s0
   11758:	00300c93          	li	s9,3
   1175c:	ef5ff06f          	j	11650 <__divdf3+0x84>
   11760:	01a46833          	or	a6,s0,s10
   11764:	08080063          	beqz	a6,117e4 <__divdf3+0x218>
   11768:	04040063          	beqz	s0,117a8 <__divdf3+0x1dc>
   1176c:	00040513          	mv	a0,s0
   11770:	00d040ef          	jal	15f7c <__clzsi2>
   11774:	ff550713          	addi	a4,a0,-11
   11778:	01d00793          	li	a5,29
   1177c:	ff850693          	addi	a3,a0,-8
   11780:	40e787b3          	sub	a5,a5,a4
   11784:	00d41433          	sll	s0,s0,a3
   11788:	00fd57b3          	srl	a5,s10,a5
   1178c:	0087e7b3          	or	a5,a5,s0
   11790:	00dd1433          	sll	s0,s10,a3
   11794:	c0d00713          	li	a4,-1011
   11798:	00040813          	mv	a6,s0
   1179c:	40a70733          	sub	a4,a4,a0
   117a0:	00078413          	mv	s0,a5
   117a4:	ee9ff06f          	j	1168c <__divdf3+0xc0>
   117a8:	000d0513          	mv	a0,s10
   117ac:	7d0040ef          	jal	15f7c <__clzsi2>
   117b0:	00050793          	mv	a5,a0
   117b4:	01578713          	addi	a4,a5,21
   117b8:	01c00693          	li	a3,28
   117bc:	02050513          	addi	a0,a0,32
   117c0:	fae6dce3          	bge	a3,a4,11778 <__divdf3+0x1ac>
   117c4:	ff878793          	addi	a5,a5,-8
   117c8:	00fd17b3          	sll	a5,s10,a5
   117cc:	fc9ff06f          	j	11794 <__divdf3+0x1c8>
   117d0:	01a46833          	or	a6,s0,s10
   117d4:	02081063          	bnez	a6,117f4 <__divdf3+0x228>
   117d8:	00000413          	li	s0,0
   117dc:	00200693          	li	a3,2
   117e0:	eb1ff06f          	j	11690 <__divdf3+0xc4>
   117e4:	00000413          	li	s0,0
   117e8:	00000713          	li	a4,0
   117ec:	00100693          	li	a3,1
   117f0:	ea1ff06f          	j	11690 <__divdf3+0xc4>
   117f4:	000d0813          	mv	a6,s10
   117f8:	00300693          	li	a3,3
   117fc:	e95ff06f          	j	11690 <__divdf3+0xc4>
   11800:	01746663          	bltu	s0,s7,1180c <__divdf3+0x240>
   11804:	448b9e63          	bne	s7,s0,11c60 <__divdf3+0x694>
   11808:	4504ec63          	bltu	s1,a6,11c60 <__divdf3+0x694>
   1180c:	01fb9713          	slli	a4,s7,0x1f
   11810:	0014d793          	srli	a5,s1,0x1
   11814:	01f49c93          	slli	s9,s1,0x1f
   11818:	001bdb93          	srli	s7,s7,0x1
   1181c:	00f764b3          	or	s1,a4,a5
   11820:	00841413          	slli	s0,s0,0x8
   11824:	01045793          	srli	a5,s0,0x10
   11828:	01885d93          	srli	s11,a6,0x18
   1182c:	00f12423          	sw	a5,8(sp)
   11830:	008dedb3          	or	s11,s11,s0
   11834:	00812583          	lw	a1,8(sp)
   11838:	010d9793          	slli	a5,s11,0x10
   1183c:	0107d793          	srli	a5,a5,0x10
   11840:	000b8513          	mv	a0,s7
   11844:	00f12623          	sw	a5,12(sp)
   11848:	00881b13          	slli	s6,a6,0x8
   1184c:	684040ef          	jal	15ed0 <__hidden___udivsi3>
   11850:	00050593          	mv	a1,a0
   11854:	00050c13          	mv	s8,a0
   11858:	010d9513          	slli	a0,s11,0x10
   1185c:	01055513          	srli	a0,a0,0x10
   11860:	644040ef          	jal	15ea4 <__mulsi3>
   11864:	00812583          	lw	a1,8(sp)
   11868:	00050413          	mv	s0,a0
   1186c:	000b8513          	mv	a0,s7
   11870:	6a8040ef          	jal	15f18 <__umodsi3>
   11874:	01051513          	slli	a0,a0,0x10
   11878:	0104d793          	srli	a5,s1,0x10
   1187c:	00a7e7b3          	or	a5,a5,a0
   11880:	000c0b93          	mv	s7,s8
   11884:	0087fe63          	bgeu	a5,s0,118a0 <__divdf3+0x2d4>
   11888:	00fd87b3          	add	a5,s11,a5
   1188c:	fffc0b93          	addi	s7,s8,-1
   11890:	01b7e863          	bltu	a5,s11,118a0 <__divdf3+0x2d4>
   11894:	0087f663          	bgeu	a5,s0,118a0 <__divdf3+0x2d4>
   11898:	ffec0b93          	addi	s7,s8,-2
   1189c:	01b787b3          	add	a5,a5,s11
   118a0:	00812583          	lw	a1,8(sp)
   118a4:	40878433          	sub	s0,a5,s0
   118a8:	00040513          	mv	a0,s0
   118ac:	624040ef          	jal	15ed0 <__hidden___udivsi3>
   118b0:	00050593          	mv	a1,a0
   118b4:	00050d13          	mv	s10,a0
   118b8:	010d9513          	slli	a0,s11,0x10
   118bc:	01055513          	srli	a0,a0,0x10
   118c0:	5e4040ef          	jal	15ea4 <__mulsi3>
   118c4:	00812583          	lw	a1,8(sp)
   118c8:	00050c13          	mv	s8,a0
   118cc:	00040513          	mv	a0,s0
   118d0:	648040ef          	jal	15f18 <__umodsi3>
   118d4:	01049493          	slli	s1,s1,0x10
   118d8:	01051513          	slli	a0,a0,0x10
   118dc:	0104d493          	srli	s1,s1,0x10
   118e0:	00a4e4b3          	or	s1,s1,a0
   118e4:	000d0793          	mv	a5,s10
   118e8:	0184fe63          	bgeu	s1,s8,11904 <__divdf3+0x338>
   118ec:	009d84b3          	add	s1,s11,s1
   118f0:	fffd0793          	addi	a5,s10,-1
   118f4:	01b4e863          	bltu	s1,s11,11904 <__divdf3+0x338>
   118f8:	0184f663          	bgeu	s1,s8,11904 <__divdf3+0x338>
   118fc:	ffed0793          	addi	a5,s10,-2
   11900:	01b484b3          	add	s1,s1,s11
   11904:	010b9813          	slli	a6,s7,0x10
   11908:	00f86833          	or	a6,a6,a5
   1190c:	01081793          	slli	a5,a6,0x10
   11910:	010b1713          	slli	a4,s6,0x10
   11914:	01075713          	srli	a4,a4,0x10
   11918:	0107d793          	srli	a5,a5,0x10
   1191c:	418484b3          	sub	s1,s1,s8
   11920:	01085e93          	srli	t4,a6,0x10
   11924:	00078513          	mv	a0,a5
   11928:	00e12623          	sw	a4,12(sp)
   1192c:	00070593          	mv	a1,a4
   11930:	574040ef          	jal	15ea4 <__mulsi3>
   11934:	00050313          	mv	t1,a0
   11938:	010b5593          	srli	a1,s6,0x10
   1193c:	00078513          	mv	a0,a5
   11940:	564040ef          	jal	15ea4 <__mulsi3>
   11944:	00050793          	mv	a5,a0
   11948:	00070593          	mv	a1,a4
   1194c:	000e8513          	mv	a0,t4
   11950:	554040ef          	jal	15ea4 <__mulsi3>
   11954:	00050e13          	mv	t3,a0
   11958:	010b5593          	srli	a1,s6,0x10
   1195c:	000e8513          	mv	a0,t4
   11960:	544040ef          	jal	15ea4 <__mulsi3>
   11964:	01035d13          	srli	s10,t1,0x10
   11968:	01c787b3          	add	a5,a5,t3
   1196c:	00fd0d33          	add	s10,s10,a5
   11970:	00050693          	mv	a3,a0
   11974:	01cd7663          	bgeu	s10,t3,11980 <__divdf3+0x3b4>
   11978:	000107b7          	lui	a5,0x10
   1197c:	00f506b3          	add	a3,a0,a5
   11980:	010d5793          	srli	a5,s10,0x10
   11984:	01031313          	slli	t1,t1,0x10
   11988:	010d1d13          	slli	s10,s10,0x10
   1198c:	01035313          	srli	t1,t1,0x10
   11990:	00d787b3          	add	a5,a5,a3
   11994:	006d0d33          	add	s10,s10,t1
   11998:	00f4e863          	bltu	s1,a5,119a8 <__divdf3+0x3dc>
   1199c:	00080413          	mv	s0,a6
   119a0:	04f49863          	bne	s1,a5,119f0 <__divdf3+0x424>
   119a4:	05acf663          	bgeu	s9,s10,119f0 <__divdf3+0x424>
   119a8:	016c86b3          	add	a3,s9,s6
   119ac:	0196b633          	sltu	a2,a3,s9
   119b0:	01b605b3          	add	a1,a2,s11
   119b4:	00b484b3          	add	s1,s1,a1
   119b8:	fff80413          	addi	s0,a6,-1
   119bc:	00068c93          	mv	s9,a3
   119c0:	009de663          	bltu	s11,s1,119cc <__divdf3+0x400>
   119c4:	029d9663          	bne	s11,s1,119f0 <__divdf3+0x424>
   119c8:	02061463          	bnez	a2,119f0 <__divdf3+0x424>
   119cc:	00f4e663          	bltu	s1,a5,119d8 <__divdf3+0x40c>
   119d0:	02979063          	bne	a5,s1,119f0 <__divdf3+0x424>
   119d4:	01a6fe63          	bgeu	a3,s10,119f0 <__divdf3+0x424>
   119d8:	00db06b3          	add	a3,s6,a3
   119dc:	00068c93          	mv	s9,a3
   119e0:	0166b6b3          	sltu	a3,a3,s6
   119e4:	01b686b3          	add	a3,a3,s11
   119e8:	ffe80413          	addi	s0,a6,-2
   119ec:	00d484b3          	add	s1,s1,a3
   119f0:	41ac8d33          	sub	s10,s9,s10
   119f4:	40f484b3          	sub	s1,s1,a5
   119f8:	01acb8b3          	sltu	a7,s9,s10
   119fc:	411484b3          	sub	s1,s1,a7
   11a00:	fff00813          	li	a6,-1
   11a04:	1a9d8263          	beq	s11,s1,11ba8 <__divdf3+0x5dc>
   11a08:	00812583          	lw	a1,8(sp)
   11a0c:	00048513          	mv	a0,s1
   11a10:	4c0040ef          	jal	15ed0 <__hidden___udivsi3>
   11a14:	00050593          	mv	a1,a0
   11a18:	00050c13          	mv	s8,a0
   11a1c:	010d9513          	slli	a0,s11,0x10
   11a20:	01055513          	srli	a0,a0,0x10
   11a24:	480040ef          	jal	15ea4 <__mulsi3>
   11a28:	00812583          	lw	a1,8(sp)
   11a2c:	00050b93          	mv	s7,a0
   11a30:	00048513          	mv	a0,s1
   11a34:	4e4040ef          	jal	15f18 <__umodsi3>
   11a38:	01051513          	slli	a0,a0,0x10
   11a3c:	010d5793          	srli	a5,s10,0x10
   11a40:	00a7e7b3          	or	a5,a5,a0
   11a44:	000c0493          	mv	s1,s8
   11a48:	0177fe63          	bgeu	a5,s7,11a64 <__divdf3+0x498>
   11a4c:	00fd87b3          	add	a5,s11,a5
   11a50:	fffc0493          	addi	s1,s8,-1
   11a54:	01b7e863          	bltu	a5,s11,11a64 <__divdf3+0x498>
   11a58:	0177f663          	bgeu	a5,s7,11a64 <__divdf3+0x498>
   11a5c:	ffec0493          	addi	s1,s8,-2
   11a60:	01b787b3          	add	a5,a5,s11
   11a64:	00812583          	lw	a1,8(sp)
   11a68:	41778c33          	sub	s8,a5,s7
   11a6c:	000c0513          	mv	a0,s8
   11a70:	460040ef          	jal	15ed0 <__hidden___udivsi3>
   11a74:	00050593          	mv	a1,a0
   11a78:	00050b93          	mv	s7,a0
   11a7c:	010d9513          	slli	a0,s11,0x10
   11a80:	01055513          	srli	a0,a0,0x10
   11a84:	420040ef          	jal	15ea4 <__mulsi3>
   11a88:	00812583          	lw	a1,8(sp)
   11a8c:	00050c93          	mv	s9,a0
   11a90:	000c0513          	mv	a0,s8
   11a94:	484040ef          	jal	15f18 <__umodsi3>
   11a98:	010d1793          	slli	a5,s10,0x10
   11a9c:	01051513          	slli	a0,a0,0x10
   11aa0:	0107d793          	srli	a5,a5,0x10
   11aa4:	00a7e7b3          	or	a5,a5,a0
   11aa8:	000b8613          	mv	a2,s7
   11aac:	0197fe63          	bgeu	a5,s9,11ac8 <__divdf3+0x4fc>
   11ab0:	00fd87b3          	add	a5,s11,a5
   11ab4:	fffb8613          	addi	a2,s7,-1
   11ab8:	01b7e863          	bltu	a5,s11,11ac8 <__divdf3+0x4fc>
   11abc:	0197f663          	bgeu	a5,s9,11ac8 <__divdf3+0x4fc>
   11ac0:	ffeb8613          	addi	a2,s7,-2
   11ac4:	01b787b3          	add	a5,a5,s11
   11ac8:	01049893          	slli	a7,s1,0x10
   11acc:	00c8e8b3          	or	a7,a7,a2
   11ad0:	01089313          	slli	t1,a7,0x10
   11ad4:	01035313          	srli	t1,t1,0x10
   11ad8:	010b1593          	slli	a1,s6,0x10
   11adc:	419787b3          	sub	a5,a5,s9
   11ae0:	0108de93          	srli	t4,a7,0x10
   11ae4:	00030513          	mv	a0,t1
   11ae8:	0105d593          	srli	a1,a1,0x10
   11aec:	3b8040ef          	jal	15ea4 <__mulsi3>
   11af0:	00050813          	mv	a6,a0
   11af4:	010b5593          	srli	a1,s6,0x10
   11af8:	00030513          	mv	a0,t1
   11afc:	3a8040ef          	jal	15ea4 <__mulsi3>
   11b00:	010b1593          	slli	a1,s6,0x10
   11b04:	00050313          	mv	t1,a0
   11b08:	0105d593          	srli	a1,a1,0x10
   11b0c:	000e8513          	mv	a0,t4
   11b10:	394040ef          	jal	15ea4 <__mulsi3>
   11b14:	00050e13          	mv	t3,a0
   11b18:	010b5593          	srli	a1,s6,0x10
   11b1c:	000e8513          	mv	a0,t4
   11b20:	384040ef          	jal	15ea4 <__mulsi3>
   11b24:	01085693          	srli	a3,a6,0x10
   11b28:	01c30333          	add	t1,t1,t3
   11b2c:	006686b3          	add	a3,a3,t1
   11b30:	00050593          	mv	a1,a0
   11b34:	01c6f663          	bgeu	a3,t3,11b40 <__divdf3+0x574>
   11b38:	00010637          	lui	a2,0x10
   11b3c:	00c505b3          	add	a1,a0,a2
   11b40:	0106d613          	srli	a2,a3,0x10
   11b44:	01081813          	slli	a6,a6,0x10
   11b48:	01069693          	slli	a3,a3,0x10
   11b4c:	01085813          	srli	a6,a6,0x10
   11b50:	00b60633          	add	a2,a2,a1
   11b54:	010686b3          	add	a3,a3,a6
   11b58:	00c7e863          	bltu	a5,a2,11b68 <__divdf3+0x59c>
   11b5c:	00088813          	mv	a6,a7
   11b60:	04c79263          	bne	a5,a2,11ba4 <__divdf3+0x5d8>
   11b64:	04068263          	beqz	a3,11ba8 <__divdf3+0x5dc>
   11b68:	00fd87b3          	add	a5,s11,a5
   11b6c:	fff88813          	addi	a6,a7,-1
   11b70:	00078593          	mv	a1,a5
   11b74:	03b7e463          	bltu	a5,s11,11b9c <__divdf3+0x5d0>
   11b78:	00c7e663          	bltu	a5,a2,11b84 <__divdf3+0x5b8>
   11b7c:	02c79463          	bne	a5,a2,11ba4 <__divdf3+0x5d8>
   11b80:	02db7063          	bgeu	s6,a3,11ba0 <__divdf3+0x5d4>
   11b84:	001b1513          	slli	a0,s6,0x1
   11b88:	016535b3          	sltu	a1,a0,s6
   11b8c:	01b585b3          	add	a1,a1,s11
   11b90:	ffe88813          	addi	a6,a7,-2
   11b94:	00b785b3          	add	a1,a5,a1
   11b98:	00050b13          	mv	s6,a0
   11b9c:	00c59463          	bne	a1,a2,11ba4 <__divdf3+0x5d8>
   11ba0:	01668463          	beq	a3,s6,11ba8 <__divdf3+0x5dc>
   11ba4:	00186813          	ori	a6,a6,1
   11ba8:	3ffa8793          	addi	a5,s5,1023
   11bac:	0ef05e63          	blez	a5,11ca8 <__divdf3+0x6dc>
   11bb0:	00787713          	andi	a4,a6,7
   11bb4:	02070063          	beqz	a4,11bd4 <__divdf3+0x608>
   11bb8:	00f87713          	andi	a4,a6,15
   11bbc:	00400693          	li	a3,4
   11bc0:	00d70a63          	beq	a4,a3,11bd4 <__divdf3+0x608>
   11bc4:	00d80733          	add	a4,a6,a3
   11bc8:	010736b3          	sltu	a3,a4,a6
   11bcc:	00d40433          	add	s0,s0,a3
   11bd0:	00070813          	mv	a6,a4
   11bd4:	00741713          	slli	a4,s0,0x7
   11bd8:	00075a63          	bgez	a4,11bec <__divdf3+0x620>
   11bdc:	ff0007b7          	lui	a5,0xff000
   11be0:	fff78793          	addi	a5,a5,-1 # feffffff <__global_pointer$+0xfefdd147>
   11be4:	00f47433          	and	s0,s0,a5
   11be8:	400a8793          	addi	a5,s5,1024
   11bec:	7fe00713          	li	a4,2046
   11bf0:	18f74063          	blt	a4,a5,11d70 <__divdf3+0x7a4>
   11bf4:	01d41713          	slli	a4,s0,0x1d
   11bf8:	00385813          	srli	a6,a6,0x3
   11bfc:	01076833          	or	a6,a4,a6
   11c00:	00345413          	srli	s0,s0,0x3
   11c04:	00c41413          	slli	s0,s0,0xc
   11c08:	00c45413          	srli	s0,s0,0xc
   11c0c:	01479793          	slli	a5,a5,0x14
   11c10:	04c12083          	lw	ra,76(sp)
   11c14:	0087e7b3          	or	a5,a5,s0
   11c18:	04812403          	lw	s0,72(sp)
   11c1c:	01fa1a13          	slli	s4,s4,0x1f
   11c20:	0147e733          	or	a4,a5,s4
   11c24:	04412483          	lw	s1,68(sp)
   11c28:	04012903          	lw	s2,64(sp)
   11c2c:	03c12983          	lw	s3,60(sp)
   11c30:	03812a03          	lw	s4,56(sp)
   11c34:	03412a83          	lw	s5,52(sp)
   11c38:	03012b03          	lw	s6,48(sp)
   11c3c:	02c12b83          	lw	s7,44(sp)
   11c40:	02812c03          	lw	s8,40(sp)
   11c44:	02412c83          	lw	s9,36(sp)
   11c48:	02012d03          	lw	s10,32(sp)
   11c4c:	01c12d83          	lw	s11,28(sp)
   11c50:	00080513          	mv	a0,a6
   11c54:	00070593          	mv	a1,a4
   11c58:	05010113          	addi	sp,sp,80
   11c5c:	00008067          	ret
   11c60:	fffa8a93          	addi	s5,s5,-1
   11c64:	00000c93          	li	s9,0
   11c68:	bb9ff06f          	j	11820 <__divdf3+0x254>
   11c6c:	000c0a13          	mv	s4,s8
   11c70:	00068c93          	mv	s9,a3
   11c74:	00200793          	li	a5,2
   11c78:	0efc8c63          	beq	s9,a5,11d70 <__divdf3+0x7a4>
   11c7c:	00300793          	li	a5,3
   11c80:	0cfc8e63          	beq	s9,a5,11d5c <__divdf3+0x790>
   11c84:	00100793          	li	a5,1
   11c88:	f2fc90e3          	bne	s9,a5,11ba8 <__divdf3+0x5dc>
   11c8c:	00000413          	li	s0,0
   11c90:	00000813          	li	a6,0
   11c94:	08c0006f          	j	11d20 <__divdf3+0x754>
   11c98:	000b0a13          	mv	s4,s6
   11c9c:	000b8413          	mv	s0,s7
   11ca0:	00048813          	mv	a6,s1
   11ca4:	fd1ff06f          	j	11c74 <__divdf3+0x6a8>
   11ca8:	00100693          	li	a3,1
   11cac:	00078c63          	beqz	a5,11cc4 <__divdf3+0x6f8>
   11cb0:	40f686b3          	sub	a3,a3,a5
   11cb4:	03800713          	li	a4,56
   11cb8:	fcd74ae3          	blt	a4,a3,11c8c <__divdf3+0x6c0>
   11cbc:	01f00713          	li	a4,31
   11cc0:	06d74463          	blt	a4,a3,11d28 <__divdf3+0x75c>
   11cc4:	41ea8a93          	addi	s5,s5,1054
   11cc8:	00d857b3          	srl	a5,a6,a3
   11ccc:	01581833          	sll	a6,a6,s5
   11cd0:	01003833          	snez	a6,a6
   11cd4:	01541ab3          	sll	s5,s0,s5
   11cd8:	01586833          	or	a6,a6,s5
   11cdc:	0107e7b3          	or	a5,a5,a6
   11ce0:	00d45433          	srl	s0,s0,a3
   11ce4:	0077f713          	andi	a4,a5,7
   11ce8:	02070063          	beqz	a4,11d08 <__divdf3+0x73c>
   11cec:	00f7f713          	andi	a4,a5,15
   11cf0:	00400693          	li	a3,4
   11cf4:	00d70a63          	beq	a4,a3,11d08 <__divdf3+0x73c>
   11cf8:	00d78733          	add	a4,a5,a3
   11cfc:	00f736b3          	sltu	a3,a4,a5
   11d00:	00d40433          	add	s0,s0,a3
   11d04:	00070793          	mv	a5,a4
   11d08:	00841713          	slli	a4,s0,0x8
   11d0c:	06074a63          	bltz	a4,11d80 <__divdf3+0x7b4>
   11d10:	01d41813          	slli	a6,s0,0x1d
   11d14:	0037d793          	srli	a5,a5,0x3
   11d18:	00f86833          	or	a6,a6,a5
   11d1c:	00345413          	srli	s0,s0,0x3
   11d20:	00000793          	li	a5,0
   11d24:	ee1ff06f          	j	11c04 <__divdf3+0x638>
   11d28:	fe100713          	li	a4,-31
   11d2c:	40f707b3          	sub	a5,a4,a5
   11d30:	02000613          	li	a2,32
   11d34:	00f457b3          	srl	a5,s0,a5
   11d38:	00000713          	li	a4,0
   11d3c:	00c68663          	beq	a3,a2,11d48 <__divdf3+0x77c>
   11d40:	43ea8a93          	addi	s5,s5,1086
   11d44:	01541733          	sll	a4,s0,s5
   11d48:	01076733          	or	a4,a4,a6
   11d4c:	00e03733          	snez	a4,a4
   11d50:	00e7e7b3          	or	a5,a5,a4
   11d54:	00000413          	li	s0,0
   11d58:	f8dff06f          	j	11ce4 <__divdf3+0x718>
   11d5c:	00080437          	lui	s0,0x80
   11d60:	00000813          	li	a6,0
   11d64:	7ff00793          	li	a5,2047
   11d68:	00000a13          	li	s4,0
   11d6c:	e99ff06f          	j	11c04 <__divdf3+0x638>
   11d70:	00000413          	li	s0,0
   11d74:	00000813          	li	a6,0
   11d78:	7ff00793          	li	a5,2047
   11d7c:	e89ff06f          	j	11c04 <__divdf3+0x638>
   11d80:	00000413          	li	s0,0
   11d84:	00000813          	li	a6,0
   11d88:	00100793          	li	a5,1
   11d8c:	e79ff06f          	j	11c04 <__divdf3+0x638>

00011d90 <__eqdf2>:
   11d90:	0145d713          	srli	a4,a1,0x14
   11d94:	001007b7          	lui	a5,0x100
   11d98:	fff78793          	addi	a5,a5,-1 # fffff <__global_pointer$+0xdd147>
   11d9c:	0146d813          	srli	a6,a3,0x14
   11da0:	00050313          	mv	t1,a0
   11da4:	00050e93          	mv	t4,a0
   11da8:	7ff77713          	andi	a4,a4,2047
   11dac:	7ff00513          	li	a0,2047
   11db0:	00b7f8b3          	and	a7,a5,a1
   11db4:	00060f13          	mv	t5,a2
   11db8:	00d7f7b3          	and	a5,a5,a3
   11dbc:	01f5d593          	srli	a1,a1,0x1f
   11dc0:	7ff87813          	andi	a6,a6,2047
   11dc4:	01f6d693          	srli	a3,a3,0x1f
   11dc8:	00a71c63          	bne	a4,a0,11de0 <__eqdf2+0x50>
   11dcc:	0068ee33          	or	t3,a7,t1
   11dd0:	00100513          	li	a0,1
   11dd4:	000e1463          	bnez	t3,11ddc <__eqdf2+0x4c>
   11dd8:	00e80663          	beq	a6,a4,11de4 <__eqdf2+0x54>
   11ddc:	00008067          	ret
   11de0:	00a81863          	bne	a6,a0,11df0 <__eqdf2+0x60>
   11de4:	00c7e633          	or	a2,a5,a2
   11de8:	00100513          	li	a0,1
   11dec:	fe0618e3          	bnez	a2,11ddc <__eqdf2+0x4c>
   11df0:	00100513          	li	a0,1
   11df4:	ff0714e3          	bne	a4,a6,11ddc <__eqdf2+0x4c>
   11df8:	fef892e3          	bne	a7,a5,11ddc <__eqdf2+0x4c>
   11dfc:	ffee90e3          	bne	t4,t5,11ddc <__eqdf2+0x4c>
   11e00:	00d58a63          	beq	a1,a3,11e14 <__eqdf2+0x84>
   11e04:	fc071ce3          	bnez	a4,11ddc <__eqdf2+0x4c>
   11e08:	0068e8b3          	or	a7,a7,t1
   11e0c:	01103533          	snez	a0,a7
   11e10:	00008067          	ret
   11e14:	00000513          	li	a0,0
   11e18:	00008067          	ret

00011e1c <__gedf2>:
   11e1c:	0146d793          	srli	a5,a3,0x14
   11e20:	0145d893          	srli	a7,a1,0x14
   11e24:	00100737          	lui	a4,0x100
   11e28:	fff70713          	addi	a4,a4,-1 # fffff <__global_pointer$+0xdd147>
   11e2c:	00050813          	mv	a6,a0
   11e30:	00050e13          	mv	t3,a0
   11e34:	7ff8f893          	andi	a7,a7,2047
   11e38:	7ff7f513          	andi	a0,a5,2047
   11e3c:	7ff00793          	li	a5,2047
   11e40:	00b77333          	and	t1,a4,a1
   11e44:	00060e93          	mv	t4,a2
   11e48:	00d77733          	and	a4,a4,a3
   11e4c:	01f5d593          	srli	a1,a1,0x1f
   11e50:	01f6d693          	srli	a3,a3,0x1f
   11e54:	00f89663          	bne	a7,a5,11e60 <__gedf2+0x44>
   11e58:	01036f33          	or	t5,t1,a6
   11e5c:	060f1663          	bnez	t5,11ec8 <__gedf2+0xac>
   11e60:	00f51663          	bne	a0,a5,11e6c <__gedf2+0x50>
   11e64:	00c767b3          	or	a5,a4,a2
   11e68:	06079063          	bnez	a5,11ec8 <__gedf2+0xac>
   11e6c:	00000793          	li	a5,0
   11e70:	00089663          	bnez	a7,11e7c <__gedf2+0x60>
   11e74:	01036833          	or	a6,t1,a6
   11e78:	00183793          	seqz	a5,a6
   11e7c:	04051a63          	bnez	a0,11ed0 <__gedf2+0xb4>
   11e80:	00c76633          	or	a2,a4,a2
   11e84:	00078a63          	beqz	a5,11e98 <__gedf2+0x7c>
   11e88:	06060063          	beqz	a2,11ee8 <__gedf2+0xcc>
   11e8c:	00169513          	slli	a0,a3,0x1
   11e90:	fff50513          	addi	a0,a0,-1
   11e94:	00008067          	ret
   11e98:	02061e63          	bnez	a2,11ed4 <__gedf2+0xb8>
   11e9c:	40b005b3          	neg	a1,a1
   11ea0:	0015e513          	ori	a0,a1,1
   11ea4:	00008067          	ret
   11ea8:	fea8c2e3          	blt	a7,a0,11e8c <__gedf2+0x70>
   11eac:	fe6768e3          	bltu	a4,t1,11e9c <__gedf2+0x80>
   11eb0:	00e31863          	bne	t1,a4,11ec0 <__gedf2+0xa4>
   11eb4:	ffcee4e3          	bltu	t4,t3,11e9c <__gedf2+0x80>
   11eb8:	00000513          	li	a0,0
   11ebc:	03de7663          	bgeu	t3,t4,11ee8 <__gedf2+0xcc>
   11ec0:	00159513          	slli	a0,a1,0x1
   11ec4:	fcdff06f          	j	11e90 <__gedf2+0x74>
   11ec8:	ffe00513          	li	a0,-2
   11ecc:	00008067          	ret
   11ed0:	fa079ee3          	bnez	a5,11e8c <__gedf2+0x70>
   11ed4:	fcb694e3          	bne	a3,a1,11e9c <__gedf2+0x80>
   11ed8:	fd1558e3          	bge	a0,a7,11ea8 <__gedf2+0x8c>
   11edc:	40d006b3          	neg	a3,a3
   11ee0:	0016e513          	ori	a0,a3,1
   11ee4:	00008067          	ret
   11ee8:	00008067          	ret

00011eec <__ledf2>:
   11eec:	0146d793          	srli	a5,a3,0x14
   11ef0:	0145d893          	srli	a7,a1,0x14
   11ef4:	00100737          	lui	a4,0x100
   11ef8:	fff70713          	addi	a4,a4,-1 # fffff <__global_pointer$+0xdd147>
   11efc:	00050813          	mv	a6,a0
   11f00:	00050e13          	mv	t3,a0
   11f04:	7ff8f893          	andi	a7,a7,2047
   11f08:	7ff7f513          	andi	a0,a5,2047
   11f0c:	7ff00793          	li	a5,2047
   11f10:	00b77333          	and	t1,a4,a1
   11f14:	00060e93          	mv	t4,a2
   11f18:	00d77733          	and	a4,a4,a3
   11f1c:	01f5d593          	srli	a1,a1,0x1f
   11f20:	01f6d693          	srli	a3,a3,0x1f
   11f24:	00f89663          	bne	a7,a5,11f30 <__ledf2+0x44>
   11f28:	01036f33          	or	t5,t1,a6
   11f2c:	060f1663          	bnez	t5,11f98 <__ledf2+0xac>
   11f30:	00f51663          	bne	a0,a5,11f3c <__ledf2+0x50>
   11f34:	00c767b3          	or	a5,a4,a2
   11f38:	06079063          	bnez	a5,11f98 <__ledf2+0xac>
   11f3c:	00000793          	li	a5,0
   11f40:	00089663          	bnez	a7,11f4c <__ledf2+0x60>
   11f44:	01036833          	or	a6,t1,a6
   11f48:	00183793          	seqz	a5,a6
   11f4c:	04051a63          	bnez	a0,11fa0 <__ledf2+0xb4>
   11f50:	00c76633          	or	a2,a4,a2
   11f54:	00078a63          	beqz	a5,11f68 <__ledf2+0x7c>
   11f58:	06060063          	beqz	a2,11fb8 <__ledf2+0xcc>
   11f5c:	00169513          	slli	a0,a3,0x1
   11f60:	fff50513          	addi	a0,a0,-1
   11f64:	00008067          	ret
   11f68:	02061e63          	bnez	a2,11fa4 <__ledf2+0xb8>
   11f6c:	40b005b3          	neg	a1,a1
   11f70:	0015e513          	ori	a0,a1,1
   11f74:	00008067          	ret
   11f78:	fea8c2e3          	blt	a7,a0,11f5c <__ledf2+0x70>
   11f7c:	fe6768e3          	bltu	a4,t1,11f6c <__ledf2+0x80>
   11f80:	00e31863          	bne	t1,a4,11f90 <__ledf2+0xa4>
   11f84:	ffcee4e3          	bltu	t4,t3,11f6c <__ledf2+0x80>
   11f88:	00000513          	li	a0,0
   11f8c:	03de7663          	bgeu	t3,t4,11fb8 <__ledf2+0xcc>
   11f90:	00159513          	slli	a0,a1,0x1
   11f94:	fcdff06f          	j	11f60 <__ledf2+0x74>
   11f98:	00200513          	li	a0,2
   11f9c:	00008067          	ret
   11fa0:	fa079ee3          	bnez	a5,11f5c <__ledf2+0x70>
   11fa4:	fcb694e3          	bne	a3,a1,11f6c <__ledf2+0x80>
   11fa8:	fd1558e3          	bge	a0,a7,11f78 <__ledf2+0x8c>
   11fac:	40d006b3          	neg	a3,a3
   11fb0:	0016e513          	ori	a0,a3,1
   11fb4:	00008067          	ret
   11fb8:	00008067          	ret

00011fbc <__muldf3>:
   11fbc:	fd010113          	addi	sp,sp,-48
   11fc0:	01612823          	sw	s6,16(sp)
   11fc4:	0145db13          	srli	s6,a1,0x14
   11fc8:	02812423          	sw	s0,40(sp)
   11fcc:	02912223          	sw	s1,36(sp)
   11fd0:	01412c23          	sw	s4,24(sp)
   11fd4:	01512a23          	sw	s5,20(sp)
   11fd8:	01812423          	sw	s8,8(sp)
   11fdc:	00c59493          	slli	s1,a1,0xc
   11fe0:	02112623          	sw	ra,44(sp)
   11fe4:	03212023          	sw	s2,32(sp)
   11fe8:	01312e23          	sw	s3,28(sp)
   11fec:	01712623          	sw	s7,12(sp)
   11ff0:	01912223          	sw	s9,4(sp)
   11ff4:	7ffb7b13          	andi	s6,s6,2047
   11ff8:	00050413          	mv	s0,a0
   11ffc:	00060c13          	mv	s8,a2
   12000:	00068a13          	mv	s4,a3
   12004:	00c4d493          	srli	s1,s1,0xc
   12008:	01f5da93          	srli	s5,a1,0x1f
   1200c:	0c0b0263          	beqz	s6,120d0 <__muldf3+0x114>
   12010:	7ff00793          	li	a5,2047
   12014:	12fb0463          	beq	s6,a5,1213c <__muldf3+0x180>
   12018:	00349493          	slli	s1,s1,0x3
   1201c:	01d55793          	srli	a5,a0,0x1d
   12020:	0097e7b3          	or	a5,a5,s1
   12024:	008004b7          	lui	s1,0x800
   12028:	0097e4b3          	or	s1,a5,s1
   1202c:	00351b93          	slli	s7,a0,0x3
   12030:	c01b0b13          	addi	s6,s6,-1023
   12034:	00000c93          	li	s9,0
   12038:	014a5693          	srli	a3,s4,0x14
   1203c:	00ca1413          	slli	s0,s4,0xc
   12040:	7ff6f693          	andi	a3,a3,2047
   12044:	00c45413          	srli	s0,s0,0xc
   12048:	01fa5a13          	srli	s4,s4,0x1f
   1204c:	12068063          	beqz	a3,1216c <__muldf3+0x1b0>
   12050:	7ff00793          	li	a5,2047
   12054:	18f68463          	beq	a3,a5,121dc <__muldf3+0x220>
   12058:	00341413          	slli	s0,s0,0x3
   1205c:	01dc5793          	srli	a5,s8,0x1d
   12060:	0087e7b3          	or	a5,a5,s0
   12064:	00800437          	lui	s0,0x800
   12068:	0087e433          	or	s0,a5,s0
   1206c:	c0168693          	addi	a3,a3,-1023
   12070:	003c1793          	slli	a5,s8,0x3
   12074:	00000613          	li	a2,0
   12078:	002c9713          	slli	a4,s9,0x2
   1207c:	00db0b33          	add	s6,s6,a3
   12080:	00c76733          	or	a4,a4,a2
   12084:	00a00693          	li	a3,10
   12088:	001b0893          	addi	a7,s6,1
   1208c:	1ae6c263          	blt	a3,a4,12230 <__muldf3+0x274>
   12090:	00200593          	li	a1,2
   12094:	014ac833          	xor	a6,s5,s4
   12098:	00100693          	li	a3,1
   1209c:	16e5c863          	blt	a1,a4,1220c <__muldf3+0x250>
   120a0:	fff70713          	addi	a4,a4,-1
   120a4:	1ae6e663          	bltu	a3,a4,12250 <__muldf3+0x294>
   120a8:	00060c93          	mv	s9,a2
   120ac:	00200713          	li	a4,2
   120b0:	5aec8063          	beq	s9,a4,12650 <__muldf3+0x694>
   120b4:	00300713          	li	a4,3
   120b8:	58ec8663          	beq	s9,a4,12644 <__muldf3+0x688>
   120bc:	00100713          	li	a4,1
   120c0:	40ec9463          	bne	s9,a4,124c8 <__muldf3+0x50c>
   120c4:	00000413          	li	s0,0
   120c8:	00000693          	li	a3,0
   120cc:	52c0006f          	j	125f8 <__muldf3+0x63c>
   120d0:	00a4ebb3          	or	s7,s1,a0
   120d4:	060b8e63          	beqz	s7,12150 <__muldf3+0x194>
   120d8:	04048063          	beqz	s1,12118 <__muldf3+0x15c>
   120dc:	00048513          	mv	a0,s1
   120e0:	69d030ef          	jal	15f7c <__clzsi2>
   120e4:	ff550713          	addi	a4,a0,-11
   120e8:	01d00793          	li	a5,29
   120ec:	ff850693          	addi	a3,a0,-8
   120f0:	40e787b3          	sub	a5,a5,a4
   120f4:	00d494b3          	sll	s1,s1,a3
   120f8:	00f457b3          	srl	a5,s0,a5
   120fc:	0097e7b3          	or	a5,a5,s1
   12100:	00d414b3          	sll	s1,s0,a3
   12104:	c0d00b13          	li	s6,-1011
   12108:	00048b93          	mv	s7,s1
   1210c:	40ab0b33          	sub	s6,s6,a0
   12110:	00078493          	mv	s1,a5
   12114:	f21ff06f          	j	12034 <__muldf3+0x78>
   12118:	665030ef          	jal	15f7c <__clzsi2>
   1211c:	00050793          	mv	a5,a0
   12120:	01578713          	addi	a4,a5,21
   12124:	01c00693          	li	a3,28
   12128:	02050513          	addi	a0,a0,32
   1212c:	fae6dee3          	bge	a3,a4,120e8 <__muldf3+0x12c>
   12130:	ff878793          	addi	a5,a5,-8
   12134:	00f417b3          	sll	a5,s0,a5
   12138:	fcdff06f          	j	12104 <__muldf3+0x148>
   1213c:	00a4ebb3          	or	s7,s1,a0
   12140:	020b9063          	bnez	s7,12160 <__muldf3+0x1a4>
   12144:	00000493          	li	s1,0
   12148:	00200c93          	li	s9,2
   1214c:	eedff06f          	j	12038 <__muldf3+0x7c>
   12150:	00000493          	li	s1,0
   12154:	00000b13          	li	s6,0
   12158:	00100c93          	li	s9,1
   1215c:	eddff06f          	j	12038 <__muldf3+0x7c>
   12160:	00050b93          	mv	s7,a0
   12164:	00300c93          	li	s9,3
   12168:	ed1ff06f          	j	12038 <__muldf3+0x7c>
   1216c:	018467b3          	or	a5,s0,s8
   12170:	08078063          	beqz	a5,121f0 <__muldf3+0x234>
   12174:	04040063          	beqz	s0,121b4 <__muldf3+0x1f8>
   12178:	00040513          	mv	a0,s0
   1217c:	601030ef          	jal	15f7c <__clzsi2>
   12180:	ff550693          	addi	a3,a0,-11
   12184:	01d00713          	li	a4,29
   12188:	ff850793          	addi	a5,a0,-8
   1218c:	40d70733          	sub	a4,a4,a3
   12190:	00f41433          	sll	s0,s0,a5
   12194:	00ec5733          	srl	a4,s8,a4
   12198:	00876733          	or	a4,a4,s0
   1219c:	00fc1433          	sll	s0,s8,a5
   121a0:	c0d00693          	li	a3,-1011
   121a4:	00040793          	mv	a5,s0
   121a8:	40a686b3          	sub	a3,a3,a0
   121ac:	00070413          	mv	s0,a4
   121b0:	ec5ff06f          	j	12074 <__muldf3+0xb8>
   121b4:	000c0513          	mv	a0,s8
   121b8:	5c5030ef          	jal	15f7c <__clzsi2>
   121bc:	00050793          	mv	a5,a0
   121c0:	01578693          	addi	a3,a5,21
   121c4:	01c00713          	li	a4,28
   121c8:	02050513          	addi	a0,a0,32
   121cc:	fad75ce3          	bge	a4,a3,12184 <__muldf3+0x1c8>
   121d0:	ff878793          	addi	a5,a5,-8
   121d4:	00fc1733          	sll	a4,s8,a5
   121d8:	fc9ff06f          	j	121a0 <__muldf3+0x1e4>
   121dc:	018467b3          	or	a5,s0,s8
   121e0:	02079063          	bnez	a5,12200 <__muldf3+0x244>
   121e4:	00000413          	li	s0,0
   121e8:	00200613          	li	a2,2
   121ec:	e8dff06f          	j	12078 <__muldf3+0xbc>
   121f0:	00000413          	li	s0,0
   121f4:	00000693          	li	a3,0
   121f8:	00100613          	li	a2,1
   121fc:	e7dff06f          	j	12078 <__muldf3+0xbc>
   12200:	000c0793          	mv	a5,s8
   12204:	00300613          	li	a2,3
   12208:	e71ff06f          	j	12078 <__muldf3+0xbc>
   1220c:	00e69733          	sll	a4,a3,a4
   12210:	53077693          	andi	a3,a4,1328
   12214:	02069863          	bnez	a3,12244 <__muldf3+0x288>
   12218:	24077593          	andi	a1,a4,576
   1221c:	40059c63          	bnez	a1,12634 <__muldf3+0x678>
   12220:	08877713          	andi	a4,a4,136
   12224:	02070663          	beqz	a4,12250 <__muldf3+0x294>
   12228:	000a0813          	mv	a6,s4
   1222c:	e7dff06f          	j	120a8 <__muldf3+0xec>
   12230:	00f00693          	li	a3,15
   12234:	40d70863          	beq	a4,a3,12644 <__muldf3+0x688>
   12238:	00b00693          	li	a3,11
   1223c:	000a8813          	mv	a6,s5
   12240:	fed704e3          	beq	a4,a3,12228 <__muldf3+0x26c>
   12244:	00048413          	mv	s0,s1
   12248:	000b8793          	mv	a5,s7
   1224c:	e61ff06f          	j	120ac <__muldf3+0xf0>
   12250:	010bd713          	srli	a4,s7,0x10
   12254:	01079393          	slli	t2,a5,0x10
   12258:	010b9b93          	slli	s7,s7,0x10
   1225c:	010bdb93          	srli	s7,s7,0x10
   12260:	0103d393          	srli	t2,t2,0x10
   12264:	0107de13          	srli	t3,a5,0x10
   12268:	000b8513          	mv	a0,s7
   1226c:	00038593          	mv	a1,t2
   12270:	435030ef          	jal	15ea4 <__mulsi3>
   12274:	00050793          	mv	a5,a0
   12278:	000e0593          	mv	a1,t3
   1227c:	000b8513          	mv	a0,s7
   12280:	425030ef          	jal	15ea4 <__mulsi3>
   12284:	00050e93          	mv	t4,a0
   12288:	00038593          	mv	a1,t2
   1228c:	00070513          	mv	a0,a4
   12290:	415030ef          	jal	15ea4 <__mulsi3>
   12294:	00050f13          	mv	t5,a0
   12298:	000e0593          	mv	a1,t3
   1229c:	00070513          	mv	a0,a4
   122a0:	405030ef          	jal	15ea4 <__mulsi3>
   122a4:	0107d313          	srli	t1,a5,0x10
   122a8:	01ee8eb3          	add	t4,t4,t5
   122ac:	01d30333          	add	t1,t1,t4
   122b0:	00050293          	mv	t0,a0
   122b4:	01e37663          	bgeu	t1,t5,122c0 <__muldf3+0x304>
   122b8:	000106b7          	lui	a3,0x10
   122bc:	00d502b3          	add	t0,a0,a3
   122c0:	01045f13          	srli	t5,s0,0x10
   122c4:	01079793          	slli	a5,a5,0x10
   122c8:	01041413          	slli	s0,s0,0x10
   122cc:	01035a13          	srli	s4,t1,0x10
   122d0:	0107d793          	srli	a5,a5,0x10
   122d4:	01045413          	srli	s0,s0,0x10
   122d8:	01031313          	slli	t1,t1,0x10
   122dc:	00f30333          	add	t1,t1,a5
   122e0:	000b8513          	mv	a0,s7
   122e4:	00040593          	mv	a1,s0
   122e8:	3bd030ef          	jal	15ea4 <__mulsi3>
   122ec:	00050f93          	mv	t6,a0
   122f0:	000f0593          	mv	a1,t5
   122f4:	000b8513          	mv	a0,s7
   122f8:	3ad030ef          	jal	15ea4 <__mulsi3>
   122fc:	00050e93          	mv	t4,a0
   12300:	00040593          	mv	a1,s0
   12304:	00070513          	mv	a0,a4
   12308:	39d030ef          	jal	15ea4 <__mulsi3>
   1230c:	00050a93          	mv	s5,a0
   12310:	000f0593          	mv	a1,t5
   12314:	00070513          	mv	a0,a4
   12318:	38d030ef          	jal	15ea4 <__mulsi3>
   1231c:	010fd713          	srli	a4,t6,0x10
   12320:	015e8eb3          	add	t4,t4,s5
   12324:	01d70733          	add	a4,a4,t4
   12328:	00050793          	mv	a5,a0
   1232c:	01577663          	bgeu	a4,s5,12338 <__muldf3+0x37c>
   12330:	000106b7          	lui	a3,0x10
   12334:	00d507b3          	add	a5,a0,a3
   12338:	01075e93          	srli	t4,a4,0x10
   1233c:	010f9f93          	slli	t6,t6,0x10
   12340:	00fe8eb3          	add	t4,t4,a5
   12344:	010fdf93          	srli	t6,t6,0x10
   12348:	01071793          	slli	a5,a4,0x10
   1234c:	01f787b3          	add	a5,a5,t6
   12350:	00fa0733          	add	a4,s4,a5
   12354:	0104da13          	srli	s4,s1,0x10
   12358:	01049493          	slli	s1,s1,0x10
   1235c:	0104d493          	srli	s1,s1,0x10
   12360:	00048513          	mv	a0,s1
   12364:	00038593          	mv	a1,t2
   12368:	33d030ef          	jal	15ea4 <__mulsi3>
   1236c:	00050f93          	mv	t6,a0
   12370:	000e0593          	mv	a1,t3
   12374:	00048513          	mv	a0,s1
   12378:	32d030ef          	jal	15ea4 <__mulsi3>
   1237c:	00050a93          	mv	s5,a0
   12380:	00038593          	mv	a1,t2
   12384:	000a0513          	mv	a0,s4
   12388:	31d030ef          	jal	15ea4 <__mulsi3>
   1238c:	00050393          	mv	t2,a0
   12390:	000e0593          	mv	a1,t3
   12394:	000a0513          	mv	a0,s4
   12398:	30d030ef          	jal	15ea4 <__mulsi3>
   1239c:	010fd593          	srli	a1,t6,0x10
   123a0:	007a8ab3          	add	s5,s5,t2
   123a4:	015585b3          	add	a1,a1,s5
   123a8:	00050693          	mv	a3,a0
   123ac:	0075f663          	bgeu	a1,t2,123b8 <__muldf3+0x3fc>
   123b0:	00010637          	lui	a2,0x10
   123b4:	00c506b3          	add	a3,a0,a2
   123b8:	010f9f93          	slli	t6,t6,0x10
   123bc:	0105de13          	srli	t3,a1,0x10
   123c0:	010fdf93          	srli	t6,t6,0x10
   123c4:	01059593          	slli	a1,a1,0x10
   123c8:	01f58fb3          	add	t6,a1,t6
   123cc:	00de0e33          	add	t3,t3,a3
   123d0:	00048513          	mv	a0,s1
   123d4:	00040593          	mv	a1,s0
   123d8:	2cd030ef          	jal	15ea4 <__mulsi3>
   123dc:	00050393          	mv	t2,a0
   123e0:	000f0593          	mv	a1,t5
   123e4:	00048513          	mv	a0,s1
   123e8:	2bd030ef          	jal	15ea4 <__mulsi3>
   123ec:	00050493          	mv	s1,a0
   123f0:	00040593          	mv	a1,s0
   123f4:	000a0513          	mv	a0,s4
   123f8:	2ad030ef          	jal	15ea4 <__mulsi3>
   123fc:	00050413          	mv	s0,a0
   12400:	000f0593          	mv	a1,t5
   12404:	000a0513          	mv	a0,s4
   12408:	29d030ef          	jal	15ea4 <__mulsi3>
   1240c:	0103d593          	srli	a1,t2,0x10
   12410:	008484b3          	add	s1,s1,s0
   12414:	009585b3          	add	a1,a1,s1
   12418:	00050f13          	mv	t5,a0
   1241c:	0085f663          	bgeu	a1,s0,12428 <__muldf3+0x46c>
   12420:	000106b7          	lui	a3,0x10
   12424:	00d50f33          	add	t5,a0,a3
   12428:	01039393          	slli	t2,t2,0x10
   1242c:	00e286b3          	add	a3,t0,a4
   12430:	0103d393          	srli	t2,t2,0x10
   12434:	01059713          	slli	a4,a1,0x10
   12438:	00770733          	add	a4,a4,t2
   1243c:	01d70eb3          	add	t4,a4,t4
   12440:	00f6b7b3          	sltu	a5,a3,a5
   12444:	00fe87b3          	add	a5,t4,a5
   12448:	00eeb633          	sltu	a2,t4,a4
   1244c:	01d7beb3          	sltu	t4,a5,t4
   12450:	0105d593          	srli	a1,a1,0x10
   12454:	01d66633          	or	a2,a2,t4
   12458:	00b60633          	add	a2,a2,a1
   1245c:	01f685b3          	add	a1,a3,t6
   12460:	01c78e33          	add	t3,a5,t3
   12464:	00d5b6b3          	sltu	a3,a1,a3
   12468:	00de06b3          	add	a3,t3,a3
   1246c:	00fe3733          	sltu	a4,t3,a5
   12470:	01c6be33          	sltu	t3,a3,t3
   12474:	00959793          	slli	a5,a1,0x9
   12478:	01c76733          	or	a4,a4,t3
   1247c:	00c70733          	add	a4,a4,a2
   12480:	0067e7b3          	or	a5,a5,t1
   12484:	01e70733          	add	a4,a4,t5
   12488:	00f037b3          	snez	a5,a5
   1248c:	0175d593          	srli	a1,a1,0x17
   12490:	00971713          	slli	a4,a4,0x9
   12494:	0176d413          	srli	s0,a3,0x17
   12498:	00b7e7b3          	or	a5,a5,a1
   1249c:	00969693          	slli	a3,a3,0x9
   124a0:	00d7e7b3          	or	a5,a5,a3
   124a4:	00771693          	slli	a3,a4,0x7
   124a8:	00876433          	or	s0,a4,s0
   124ac:	0c06d663          	bgez	a3,12578 <__muldf3+0x5bc>
   124b0:	0017d713          	srli	a4,a5,0x1
   124b4:	0017f793          	andi	a5,a5,1
   124b8:	00f76733          	or	a4,a4,a5
   124bc:	01f41793          	slli	a5,s0,0x1f
   124c0:	00f767b3          	or	a5,a4,a5
   124c4:	00145413          	srli	s0,s0,0x1
   124c8:	3ff88713          	addi	a4,a7,1023
   124cc:	0ae05a63          	blez	a4,12580 <__muldf3+0x5c4>
   124d0:	0077f693          	andi	a3,a5,7
   124d4:	02068063          	beqz	a3,124f4 <__muldf3+0x538>
   124d8:	00f7f693          	andi	a3,a5,15
   124dc:	00400613          	li	a2,4
   124e0:	00c68a63          	beq	a3,a2,124f4 <__muldf3+0x538>
   124e4:	00c786b3          	add	a3,a5,a2
   124e8:	00f6b633          	sltu	a2,a3,a5
   124ec:	00c40433          	add	s0,s0,a2
   124f0:	00068793          	mv	a5,a3
   124f4:	00741693          	slli	a3,s0,0x7
   124f8:	0006da63          	bgez	a3,1250c <__muldf3+0x550>
   124fc:	ff000737          	lui	a4,0xff000
   12500:	fff70713          	addi	a4,a4,-1 # feffffff <__global_pointer$+0xfefdd147>
   12504:	00e47433          	and	s0,s0,a4
   12508:	40088713          	addi	a4,a7,1024
   1250c:	7fe00693          	li	a3,2046
   12510:	14e6c063          	blt	a3,a4,12650 <__muldf3+0x694>
   12514:	01d41693          	slli	a3,s0,0x1d
   12518:	0037d793          	srli	a5,a5,0x3
   1251c:	00f6e6b3          	or	a3,a3,a5
   12520:	00345413          	srli	s0,s0,0x3
   12524:	00c41413          	slli	s0,s0,0xc
   12528:	00c45413          	srli	s0,s0,0xc
   1252c:	01471713          	slli	a4,a4,0x14
   12530:	02c12083          	lw	ra,44(sp)
   12534:	00876733          	or	a4,a4,s0
   12538:	02812403          	lw	s0,40(sp)
   1253c:	01f81813          	slli	a6,a6,0x1f
   12540:	010767b3          	or	a5,a4,a6
   12544:	02412483          	lw	s1,36(sp)
   12548:	02012903          	lw	s2,32(sp)
   1254c:	01c12983          	lw	s3,28(sp)
   12550:	01812a03          	lw	s4,24(sp)
   12554:	01412a83          	lw	s5,20(sp)
   12558:	01012b03          	lw	s6,16(sp)
   1255c:	00c12b83          	lw	s7,12(sp)
   12560:	00812c03          	lw	s8,8(sp)
   12564:	00412c83          	lw	s9,4(sp)
   12568:	00068513          	mv	a0,a3
   1256c:	00078593          	mv	a1,a5
   12570:	03010113          	addi	sp,sp,48
   12574:	00008067          	ret
   12578:	000b0893          	mv	a7,s6
   1257c:	f4dff06f          	j	124c8 <__muldf3+0x50c>
   12580:	00100613          	li	a2,1
   12584:	00070c63          	beqz	a4,1259c <__muldf3+0x5e0>
   12588:	40e60633          	sub	a2,a2,a4
   1258c:	03800693          	li	a3,56
   12590:	b2c6cae3          	blt	a3,a2,120c4 <__muldf3+0x108>
   12594:	01f00693          	li	a3,31
   12598:	06c6c463          	blt	a3,a2,12600 <__muldf3+0x644>
   1259c:	41e88893          	addi	a7,a7,1054
   125a0:	00c7d733          	srl	a4,a5,a2
   125a4:	011797b3          	sll	a5,a5,a7
   125a8:	00f037b3          	snez	a5,a5
   125ac:	011418b3          	sll	a7,s0,a7
   125b0:	0117e7b3          	or	a5,a5,a7
   125b4:	00f767b3          	or	a5,a4,a5
   125b8:	00c45433          	srl	s0,s0,a2
   125bc:	0077f713          	andi	a4,a5,7
   125c0:	02070063          	beqz	a4,125e0 <__muldf3+0x624>
   125c4:	00f7f713          	andi	a4,a5,15
   125c8:	00400693          	li	a3,4
   125cc:	00d70a63          	beq	a4,a3,125e0 <__muldf3+0x624>
   125d0:	00d78733          	add	a4,a5,a3
   125d4:	00f736b3          	sltu	a3,a4,a5
   125d8:	00d40433          	add	s0,s0,a3
   125dc:	00070793          	mv	a5,a4
   125e0:	00841713          	slli	a4,s0,0x8
   125e4:	06074e63          	bltz	a4,12660 <__muldf3+0x6a4>
   125e8:	01d41693          	slli	a3,s0,0x1d
   125ec:	0037d793          	srli	a5,a5,0x3
   125f0:	00f6e6b3          	or	a3,a3,a5
   125f4:	00345413          	srli	s0,s0,0x3
   125f8:	00000713          	li	a4,0
   125fc:	f29ff06f          	j	12524 <__muldf3+0x568>
   12600:	fe100693          	li	a3,-31
   12604:	40e68733          	sub	a4,a3,a4
   12608:	02000593          	li	a1,32
   1260c:	00e45733          	srl	a4,s0,a4
   12610:	00000693          	li	a3,0
   12614:	00b60663          	beq	a2,a1,12620 <__muldf3+0x664>
   12618:	43e88893          	addi	a7,a7,1086
   1261c:	011416b3          	sll	a3,s0,a7
   12620:	00f6e6b3          	or	a3,a3,a5
   12624:	00d036b3          	snez	a3,a3
   12628:	00d767b3          	or	a5,a4,a3
   1262c:	00000413          	li	s0,0
   12630:	f8dff06f          	j	125bc <__muldf3+0x600>
   12634:	00080437          	lui	s0,0x80
   12638:	7ff00713          	li	a4,2047
   1263c:	00000813          	li	a6,0
   12640:	ee5ff06f          	j	12524 <__muldf3+0x568>
   12644:	00080437          	lui	s0,0x80
   12648:	00000693          	li	a3,0
   1264c:	fedff06f          	j	12638 <__muldf3+0x67c>
   12650:	00000413          	li	s0,0
   12654:	00000693          	li	a3,0
   12658:	7ff00713          	li	a4,2047
   1265c:	ec9ff06f          	j	12524 <__muldf3+0x568>
   12660:	00000413          	li	s0,0
   12664:	00000693          	li	a3,0
   12668:	00100713          	li	a4,1
   1266c:	eb9ff06f          	j	12524 <__muldf3+0x568>

00012670 <__subdf3>:
   12670:	00100837          	lui	a6,0x100
   12674:	fff80813          	addi	a6,a6,-1 # fffff <__global_pointer$+0xdd147>
   12678:	fe010113          	addi	sp,sp,-32
   1267c:	00b878b3          	and	a7,a6,a1
   12680:	0145d713          	srli	a4,a1,0x14
   12684:	01d55793          	srli	a5,a0,0x1d
   12688:	00d87833          	and	a6,a6,a3
   1268c:	01412423          	sw	s4,8(sp)
   12690:	7ff77a13          	andi	s4,a4,2047
   12694:	00389713          	slli	a4,a7,0x3
   12698:	0146d893          	srli	a7,a3,0x14
   1269c:	01312623          	sw	s3,12(sp)
   126a0:	00e7e7b3          	or	a5,a5,a4
   126a4:	01f5d993          	srli	s3,a1,0x1f
   126a8:	00381813          	slli	a6,a6,0x3
   126ac:	01d65593          	srli	a1,a2,0x1d
   126b0:	00112e23          	sw	ra,28(sp)
   126b4:	00812c23          	sw	s0,24(sp)
   126b8:	00912a23          	sw	s1,20(sp)
   126bc:	01212823          	sw	s2,16(sp)
   126c0:	01512223          	sw	s5,4(sp)
   126c4:	7ff8f893          	andi	a7,a7,2047
   126c8:	7ff00713          	li	a4,2047
   126cc:	00351513          	slli	a0,a0,0x3
   126d0:	01f6d693          	srli	a3,a3,0x1f
   126d4:	0105e5b3          	or	a1,a1,a6
   126d8:	00361613          	slli	a2,a2,0x3
   126dc:	00e89663          	bne	a7,a4,126e8 <__subdf3+0x78>
   126e0:	00c5e733          	or	a4,a1,a2
   126e4:	00071463          	bnez	a4,126ec <__subdf3+0x7c>
   126e8:	0016c693          	xori	a3,a3,1
   126ec:	411a0833          	sub	a6,s4,a7
   126f0:	7ff00313          	li	t1,2047
   126f4:	33369663          	bne	a3,s3,12a20 <__subdf3+0x3b0>
   126f8:	17005e63          	blez	a6,12874 <__subdf3+0x204>
   126fc:	0a089863          	bnez	a7,127ac <__subdf3+0x13c>
   12700:	00c5e733          	or	a4,a1,a2
   12704:	02070663          	beqz	a4,12730 <__subdf3+0xc0>
   12708:	fffa0813          	addi	a6,s4,-1
   1270c:	02081063          	bnez	a6,1272c <__subdf3+0xbc>
   12710:	00c50633          	add	a2,a0,a2
   12714:	00a63733          	sltu	a4,a2,a0
   12718:	00b786b3          	add	a3,a5,a1
   1271c:	00060513          	mv	a0,a2
   12720:	00e687b3          	add	a5,a3,a4
   12724:	00100a13          	li	s4,1
   12728:	0d40006f          	j	127fc <__subdf3+0x18c>
   1272c:	086a1663          	bne	s4,t1,127b8 <__subdf3+0x148>
   12730:	01d79693          	slli	a3,a5,0x1d
   12734:	00355513          	srli	a0,a0,0x3
   12738:	7ff00713          	li	a4,2047
   1273c:	00a6e6b3          	or	a3,a3,a0
   12740:	0037d793          	srli	a5,a5,0x3
   12744:	00ea1e63          	bne	s4,a4,12760 <__subdf3+0xf0>
   12748:	00f6e6b3          	or	a3,a3,a5
   1274c:	00000793          	li	a5,0
   12750:	00068863          	beqz	a3,12760 <__subdf3+0xf0>
   12754:	000807b7          	lui	a5,0x80
   12758:	00000693          	li	a3,0
   1275c:	00000993          	li	s3,0
   12760:	014a1713          	slli	a4,s4,0x14
   12764:	7ff00637          	lui	a2,0x7ff00
   12768:	00c79793          	slli	a5,a5,0xc
   1276c:	00c77733          	and	a4,a4,a2
   12770:	01c12083          	lw	ra,28(sp)
   12774:	01812403          	lw	s0,24(sp)
   12778:	00c7d793          	srli	a5,a5,0xc
   1277c:	00f767b3          	or	a5,a4,a5
   12780:	01f99713          	slli	a4,s3,0x1f
   12784:	00e7e633          	or	a2,a5,a4
   12788:	01412483          	lw	s1,20(sp)
   1278c:	01012903          	lw	s2,16(sp)
   12790:	00c12983          	lw	s3,12(sp)
   12794:	00812a03          	lw	s4,8(sp)
   12798:	00412a83          	lw	s5,4(sp)
   1279c:	00068513          	mv	a0,a3
   127a0:	00060593          	mv	a1,a2
   127a4:	02010113          	addi	sp,sp,32
   127a8:	00008067          	ret
   127ac:	f86a02e3          	beq	s4,t1,12730 <__subdf3+0xc0>
   127b0:	00800737          	lui	a4,0x800
   127b4:	00e5e5b3          	or	a1,a1,a4
   127b8:	03800713          	li	a4,56
   127bc:	0b074663          	blt	a4,a6,12868 <__subdf3+0x1f8>
   127c0:	01f00713          	li	a4,31
   127c4:	02000893          	li	a7,32
   127c8:	07074863          	blt	a4,a6,12838 <__subdf3+0x1c8>
   127cc:	410888b3          	sub	a7,a7,a6
   127d0:	01159733          	sll	a4,a1,a7
   127d4:	010656b3          	srl	a3,a2,a6
   127d8:	011618b3          	sll	a7,a2,a7
   127dc:	00d76733          	or	a4,a4,a3
   127e0:	011038b3          	snez	a7,a7
   127e4:	01176733          	or	a4,a4,a7
   127e8:	0105d833          	srl	a6,a1,a6
   127ec:	00a70533          	add	a0,a4,a0
   127f0:	00f80833          	add	a6,a6,a5
   127f4:	00e53733          	sltu	a4,a0,a4
   127f8:	00e807b3          	add	a5,a6,a4
   127fc:	00879713          	slli	a4,a5,0x8
   12800:	1c075c63          	bgez	a4,129d8 <__subdf3+0x368>
   12804:	001a0a13          	addi	s4,s4,1
   12808:	7ff00713          	li	a4,2047
   1280c:	5cea0263          	beq	s4,a4,12dd0 <__subdf3+0x760>
   12810:	ff800737          	lui	a4,0xff800
   12814:	fff70713          	addi	a4,a4,-1 # ff7fffff <__global_pointer$+0xff7dd147>
   12818:	00e7f7b3          	and	a5,a5,a4
   1281c:	00155713          	srli	a4,a0,0x1
   12820:	00157513          	andi	a0,a0,1
   12824:	00a76733          	or	a4,a4,a0
   12828:	01f79513          	slli	a0,a5,0x1f
   1282c:	00e56533          	or	a0,a0,a4
   12830:	0017d793          	srli	a5,a5,0x1
   12834:	1a40006f          	j	129d8 <__subdf3+0x368>
   12838:	fe080713          	addi	a4,a6,-32
   1283c:	00e5d733          	srl	a4,a1,a4
   12840:	00000693          	li	a3,0
   12844:	01180863          	beq	a6,a7,12854 <__subdf3+0x1e4>
   12848:	04000693          	li	a3,64
   1284c:	410686b3          	sub	a3,a3,a6
   12850:	00d596b3          	sll	a3,a1,a3
   12854:	00c6e6b3          	or	a3,a3,a2
   12858:	00d036b3          	snez	a3,a3
   1285c:	00d76733          	or	a4,a4,a3
   12860:	00000813          	li	a6,0
   12864:	f89ff06f          	j	127ec <__subdf3+0x17c>
   12868:	00c5e733          	or	a4,a1,a2
   1286c:	00e03733          	snez	a4,a4
   12870:	ff1ff06f          	j	12860 <__subdf3+0x1f0>
   12874:	0c080663          	beqz	a6,12940 <__subdf3+0x2d0>
   12878:	41488733          	sub	a4,a7,s4
   1287c:	020a1463          	bnez	s4,128a4 <__subdf3+0x234>
   12880:	00a7e6b3          	or	a3,a5,a0
   12884:	00068863          	beqz	a3,12894 <__subdf3+0x224>
   12888:	fff70693          	addi	a3,a4,-1
   1288c:	e80682e3          	beqz	a3,12710 <__subdf3+0xa0>
   12890:	02671263          	bne	a4,t1,128b4 <__subdf3+0x244>
   12894:	00058793          	mv	a5,a1
   12898:	00060513          	mv	a0,a2
   1289c:	00070a13          	mv	s4,a4
   128a0:	e91ff06f          	j	12730 <__subdf3+0xc0>
   128a4:	52688c63          	beq	a7,t1,12ddc <__subdf3+0x76c>
   128a8:	008006b7          	lui	a3,0x800
   128ac:	00d7e7b3          	or	a5,a5,a3
   128b0:	00070693          	mv	a3,a4
   128b4:	03800713          	li	a4,56
   128b8:	06d74e63          	blt	a4,a3,12934 <__subdf3+0x2c4>
   128bc:	01f00713          	li	a4,31
   128c0:	02000313          	li	t1,32
   128c4:	04d74063          	blt	a4,a3,12904 <__subdf3+0x294>
   128c8:	40d30333          	sub	t1,t1,a3
   128cc:	00679733          	sll	a4,a5,t1
   128d0:	00d55833          	srl	a6,a0,a3
   128d4:	00651333          	sll	t1,a0,t1
   128d8:	01076733          	or	a4,a4,a6
   128dc:	00603333          	snez	t1,t1
   128e0:	00676733          	or	a4,a4,t1
   128e4:	00d7d6b3          	srl	a3,a5,a3
   128e8:	00c70633          	add	a2,a4,a2
   128ec:	00b686b3          	add	a3,a3,a1
   128f0:	00e63733          	sltu	a4,a2,a4
   128f4:	00060513          	mv	a0,a2
   128f8:	00e687b3          	add	a5,a3,a4
   128fc:	00088a13          	mv	s4,a7
   12900:	efdff06f          	j	127fc <__subdf3+0x18c>
   12904:	fe068713          	addi	a4,a3,-32 # 7fffe0 <__global_pointer$+0x7dd128>
   12908:	00e7d733          	srl	a4,a5,a4
   1290c:	00000813          	li	a6,0
   12910:	00668863          	beq	a3,t1,12920 <__subdf3+0x2b0>
   12914:	04000813          	li	a6,64
   12918:	40d80833          	sub	a6,a6,a3
   1291c:	01079833          	sll	a6,a5,a6
   12920:	00a86833          	or	a6,a6,a0
   12924:	01003833          	snez	a6,a6
   12928:	01076733          	or	a4,a4,a6
   1292c:	00000693          	li	a3,0
   12930:	fb9ff06f          	j	128e8 <__subdf3+0x278>
   12934:	00a7e733          	or	a4,a5,a0
   12938:	00e03733          	snez	a4,a4
   1293c:	ff1ff06f          	j	1292c <__subdf3+0x2bc>
   12940:	001a0713          	addi	a4,s4,1
   12944:	7fe77693          	andi	a3,a4,2046
   12948:	06069463          	bnez	a3,129b0 <__subdf3+0x340>
   1294c:	00a7e733          	or	a4,a5,a0
   12950:	040a1063          	bnez	s4,12990 <__subdf3+0x320>
   12954:	2c070063          	beqz	a4,12c14 <__subdf3+0x5a4>
   12958:	00c5e733          	or	a4,a1,a2
   1295c:	44070a63          	beqz	a4,12db0 <__subdf3+0x740>
   12960:	00c50633          	add	a2,a0,a2
   12964:	00b786b3          	add	a3,a5,a1
   12968:	00a63533          	sltu	a0,a2,a0
   1296c:	00a685b3          	add	a1,a3,a0
   12970:	00859793          	slli	a5,a1,0x8
   12974:	2a07d063          	bgez	a5,12c14 <__subdf3+0x5a4>
   12978:	ff8007b7          	lui	a5,0xff800
   1297c:	fff78793          	addi	a5,a5,-1 # ff7fffff <__global_pointer$+0xff7dd147>
   12980:	00f5f7b3          	and	a5,a1,a5
   12984:	00060513          	mv	a0,a2
   12988:	00100a13          	li	s4,1
   1298c:	da5ff06f          	j	12730 <__subdf3+0xc0>
   12990:	42070663          	beqz	a4,12dbc <__subdf3+0x74c>
   12994:	00c5e633          	or	a2,a1,a2
   12998:	00030a13          	mv	s4,t1
   1299c:	d8060ae3          	beqz	a2,12730 <__subdf3+0xc0>
   129a0:	00000993          	li	s3,0
   129a4:	004007b7          	lui	a5,0x400
   129a8:	00000513          	li	a0,0
   129ac:	d85ff06f          	j	12730 <__subdf3+0xc0>
   129b0:	40670e63          	beq	a4,t1,12dcc <__subdf3+0x75c>
   129b4:	00c50633          	add	a2,a0,a2
   129b8:	00a63533          	sltu	a0,a2,a0
   129bc:	00b786b3          	add	a3,a5,a1
   129c0:	00a686b3          	add	a3,a3,a0
   129c4:	01f69513          	slli	a0,a3,0x1f
   129c8:	00165613          	srli	a2,a2,0x1
   129cc:	00c56533          	or	a0,a0,a2
   129d0:	0016d793          	srli	a5,a3,0x1
   129d4:	00070a13          	mv	s4,a4
   129d8:	00757713          	andi	a4,a0,7
   129dc:	02070063          	beqz	a4,129fc <__subdf3+0x38c>
   129e0:	00f57713          	andi	a4,a0,15
   129e4:	00400693          	li	a3,4
   129e8:	00d70a63          	beq	a4,a3,129fc <__subdf3+0x38c>
   129ec:	00d50733          	add	a4,a0,a3
   129f0:	00a736b3          	sltu	a3,a4,a0
   129f4:	00d787b3          	add	a5,a5,a3
   129f8:	00070513          	mv	a0,a4
   129fc:	00879713          	slli	a4,a5,0x8
   12a00:	d20758e3          	bgez	a4,12730 <__subdf3+0xc0>
   12a04:	001a0a13          	addi	s4,s4,1
   12a08:	7ff00713          	li	a4,2047
   12a0c:	3cea0263          	beq	s4,a4,12dd0 <__subdf3+0x760>
   12a10:	ff800737          	lui	a4,0xff800
   12a14:	fff70713          	addi	a4,a4,-1 # ff7fffff <__global_pointer$+0xff7dd147>
   12a18:	00e7f7b3          	and	a5,a5,a4
   12a1c:	d15ff06f          	j	12730 <__subdf3+0xc0>
   12a20:	0f005463          	blez	a6,12b08 <__subdf3+0x498>
   12a24:	08089c63          	bnez	a7,12abc <__subdf3+0x44c>
   12a28:	00c5e733          	or	a4,a1,a2
   12a2c:	d00702e3          	beqz	a4,12730 <__subdf3+0xc0>
   12a30:	fffa0813          	addi	a6,s4,-1
   12a34:	02081063          	bnez	a6,12a54 <__subdf3+0x3e4>
   12a38:	40c50633          	sub	a2,a0,a2
   12a3c:	00c53733          	sltu	a4,a0,a2
   12a40:	40b786b3          	sub	a3,a5,a1
   12a44:	00060513          	mv	a0,a2
   12a48:	40e687b3          	sub	a5,a3,a4
   12a4c:	00100a13          	li	s4,1
   12a50:	0500006f          	j	12aa0 <__subdf3+0x430>
   12a54:	cc6a0ee3          	beq	s4,t1,12730 <__subdf3+0xc0>
   12a58:	03800713          	li	a4,56
   12a5c:	0b074063          	blt	a4,a6,12afc <__subdf3+0x48c>
   12a60:	01f00713          	li	a4,31
   12a64:	02000893          	li	a7,32
   12a68:	07074263          	blt	a4,a6,12acc <__subdf3+0x45c>
   12a6c:	410888b3          	sub	a7,a7,a6
   12a70:	01159733          	sll	a4,a1,a7
   12a74:	010656b3          	srl	a3,a2,a6
   12a78:	011618b3          	sll	a7,a2,a7
   12a7c:	00d76733          	or	a4,a4,a3
   12a80:	011038b3          	snez	a7,a7
   12a84:	01176733          	or	a4,a4,a7
   12a88:	0105d833          	srl	a6,a1,a6
   12a8c:	40e50733          	sub	a4,a0,a4
   12a90:	00e536b3          	sltu	a3,a0,a4
   12a94:	41078833          	sub	a6,a5,a6
   12a98:	00070513          	mv	a0,a4
   12a9c:	40d807b3          	sub	a5,a6,a3
   12aa0:	00879713          	slli	a4,a5,0x8
   12aa4:	f2075ae3          	bgez	a4,129d8 <__subdf3+0x368>
   12aa8:	00800937          	lui	s2,0x800
   12aac:	fff90913          	addi	s2,s2,-1 # 7fffff <__global_pointer$+0x7dd147>
   12ab0:	0127f933          	and	s2,a5,s2
   12ab4:	00050a93          	mv	s5,a0
   12ab8:	2140006f          	j	12ccc <__subdf3+0x65c>
   12abc:	c66a0ae3          	beq	s4,t1,12730 <__subdf3+0xc0>
   12ac0:	00800737          	lui	a4,0x800
   12ac4:	00e5e5b3          	or	a1,a1,a4
   12ac8:	f91ff06f          	j	12a58 <__subdf3+0x3e8>
   12acc:	fe080713          	addi	a4,a6,-32
   12ad0:	00e5d733          	srl	a4,a1,a4
   12ad4:	00000693          	li	a3,0
   12ad8:	01180863          	beq	a6,a7,12ae8 <__subdf3+0x478>
   12adc:	04000693          	li	a3,64
   12ae0:	410686b3          	sub	a3,a3,a6
   12ae4:	00d596b3          	sll	a3,a1,a3
   12ae8:	00c6e6b3          	or	a3,a3,a2
   12aec:	00d036b3          	snez	a3,a3
   12af0:	00d76733          	or	a4,a4,a3
   12af4:	00000813          	li	a6,0
   12af8:	f95ff06f          	j	12a8c <__subdf3+0x41c>
   12afc:	00c5e733          	or	a4,a1,a2
   12b00:	00e03733          	snez	a4,a4
   12b04:	ff1ff06f          	j	12af4 <__subdf3+0x484>
   12b08:	0e080463          	beqz	a6,12bf0 <__subdf3+0x580>
   12b0c:	41488833          	sub	a6,a7,s4
   12b10:	040a1263          	bnez	s4,12b54 <__subdf3+0x4e4>
   12b14:	00a7e733          	or	a4,a5,a0
   12b18:	02070463          	beqz	a4,12b40 <__subdf3+0x4d0>
   12b1c:	fff80713          	addi	a4,a6,-1
   12b20:	00071e63          	bnez	a4,12b3c <__subdf3+0x4cc>
   12b24:	40a60533          	sub	a0,a2,a0
   12b28:	40f585b3          	sub	a1,a1,a5
   12b2c:	00a63633          	sltu	a2,a2,a0
   12b30:	40c587b3          	sub	a5,a1,a2
   12b34:	00068993          	mv	s3,a3
   12b38:	f15ff06f          	j	12a4c <__subdf3+0x3dc>
   12b3c:	02681463          	bne	a6,t1,12b64 <__subdf3+0x4f4>
   12b40:	00068993          	mv	s3,a3
   12b44:	00058793          	mv	a5,a1
   12b48:	00060513          	mv	a0,a2
   12b4c:	00080a13          	mv	s4,a6
   12b50:	be1ff06f          	j	12730 <__subdf3+0xc0>
   12b54:	28688263          	beq	a7,t1,12dd8 <__subdf3+0x768>
   12b58:	00800737          	lui	a4,0x800
   12b5c:	00e7e7b3          	or	a5,a5,a4
   12b60:	00080713          	mv	a4,a6
   12b64:	03800813          	li	a6,56
   12b68:	06e84e63          	blt	a6,a4,12be4 <__subdf3+0x574>
   12b6c:	01f00813          	li	a6,31
   12b70:	02000e13          	li	t3,32
   12b74:	04e84063          	blt	a6,a4,12bb4 <__subdf3+0x544>
   12b78:	40ee0e33          	sub	t3,t3,a4
   12b7c:	00e55333          	srl	t1,a0,a4
   12b80:	01c79833          	sll	a6,a5,t3
   12b84:	01c51e33          	sll	t3,a0,t3
   12b88:	00686833          	or	a6,a6,t1
   12b8c:	01c03e33          	snez	t3,t3
   12b90:	01c86533          	or	a0,a6,t3
   12b94:	00e7d733          	srl	a4,a5,a4
   12b98:	40a60533          	sub	a0,a2,a0
   12b9c:	40e58733          	sub	a4,a1,a4
   12ba0:	00a63633          	sltu	a2,a2,a0
   12ba4:	40c707b3          	sub	a5,a4,a2
   12ba8:	00088a13          	mv	s4,a7
   12bac:	00068993          	mv	s3,a3
   12bb0:	ef1ff06f          	j	12aa0 <__subdf3+0x430>
   12bb4:	fe070813          	addi	a6,a4,-32 # 7fffe0 <__global_pointer$+0x7dd128>
   12bb8:	0107d833          	srl	a6,a5,a6
   12bbc:	00000313          	li	t1,0
   12bc0:	01c70863          	beq	a4,t3,12bd0 <__subdf3+0x560>
   12bc4:	04000313          	li	t1,64
   12bc8:	40e30333          	sub	t1,t1,a4
   12bcc:	00679333          	sll	t1,a5,t1
   12bd0:	00a36333          	or	t1,t1,a0
   12bd4:	00603333          	snez	t1,t1
   12bd8:	00686533          	or	a0,a6,t1
   12bdc:	00000713          	li	a4,0
   12be0:	fb9ff06f          	j	12b98 <__subdf3+0x528>
   12be4:	00a7e533          	or	a0,a5,a0
   12be8:	00a03533          	snez	a0,a0
   12bec:	ff1ff06f          	j	12bdc <__subdf3+0x56c>
   12bf0:	001a0713          	addi	a4,s4,1
   12bf4:	7fe77713          	andi	a4,a4,2046
   12bf8:	0a071263          	bnez	a4,12c9c <__subdf3+0x62c>
   12bfc:	00c5e733          	or	a4,a1,a2
   12c00:	00a7e833          	or	a6,a5,a0
   12c04:	060a1863          	bnez	s4,12c74 <__subdf3+0x604>
   12c08:	02081263          	bnez	a6,12c2c <__subdf3+0x5bc>
   12c0c:	1e070063          	beqz	a4,12dec <__subdf3+0x77c>
   12c10:	00068993          	mv	s3,a3
   12c14:	00b66533          	or	a0,a2,a1
   12c18:	12050263          	beqz	a0,12d3c <__subdf3+0x6cc>
   12c1c:	00058793          	mv	a5,a1
   12c20:	00060513          	mv	a0,a2
   12c24:	00000a13          	li	s4,0
   12c28:	db1ff06f          	j	129d8 <__subdf3+0x368>
   12c2c:	18070263          	beqz	a4,12db0 <__subdf3+0x740>
   12c30:	40c50833          	sub	a6,a0,a2
   12c34:	010538b3          	sltu	a7,a0,a6
   12c38:	40b78733          	sub	a4,a5,a1
   12c3c:	41170733          	sub	a4,a4,a7
   12c40:	00871893          	slli	a7,a4,0x8
   12c44:	0008de63          	bgez	a7,12c60 <__subdf3+0x5f0>
   12c48:	40a60533          	sub	a0,a2,a0
   12c4c:	00a63733          	sltu	a4,a2,a0
   12c50:	40f585b3          	sub	a1,a1,a5
   12c54:	00050613          	mv	a2,a0
   12c58:	40e585b3          	sub	a1,a1,a4
   12c5c:	fb5ff06f          	j	12c10 <__subdf3+0x5a0>
   12c60:	00e86533          	or	a0,a6,a4
   12c64:	18050863          	beqz	a0,12df4 <__subdf3+0x784>
   12c68:	00070593          	mv	a1,a4
   12c6c:	00080613          	mv	a2,a6
   12c70:	fa5ff06f          	j	12c14 <__subdf3+0x5a4>
   12c74:	00081e63          	bnez	a6,12c90 <__subdf3+0x620>
   12c78:	00068993          	mv	s3,a3
   12c7c:	14071063          	bnez	a4,12dbc <__subdf3+0x74c>
   12c80:	00000993          	li	s3,0
   12c84:	004007b7          	lui	a5,0x400
   12c88:	00000513          	li	a0,0
   12c8c:	1380006f          	j	12dc4 <__subdf3+0x754>
   12c90:	00030a13          	mv	s4,t1
   12c94:	a8070ee3          	beqz	a4,12730 <__subdf3+0xc0>
   12c98:	d09ff06f          	j	129a0 <__subdf3+0x330>
   12c9c:	40c50733          	sub	a4,a0,a2
   12ca0:	00e53833          	sltu	a6,a0,a4
   12ca4:	40b78933          	sub	s2,a5,a1
   12ca8:	41090933          	sub	s2,s2,a6
   12cac:	00891813          	slli	a6,s2,0x8
   12cb0:	00070a93          	mv	s5,a4
   12cb4:	06085e63          	bgez	a6,12d30 <__subdf3+0x6c0>
   12cb8:	40a60ab3          	sub	s5,a2,a0
   12cbc:	40f58933          	sub	s2,a1,a5
   12cc0:	01563633          	sltu	a2,a2,s5
   12cc4:	40c90933          	sub	s2,s2,a2
   12cc8:	00068993          	mv	s3,a3
   12ccc:	06090e63          	beqz	s2,12d48 <__subdf3+0x6d8>
   12cd0:	00090513          	mv	a0,s2
   12cd4:	2a8030ef          	jal	15f7c <__clzsi2>
   12cd8:	ff850613          	addi	a2,a0,-8
   12cdc:	02000693          	li	a3,32
   12ce0:	40c686b3          	sub	a3,a3,a2
   12ce4:	00c91933          	sll	s2,s2,a2
   12ce8:	00dad6b3          	srl	a3,s5,a3
   12cec:	0126e6b3          	or	a3,a3,s2
   12cf0:	00ca9933          	sll	s2,s5,a2
   12cf4:	0b464263          	blt	a2,s4,12d98 <__subdf3+0x728>
   12cf8:	41460633          	sub	a2,a2,s4
   12cfc:	00160593          	addi	a1,a2,1 # 7ff00001 <__global_pointer$+0x7fedd149>
   12d00:	01f00793          	li	a5,31
   12d04:	02000713          	li	a4,32
   12d08:	06b7c063          	blt	a5,a1,12d68 <__subdf3+0x6f8>
   12d0c:	40b70733          	sub	a4,a4,a1
   12d10:	00e69633          	sll	a2,a3,a4
   12d14:	00b957b3          	srl	a5,s2,a1
   12d18:	00e91733          	sll	a4,s2,a4
   12d1c:	00f66633          	or	a2,a2,a5
   12d20:	00e03733          	snez	a4,a4
   12d24:	00e66633          	or	a2,a2,a4
   12d28:	00b6d5b3          	srl	a1,a3,a1
   12d2c:	ee9ff06f          	j	12c14 <__subdf3+0x5a4>
   12d30:	01276533          	or	a0,a4,s2
   12d34:	f8051ce3          	bnez	a0,12ccc <__subdf3+0x65c>
   12d38:	00000993          	li	s3,0
   12d3c:	00000793          	li	a5,0
   12d40:	00000a13          	li	s4,0
   12d44:	9edff06f          	j	12730 <__subdf3+0xc0>
   12d48:	000a8513          	mv	a0,s5
   12d4c:	230030ef          	jal	15f7c <__clzsi2>
   12d50:	01850613          	addi	a2,a0,24
   12d54:	01f00793          	li	a5,31
   12d58:	f8c7d2e3          	bge	a5,a2,12cdc <__subdf3+0x66c>
   12d5c:	ff850693          	addi	a3,a0,-8
   12d60:	00da96b3          	sll	a3,s5,a3
   12d64:	f91ff06f          	j	12cf4 <__subdf3+0x684>
   12d68:	fe160613          	addi	a2,a2,-31
   12d6c:	00c6d633          	srl	a2,a3,a2
   12d70:	00000793          	li	a5,0
   12d74:	00e58863          	beq	a1,a4,12d84 <__subdf3+0x714>
   12d78:	04000793          	li	a5,64
   12d7c:	40b787b3          	sub	a5,a5,a1
   12d80:	00f697b3          	sll	a5,a3,a5
   12d84:	00f967b3          	or	a5,s2,a5
   12d88:	00f037b3          	snez	a5,a5
   12d8c:	00f66633          	or	a2,a2,a5
   12d90:	00000593          	li	a1,0
   12d94:	e81ff06f          	j	12c14 <__subdf3+0x5a4>
   12d98:	ff8007b7          	lui	a5,0xff800
   12d9c:	fff78793          	addi	a5,a5,-1 # ff7fffff <__global_pointer$+0xff7dd147>
   12da0:	40ca0a33          	sub	s4,s4,a2
   12da4:	00f6f7b3          	and	a5,a3,a5
   12da8:	00090513          	mv	a0,s2
   12dac:	c2dff06f          	j	129d8 <__subdf3+0x368>
   12db0:	00078593          	mv	a1,a5
   12db4:	00050613          	mv	a2,a0
   12db8:	e5dff06f          	j	12c14 <__subdf3+0x5a4>
   12dbc:	00058793          	mv	a5,a1
   12dc0:	00060513          	mv	a0,a2
   12dc4:	00030a13          	mv	s4,t1
   12dc8:	969ff06f          	j	12730 <__subdf3+0xc0>
   12dcc:	00070a13          	mv	s4,a4
   12dd0:	00000793          	li	a5,0
   12dd4:	bd5ff06f          	j	129a8 <__subdf3+0x338>
   12dd8:	00068993          	mv	s3,a3
   12ddc:	00058793          	mv	a5,a1
   12de0:	00060513          	mv	a0,a2
   12de4:	00088a13          	mv	s4,a7
   12de8:	949ff06f          	j	12730 <__subdf3+0xc0>
   12dec:	00000993          	li	s3,0
   12df0:	fe1ff06f          	j	12dd0 <__subdf3+0x760>
   12df4:	00000993          	li	s3,0
   12df8:	00000793          	li	a5,0
   12dfc:	935ff06f          	j	12730 <__subdf3+0xc0>

00012e00 <__fixdfsi>:
   12e00:	0145d713          	srli	a4,a1,0x14
   12e04:	001006b7          	lui	a3,0x100
   12e08:	fff68793          	addi	a5,a3,-1 # fffff <__global_pointer$+0xdd147>
   12e0c:	7ff77713          	andi	a4,a4,2047
   12e10:	3fe00613          	li	a2,1022
   12e14:	00b7f7b3          	and	a5,a5,a1
   12e18:	01f5d593          	srli	a1,a1,0x1f
   12e1c:	04e65e63          	bge	a2,a4,12e78 <__fixdfsi+0x78>
   12e20:	41d00613          	li	a2,1053
   12e24:	00e65a63          	bge	a2,a4,12e38 <__fixdfsi+0x38>
   12e28:	80000537          	lui	a0,0x80000
   12e2c:	fff50513          	addi	a0,a0,-1 # 7fffffff <__global_pointer$+0x7ffdd147>
   12e30:	00a58533          	add	a0,a1,a0
   12e34:	00008067          	ret
   12e38:	00d7e7b3          	or	a5,a5,a3
   12e3c:	43300693          	li	a3,1075
   12e40:	40e686b3          	sub	a3,a3,a4
   12e44:	01f00613          	li	a2,31
   12e48:	02d64063          	blt	a2,a3,12e68 <__fixdfsi+0x68>
   12e4c:	bed70713          	addi	a4,a4,-1043
   12e50:	00e797b3          	sll	a5,a5,a4
   12e54:	00d55533          	srl	a0,a0,a3
   12e58:	00a7e533          	or	a0,a5,a0
   12e5c:	02058063          	beqz	a1,12e7c <__fixdfsi+0x7c>
   12e60:	40a00533          	neg	a0,a0
   12e64:	00008067          	ret
   12e68:	41300693          	li	a3,1043
   12e6c:	40e68733          	sub	a4,a3,a4
   12e70:	00e7d533          	srl	a0,a5,a4
   12e74:	fe9ff06f          	j	12e5c <__fixdfsi+0x5c>
   12e78:	00000513          	li	a0,0
   12e7c:	00008067          	ret

00012e80 <__floatsidf>:
   12e80:	fe010113          	addi	sp,sp,-32
   12e84:	00112e23          	sw	ra,28(sp)
   12e88:	00812c23          	sw	s0,24(sp)
   12e8c:	00912a23          	sw	s1,20(sp)
   12e90:	01212823          	sw	s2,16(sp)
   12e94:	01312623          	sw	s3,12(sp)
   12e98:	00050793          	mv	a5,a0
   12e9c:	08050663          	beqz	a0,12f28 <__floatsidf+0xa8>
   12ea0:	41f55713          	srai	a4,a0,0x1f
   12ea4:	00a74933          	xor	s2,a4,a0
   12ea8:	40e90933          	sub	s2,s2,a4
   12eac:	01f55993          	srli	s3,a0,0x1f
   12eb0:	00090513          	mv	a0,s2
   12eb4:	0c8030ef          	jal	15f7c <__clzsi2>
   12eb8:	41e00793          	li	a5,1054
   12ebc:	00a00713          	li	a4,10
   12ec0:	40a787b3          	sub	a5,a5,a0
   12ec4:	04a74a63          	blt	a4,a0,12f18 <__floatsidf+0x98>
   12ec8:	00b00713          	li	a4,11
   12ecc:	40a70733          	sub	a4,a4,a0
   12ed0:	01550513          	addi	a0,a0,21
   12ed4:	00e95733          	srl	a4,s2,a4
   12ed8:	00a91933          	sll	s2,s2,a0
   12edc:	00c71713          	slli	a4,a4,0xc
   12ee0:	01c12083          	lw	ra,28(sp)
   12ee4:	01812403          	lw	s0,24(sp)
   12ee8:	00c75713          	srli	a4,a4,0xc
   12eec:	01479793          	slli	a5,a5,0x14
   12ef0:	01f99993          	slli	s3,s3,0x1f
   12ef4:	00e7e7b3          	or	a5,a5,a4
   12ef8:	0137e733          	or	a4,a5,s3
   12efc:	01412483          	lw	s1,20(sp)
   12f00:	00c12983          	lw	s3,12(sp)
   12f04:	00090513          	mv	a0,s2
   12f08:	00070593          	mv	a1,a4
   12f0c:	01012903          	lw	s2,16(sp)
   12f10:	02010113          	addi	sp,sp,32
   12f14:	00008067          	ret
   12f18:	ff550513          	addi	a0,a0,-11
   12f1c:	00a91733          	sll	a4,s2,a0
   12f20:	00000913          	li	s2,0
   12f24:	fb9ff06f          	j	12edc <__floatsidf+0x5c>
   12f28:	00000993          	li	s3,0
   12f2c:	00000713          	li	a4,0
   12f30:	ff1ff06f          	j	12f20 <__floatsidf+0xa0>

00012f34 <__eqtf2>:
   12f34:	00c52703          	lw	a4,12(a0)
   12f38:	00052f03          	lw	t5,0(a0)
   12f3c:	00452303          	lw	t1,4(a0)
   12f40:	00852e03          	lw	t3,8(a0)
   12f44:	00c5a503          	lw	a0,12(a1) # 1000c <_start+0xc>
   12f48:	000086b7          	lui	a3,0x8
   12f4c:	01075613          	srli	a2,a4,0x10
   12f50:	fff68693          	addi	a3,a3,-1 # 7fff <_start-0x8001>
   12f54:	01071893          	slli	a7,a4,0x10
   12f58:	0005a783          	lw	a5,0(a1)
   12f5c:	0045af83          	lw	t6,4(a1)
   12f60:	0085a283          	lw	t0,8(a1)
   12f64:	01051e93          	slli	t4,a0,0x10
   12f68:	01f75593          	srli	a1,a4,0x1f
   12f6c:	00d67633          	and	a2,a2,a3
   12f70:	01055713          	srli	a4,a0,0x10
   12f74:	ff010113          	addi	sp,sp,-16
   12f78:	0108d893          	srli	a7,a7,0x10
   12f7c:	010ede93          	srli	t4,t4,0x10
   12f80:	00d77733          	and	a4,a4,a3
   12f84:	01f55813          	srli	a6,a0,0x1f
   12f88:	02d61063          	bne	a2,a3,12fa8 <__eqtf2+0x74>
   12f8c:	01e366b3          	or	a3,t1,t5
   12f90:	01c6e6b3          	or	a3,a3,t3
   12f94:	0116e6b3          	or	a3,a3,a7
   12f98:	00100513          	li	a0,1
   12f9c:	04069a63          	bnez	a3,12ff0 <__eqtf2+0xbc>
   12fa0:	04c71863          	bne	a4,a2,12ff0 <__eqtf2+0xbc>
   12fa4:	0080006f          	j	12fac <__eqtf2+0x78>
   12fa8:	00d71c63          	bne	a4,a3,12fc0 <__eqtf2+0x8c>
   12fac:	01f7e6b3          	or	a3,a5,t6
   12fb0:	0056e6b3          	or	a3,a3,t0
   12fb4:	01d6e6b3          	or	a3,a3,t4
   12fb8:	00100513          	li	a0,1
   12fbc:	02069a63          	bnez	a3,12ff0 <__eqtf2+0xbc>
   12fc0:	00100513          	li	a0,1
   12fc4:	02c71663          	bne	a4,a2,12ff0 <__eqtf2+0xbc>
   12fc8:	03e79463          	bne	a5,t5,12ff0 <__eqtf2+0xbc>
   12fcc:	03f31263          	bne	t1,t6,12ff0 <__eqtf2+0xbc>
   12fd0:	025e1063          	bne	t3,t0,12ff0 <__eqtf2+0xbc>
   12fd4:	01d89e63          	bne	a7,t4,12ff0 <__eqtf2+0xbc>
   12fd8:	03058063          	beq	a1,a6,12ff8 <__eqtf2+0xc4>
   12fdc:	00071a63          	bnez	a4,12ff0 <__eqtf2+0xbc>
   12fe0:	00f36533          	or	a0,t1,a5
   12fe4:	01c56533          	or	a0,a0,t3
   12fe8:	01156533          	or	a0,a0,a7
   12fec:	00a03533          	snez	a0,a0
   12ff0:	01010113          	addi	sp,sp,16
   12ff4:	00008067          	ret
   12ff8:	00000513          	li	a0,0
   12ffc:	ff5ff06f          	j	12ff0 <__eqtf2+0xbc>

00013000 <__getf2>:
   13000:	00c52783          	lw	a5,12(a0)
   13004:	00c5a683          	lw	a3,12(a1)
   13008:	00008737          	lui	a4,0x8
   1300c:	0107d613          	srli	a2,a5,0x10
   13010:	fff70713          	addi	a4,a4,-1 # 7fff <_start-0x8001>
   13014:	01079813          	slli	a6,a5,0x10
   13018:	01069293          	slli	t0,a3,0x10
   1301c:	00052883          	lw	a7,0(a0)
   13020:	00452303          	lw	t1,4(a0)
   13024:	00852e03          	lw	t3,8(a0)
   13028:	00e67633          	and	a2,a2,a4
   1302c:	0106d513          	srli	a0,a3,0x10
   13030:	0005ae83          	lw	t4,0(a1)
   13034:	0045af03          	lw	t5,4(a1)
   13038:	0085af83          	lw	t6,8(a1)
   1303c:	ff010113          	addi	sp,sp,-16
   13040:	01085813          	srli	a6,a6,0x10
   13044:	01f7d793          	srli	a5,a5,0x1f
   13048:	0102d293          	srli	t0,t0,0x10
   1304c:	00e57533          	and	a0,a0,a4
   13050:	01f6d693          	srli	a3,a3,0x1f
   13054:	00e61a63          	bne	a2,a4,13068 <__getf2+0x68>
   13058:	0068e733          	or	a4,a7,t1
   1305c:	01c76733          	or	a4,a4,t3
   13060:	01076733          	or	a4,a4,a6
   13064:	08071c63          	bnez	a4,130fc <__getf2+0xfc>
   13068:	00008737          	lui	a4,0x8
   1306c:	fff70713          	addi	a4,a4,-1 # 7fff <_start-0x8001>
   13070:	00e51a63          	bne	a0,a4,13084 <__getf2+0x84>
   13074:	01df6733          	or	a4,t5,t4
   13078:	01f76733          	or	a4,a4,t6
   1307c:	00576733          	or	a4,a4,t0
   13080:	06071e63          	bnez	a4,130fc <__getf2+0xfc>
   13084:	00000713          	li	a4,0
   13088:	00061a63          	bnez	a2,1309c <__getf2+0x9c>
   1308c:	0068e733          	or	a4,a7,t1
   13090:	01c76733          	or	a4,a4,t3
   13094:	01076733          	or	a4,a4,a6
   13098:	00173713          	seqz	a4,a4
   1309c:	06051463          	bnez	a0,13104 <__getf2+0x104>
   130a0:	01df65b3          	or	a1,t5,t4
   130a4:	01f5e5b3          	or	a1,a1,t6
   130a8:	0055e5b3          	or	a1,a1,t0
   130ac:	00070a63          	beqz	a4,130c0 <__getf2+0xc0>
   130b0:	06058463          	beqz	a1,13118 <__getf2+0x118>
   130b4:	00169513          	slli	a0,a3,0x1
   130b8:	fff50513          	addi	a0,a0,-1
   130bc:	05c0006f          	j	13118 <__getf2+0x118>
   130c0:	04059463          	bnez	a1,13108 <__getf2+0x108>
   130c4:	40f00533          	neg	a0,a5
   130c8:	04c0006f          	j	13114 <__getf2+0x114>
   130cc:	fea644e3          	blt	a2,a0,130b4 <__getf2+0xb4>
   130d0:	ff02eae3          	bltu	t0,a6,130c4 <__getf2+0xc4>
   130d4:	02581063          	bne	a6,t0,130f4 <__getf2+0xf4>
   130d8:	ffcfe6e3          	bltu	t6,t3,130c4 <__getf2+0xc4>
   130dc:	01fe1c63          	bne	t3,t6,130f4 <__getf2+0xf4>
   130e0:	fe6f62e3          	bltu	t5,t1,130c4 <__getf2+0xc4>
   130e4:	006f1863          	bne	t5,t1,130f4 <__getf2+0xf4>
   130e8:	fd1eeee3          	bltu	t4,a7,130c4 <__getf2+0xc4>
   130ec:	00000513          	li	a0,0
   130f0:	03d8f463          	bgeu	a7,t4,13118 <__getf2+0x118>
   130f4:	00179513          	slli	a0,a5,0x1
   130f8:	fc1ff06f          	j	130b8 <__getf2+0xb8>
   130fc:	ffe00513          	li	a0,-2
   13100:	0180006f          	j	13118 <__getf2+0x118>
   13104:	fa0718e3          	bnez	a4,130b4 <__getf2+0xb4>
   13108:	faf69ee3          	bne	a3,a5,130c4 <__getf2+0xc4>
   1310c:	fcc550e3          	bge	a0,a2,130cc <__getf2+0xcc>
   13110:	40d00533          	neg	a0,a3
   13114:	00156513          	ori	a0,a0,1
   13118:	01010113          	addi	sp,sp,16
   1311c:	00008067          	ret

00013120 <__letf2>:
   13120:	00c52783          	lw	a5,12(a0)
   13124:	00c5a683          	lw	a3,12(a1)
   13128:	00008737          	lui	a4,0x8
   1312c:	0107d613          	srli	a2,a5,0x10
   13130:	fff70713          	addi	a4,a4,-1 # 7fff <_start-0x8001>
   13134:	01079813          	slli	a6,a5,0x10
   13138:	01069293          	slli	t0,a3,0x10
   1313c:	00052883          	lw	a7,0(a0)
   13140:	00452303          	lw	t1,4(a0)
   13144:	00852e03          	lw	t3,8(a0)
   13148:	00e67633          	and	a2,a2,a4
   1314c:	0106d513          	srli	a0,a3,0x10
   13150:	0005ae83          	lw	t4,0(a1)
   13154:	0045af03          	lw	t5,4(a1)
   13158:	0085af83          	lw	t6,8(a1)
   1315c:	ff010113          	addi	sp,sp,-16
   13160:	01085813          	srli	a6,a6,0x10
   13164:	01f7d793          	srli	a5,a5,0x1f
   13168:	0102d293          	srli	t0,t0,0x10
   1316c:	00e57533          	and	a0,a0,a4
   13170:	01f6d693          	srli	a3,a3,0x1f
   13174:	00e61a63          	bne	a2,a4,13188 <__letf2+0x68>
   13178:	0068e733          	or	a4,a7,t1
   1317c:	01c76733          	or	a4,a4,t3
   13180:	01076733          	or	a4,a4,a6
   13184:	08071c63          	bnez	a4,1321c <__letf2+0xfc>
   13188:	00008737          	lui	a4,0x8
   1318c:	fff70713          	addi	a4,a4,-1 # 7fff <_start-0x8001>
   13190:	00e51a63          	bne	a0,a4,131a4 <__letf2+0x84>
   13194:	01df6733          	or	a4,t5,t4
   13198:	01f76733          	or	a4,a4,t6
   1319c:	00576733          	or	a4,a4,t0
   131a0:	06071e63          	bnez	a4,1321c <__letf2+0xfc>
   131a4:	00000713          	li	a4,0
   131a8:	00061a63          	bnez	a2,131bc <__letf2+0x9c>
   131ac:	0068e733          	or	a4,a7,t1
   131b0:	01c76733          	or	a4,a4,t3
   131b4:	01076733          	or	a4,a4,a6
   131b8:	00173713          	seqz	a4,a4
   131bc:	06051463          	bnez	a0,13224 <__letf2+0x104>
   131c0:	01df65b3          	or	a1,t5,t4
   131c4:	01f5e5b3          	or	a1,a1,t6
   131c8:	0055e5b3          	or	a1,a1,t0
   131cc:	00070a63          	beqz	a4,131e0 <__letf2+0xc0>
   131d0:	06058463          	beqz	a1,13238 <__letf2+0x118>
   131d4:	00169513          	slli	a0,a3,0x1
   131d8:	fff50513          	addi	a0,a0,-1
   131dc:	05c0006f          	j	13238 <__letf2+0x118>
   131e0:	04059463          	bnez	a1,13228 <__letf2+0x108>
   131e4:	40f00533          	neg	a0,a5
   131e8:	04c0006f          	j	13234 <__letf2+0x114>
   131ec:	fea644e3          	blt	a2,a0,131d4 <__letf2+0xb4>
   131f0:	ff02eae3          	bltu	t0,a6,131e4 <__letf2+0xc4>
   131f4:	02581063          	bne	a6,t0,13214 <__letf2+0xf4>
   131f8:	ffcfe6e3          	bltu	t6,t3,131e4 <__letf2+0xc4>
   131fc:	01fe1c63          	bne	t3,t6,13214 <__letf2+0xf4>
   13200:	fe6f62e3          	bltu	t5,t1,131e4 <__letf2+0xc4>
   13204:	006f1863          	bne	t5,t1,13214 <__letf2+0xf4>
   13208:	fd1eeee3          	bltu	t4,a7,131e4 <__letf2+0xc4>
   1320c:	00000513          	li	a0,0
   13210:	03d8f463          	bgeu	a7,t4,13238 <__letf2+0x118>
   13214:	00179513          	slli	a0,a5,0x1
   13218:	fc1ff06f          	j	131d8 <__letf2+0xb8>
   1321c:	00200513          	li	a0,2
   13220:	0180006f          	j	13238 <__letf2+0x118>
   13224:	fa0718e3          	bnez	a4,131d4 <__letf2+0xb4>
   13228:	faf69ee3          	bne	a3,a5,131e4 <__letf2+0xc4>
   1322c:	fcc550e3          	bge	a0,a2,131ec <__letf2+0xcc>
   13230:	40d00533          	neg	a0,a3
   13234:	00156513          	ori	a0,a0,1
   13238:	01010113          	addi	sp,sp,16
   1323c:	00008067          	ret

00013240 <__multf3>:
   13240:	00c5a883          	lw	a7,12(a1)
   13244:	f7010113          	addi	sp,sp,-144
   13248:	0045a783          	lw	a5,4(a1)
   1324c:	0085a683          	lw	a3,8(a1)
   13250:	08812423          	sw	s0,136(sp)
   13254:	00050413          	mv	s0,a0
   13258:	0005a503          	lw	a0,0(a1)
   1325c:	09212023          	sw	s2,128(sp)
   13260:	07512a23          	sw	s5,116(sp)
   13264:	00c62903          	lw	s2,12(a2)
   13268:	00462a83          	lw	s5,4(a2)
   1326c:	07612823          	sw	s6,112(sp)
   13270:	07712623          	sw	s7,108(sp)
   13274:	00862b03          	lw	s6,8(a2)
   13278:	00062b83          	lw	s7,0(a2)
   1327c:	01089713          	slli	a4,a7,0x10
   13280:	00008637          	lui	a2,0x8
   13284:	08912223          	sw	s1,132(sp)
   13288:	01075713          	srli	a4,a4,0x10
   1328c:	0108d493          	srli	s1,a7,0x10
   13290:	fff60613          	addi	a2,a2,-1 # 7fff <_start-0x8001>
   13294:	07412c23          	sw	s4,120(sp)
   13298:	08112623          	sw	ra,140(sp)
   1329c:	07312e23          	sw	s3,124(sp)
   132a0:	07812423          	sw	s8,104(sp)
   132a4:	07912223          	sw	s9,100(sp)
   132a8:	07a12023          	sw	s10,96(sp)
   132ac:	05b12e23          	sw	s11,92(sp)
   132b0:	02a12823          	sw	a0,48(sp)
   132b4:	02f12a23          	sw	a5,52(sp)
   132b8:	02d12c23          	sw	a3,56(sp)
   132bc:	03112e23          	sw	a7,60(sp)
   132c0:	00a12023          	sw	a0,0(sp)
   132c4:	00f12223          	sw	a5,4(sp)
   132c8:	00d12423          	sw	a3,8(sp)
   132cc:	00e12623          	sw	a4,12(sp)
   132d0:	00c4f4b3          	and	s1,s1,a2
   132d4:	01f8da13          	srli	s4,a7,0x1f
   132d8:	5c0484e3          	beqz	s1,140a0 <__multf3+0xe60>
   132dc:	6ec480e3          	beq	s1,a2,141bc <__multf3+0xf7c>
   132e0:	000107b7          	lui	a5,0x10
   132e4:	00f76733          	or	a4,a4,a5
   132e8:	00e12623          	sw	a4,12(sp)
   132ec:	00010613          	mv	a2,sp
   132f0:	00c10793          	addi	a5,sp,12
   132f4:	0007a703          	lw	a4,0(a5) # 10000 <_start>
   132f8:	ffc7a683          	lw	a3,-4(a5)
   132fc:	ffc78793          	addi	a5,a5,-4
   13300:	00371713          	slli	a4,a4,0x3
   13304:	01d6d693          	srli	a3,a3,0x1d
   13308:	00d76733          	or	a4,a4,a3
   1330c:	00e7a223          	sw	a4,4(a5)
   13310:	fef612e3          	bne	a2,a5,132f4 <__multf3+0xb4>
   13314:	ffffc7b7          	lui	a5,0xffffc
   13318:	00351513          	slli	a0,a0,0x3
   1331c:	00178793          	addi	a5,a5,1 # ffffc001 <__global_pointer$+0xfffd9149>
   13320:	00a12023          	sw	a0,0(sp)
   13324:	00f484b3          	add	s1,s1,a5
   13328:	00000993          	li	s3,0
   1332c:	01091513          	slli	a0,s2,0x10
   13330:	000087b7          	lui	a5,0x8
   13334:	01095813          	srli	a6,s2,0x10
   13338:	01055513          	srli	a0,a0,0x10
   1333c:	fff78793          	addi	a5,a5,-1 # 7fff <_start-0x8001>
   13340:	03212e23          	sw	s2,60(sp)
   13344:	03712823          	sw	s7,48(sp)
   13348:	03512a23          	sw	s5,52(sp)
   1334c:	03612c23          	sw	s6,56(sp)
   13350:	01712823          	sw	s7,16(sp)
   13354:	01512a23          	sw	s5,20(sp)
   13358:	01612c23          	sw	s6,24(sp)
   1335c:	00a12e23          	sw	a0,28(sp)
   13360:	00f87833          	and	a6,a6,a5
   13364:	01f95913          	srli	s2,s2,0x1f
   13368:	66080ee3          	beqz	a6,141e4 <__multf3+0xfa4>
   1336c:	00f81463          	bne	a6,a5,13374 <__multf3+0x134>
   13370:	7910006f          	j	14300 <__multf3+0x10c0>
   13374:	000107b7          	lui	a5,0x10
   13378:	00f56533          	or	a0,a0,a5
   1337c:	00a12e23          	sw	a0,28(sp)
   13380:	01010613          	addi	a2,sp,16
   13384:	01c10793          	addi	a5,sp,28
   13388:	0007a703          	lw	a4,0(a5) # 10000 <_start>
   1338c:	ffc7a683          	lw	a3,-4(a5)
   13390:	ffc78793          	addi	a5,a5,-4
   13394:	00371713          	slli	a4,a4,0x3
   13398:	01d6d693          	srli	a3,a3,0x1d
   1339c:	00d76733          	or	a4,a4,a3
   133a0:	00e7a223          	sw	a4,4(a5)
   133a4:	fef612e3          	bne	a2,a5,13388 <__multf3+0x148>
   133a8:	ffffc7b7          	lui	a5,0xffffc
   133ac:	003b9b93          	slli	s7,s7,0x3
   133b0:	00178793          	addi	a5,a5,1 # ffffc001 <__global_pointer$+0xfffd9149>
   133b4:	01712823          	sw	s7,16(sp)
   133b8:	00f80833          	add	a6,a6,a5
   133bc:	00000713          	li	a4,0
   133c0:	00299793          	slli	a5,s3,0x2
   133c4:	00980833          	add	a6,a6,s1
   133c8:	00e7e7b3          	or	a5,a5,a4
   133cc:	00a00693          	li	a3,10
   133d0:	00180d13          	addi	s10,a6,1
   133d4:	00f6d463          	bge	a3,a5,133dc <__multf3+0x19c>
   133d8:	7950006f          	j	1436c <__multf3+0x112c>
   133dc:	00200613          	li	a2,2
   133e0:	012a48b3          	xor	a7,s4,s2
   133e4:	00100693          	li	a3,1
   133e8:	00f65463          	bge	a2,a5,133f0 <__multf3+0x1b0>
   133ec:	7410006f          	j	1432c <__multf3+0x10ec>
   133f0:	fff78793          	addi	a5,a5,-1
   133f4:	00f6e463          	bltu	a3,a5,133fc <__multf3+0x1bc>
   133f8:	78d0006f          	j	14384 <__multf3+0x1144>
   133fc:	00012f03          	lw	t5,0(sp)
   13400:	01012e83          	lw	t4,16(sp)
   13404:	010f1313          	slli	t1,t5,0x10
   13408:	010e9e13          	slli	t3,t4,0x10
   1340c:	01035313          	srli	t1,t1,0x10
   13410:	010e5e13          	srli	t3,t3,0x10
   13414:	010f5f93          	srli	t6,t5,0x10
   13418:	010ed793          	srli	a5,t4,0x10
   1341c:	00030513          	mv	a0,t1
   13420:	000e0593          	mv	a1,t3
   13424:	281020ef          	jal	15ea4 <__mulsi3>
   13428:	00050713          	mv	a4,a0
   1342c:	00078593          	mv	a1,a5
   13430:	00030513          	mv	a0,t1
   13434:	271020ef          	jal	15ea4 <__mulsi3>
   13438:	00050313          	mv	t1,a0
   1343c:	000e0593          	mv	a1,t3
   13440:	000f8513          	mv	a0,t6
   13444:	261020ef          	jal	15ea4 <__mulsi3>
   13448:	00050e13          	mv	t3,a0
   1344c:	00078593          	mv	a1,a5
   13450:	000f8513          	mv	a0,t6
   13454:	251020ef          	jal	15ea4 <__mulsi3>
   13458:	01075793          	srli	a5,a4,0x10
   1345c:	01c30333          	add	t1,t1,t3
   13460:	006787b3          	add	a5,a5,t1
   13464:	00050693          	mv	a3,a0
   13468:	01c7f663          	bgeu	a5,t3,13474 <__multf3+0x234>
   1346c:	00010637          	lui	a2,0x10
   13470:	00c506b3          	add	a3,a0,a2
   13474:	01412283          	lw	t0,20(sp)
   13478:	01071713          	slli	a4,a4,0x10
   1347c:	0107d613          	srli	a2,a5,0x10
   13480:	01075713          	srli	a4,a4,0x10
   13484:	01079793          	slli	a5,a5,0x10
   13488:	00e787b3          	add	a5,a5,a4
   1348c:	01029313          	slli	t1,t0,0x10
   13490:	010f1713          	slli	a4,t5,0x10
   13494:	00d606b3          	add	a3,a2,a3
   13498:	01075713          	srli	a4,a4,0x10
   1349c:	01035313          	srli	t1,t1,0x10
   134a0:	02d12a23          	sw	a3,52(sp)
   134a4:	02f12823          	sw	a5,48(sp)
   134a8:	010f5e13          	srli	t3,t5,0x10
   134ac:	0102df93          	srli	t6,t0,0x10
   134b0:	00070513          	mv	a0,a4
   134b4:	00030593          	mv	a1,t1
   134b8:	1ed020ef          	jal	15ea4 <__mulsi3>
   134bc:	00050793          	mv	a5,a0
   134c0:	000f8593          	mv	a1,t6
   134c4:	00070513          	mv	a0,a4
   134c8:	1dd020ef          	jal	15ea4 <__mulsi3>
   134cc:	00050713          	mv	a4,a0
   134d0:	00030593          	mv	a1,t1
   134d4:	000e0513          	mv	a0,t3
   134d8:	1cd020ef          	jal	15ea4 <__mulsi3>
   134dc:	00050313          	mv	t1,a0
   134e0:	000f8593          	mv	a1,t6
   134e4:	000e0513          	mv	a0,t3
   134e8:	1bd020ef          	jal	15ea4 <__mulsi3>
   134ec:	0107de13          	srli	t3,a5,0x10
   134f0:	00670733          	add	a4,a4,t1
   134f4:	00ee0e33          	add	t3,t3,a4
   134f8:	00050b13          	mv	s6,a0
   134fc:	006e7663          	bgeu	t3,t1,13508 <__multf3+0x2c8>
   13500:	00010737          	lui	a4,0x10
   13504:	00e50b33          	add	s6,a0,a4
   13508:	00412383          	lw	t2,4(sp)
   1350c:	010e9493          	slli	s1,t4,0x10
   13510:	01079793          	slli	a5,a5,0x10
   13514:	01039313          	slli	t1,t2,0x10
   13518:	010e5913          	srli	s2,t3,0x10
   1351c:	0107d793          	srli	a5,a5,0x10
   13520:	01035313          	srli	t1,t1,0x10
   13524:	0104d493          	srli	s1,s1,0x10
   13528:	010e1e13          	slli	t3,t3,0x10
   1352c:	00fe0e33          	add	t3,t3,a5
   13530:	0103d713          	srli	a4,t2,0x10
   13534:	010ed793          	srli	a5,t4,0x10
   13538:	00030513          	mv	a0,t1
   1353c:	00048593          	mv	a1,s1
   13540:	165020ef          	jal	15ea4 <__mulsi3>
   13544:	00050f93          	mv	t6,a0
   13548:	00078593          	mv	a1,a5
   1354c:	00030513          	mv	a0,t1
   13550:	155020ef          	jal	15ea4 <__mulsi3>
   13554:	00050313          	mv	t1,a0
   13558:	00048593          	mv	a1,s1
   1355c:	00070513          	mv	a0,a4
   13560:	145020ef          	jal	15ea4 <__mulsi3>
   13564:	00050493          	mv	s1,a0
   13568:	00078593          	mv	a1,a5
   1356c:	00070513          	mv	a0,a4
   13570:	135020ef          	jal	15ea4 <__mulsi3>
   13574:	010fd793          	srli	a5,t6,0x10
   13578:	00930333          	add	t1,t1,s1
   1357c:	006787b3          	add	a5,a5,t1
   13580:	00050713          	mv	a4,a0
   13584:	0097f663          	bgeu	a5,s1,13590 <__multf3+0x350>
   13588:	000106b7          	lui	a3,0x10
   1358c:	00d50733          	add	a4,a0,a3
   13590:	010f9f93          	slli	t6,t6,0x10
   13594:	0107d993          	srli	s3,a5,0x10
   13598:	010fdf93          	srli	t6,t6,0x10
   1359c:	01079793          	slli	a5,a5,0x10
   135a0:	01f787b3          	add	a5,a5,t6
   135a4:	01039a13          	slli	s4,t2,0x10
   135a8:	01029f93          	slli	t6,t0,0x10
   135ac:	010a5a13          	srli	s4,s4,0x10
   135b0:	010fdf93          	srli	t6,t6,0x10
   135b4:	00e989b3          	add	s3,s3,a4
   135b8:	0103d493          	srli	s1,t2,0x10
   135bc:	0102d713          	srli	a4,t0,0x10
   135c0:	000a0513          	mv	a0,s4
   135c4:	000f8593          	mv	a1,t6
   135c8:	0dd020ef          	jal	15ea4 <__mulsi3>
   135cc:	00050313          	mv	t1,a0
   135d0:	00070593          	mv	a1,a4
   135d4:	000a0513          	mv	a0,s4
   135d8:	0cd020ef          	jal	15ea4 <__mulsi3>
   135dc:	00050a13          	mv	s4,a0
   135e0:	000f8593          	mv	a1,t6
   135e4:	00048513          	mv	a0,s1
   135e8:	0bd020ef          	jal	15ea4 <__mulsi3>
   135ec:	00050f93          	mv	t6,a0
   135f0:	00070593          	mv	a1,a4
   135f4:	00048513          	mv	a0,s1
   135f8:	0ad020ef          	jal	15ea4 <__mulsi3>
   135fc:	01035713          	srli	a4,t1,0x10
   13600:	01fa0a33          	add	s4,s4,t6
   13604:	01470733          	add	a4,a4,s4
   13608:	00050693          	mv	a3,a0
   1360c:	01f77663          	bgeu	a4,t6,13618 <__multf3+0x3d8>
   13610:	00010637          	lui	a2,0x10
   13614:	00c506b3          	add	a3,a0,a2
   13618:	01812a03          	lw	s4,24(sp)
   1361c:	010f1b93          	slli	s7,t5,0x10
   13620:	01031313          	slli	t1,t1,0x10
   13624:	010a1a93          	slli	s5,s4,0x10
   13628:	01075493          	srli	s1,a4,0x10
   1362c:	01035313          	srli	t1,t1,0x10
   13630:	010bdb93          	srli	s7,s7,0x10
   13634:	010ada93          	srli	s5,s5,0x10
   13638:	01071713          	slli	a4,a4,0x10
   1363c:	00670733          	add	a4,a4,t1
   13640:	00d484b3          	add	s1,s1,a3
   13644:	010f5313          	srli	t1,t5,0x10
   13648:	010a5c13          	srli	s8,s4,0x10
   1364c:	000b8513          	mv	a0,s7
   13650:	000a8593          	mv	a1,s5
   13654:	051020ef          	jal	15ea4 <__mulsi3>
   13658:	00050f93          	mv	t6,a0
   1365c:	000c0593          	mv	a1,s8
   13660:	000b8513          	mv	a0,s7
   13664:	041020ef          	jal	15ea4 <__mulsi3>
   13668:	00050b93          	mv	s7,a0
   1366c:	000a8593          	mv	a1,s5
   13670:	00030513          	mv	a0,t1
   13674:	031020ef          	jal	15ea4 <__mulsi3>
   13678:	00050a93          	mv	s5,a0
   1367c:	000c0593          	mv	a1,s8
   13680:	00030513          	mv	a0,t1
   13684:	021020ef          	jal	15ea4 <__mulsi3>
   13688:	010fd313          	srli	t1,t6,0x10
   1368c:	015b8bb3          	add	s7,s7,s5
   13690:	01730333          	add	t1,t1,s7
   13694:	00050693          	mv	a3,a0
   13698:	01537663          	bgeu	t1,s5,136a4 <__multf3+0x464>
   1369c:	00010637          	lui	a2,0x10
   136a0:	00c506b3          	add	a3,a0,a2
   136a4:	010f9f93          	slli	t6,t6,0x10
   136a8:	01035613          	srli	a2,t1,0x10
   136ac:	010fdf93          	srli	t6,t6,0x10
   136b0:	01031313          	slli	t1,t1,0x10
   136b4:	01f30333          	add	t1,t1,t6
   136b8:	00812f83          	lw	t6,8(sp)
   136bc:	010e9c13          	slli	s8,t4,0x10
   136c0:	010c5c13          	srli	s8,s8,0x10
   136c4:	010f9b93          	slli	s7,t6,0x10
   136c8:	010bdb93          	srli	s7,s7,0x10
   136cc:	00d60db3          	add	s11,a2,a3
   136d0:	010edc93          	srli	s9,t4,0x10
   136d4:	000b8513          	mv	a0,s7
   136d8:	000c0593          	mv	a1,s8
   136dc:	7c8020ef          	jal	15ea4 <__mulsi3>
   136e0:	00050a93          	mv	s5,a0
   136e4:	000c8593          	mv	a1,s9
   136e8:	000b8513          	mv	a0,s7
   136ec:	7b8020ef          	jal	15ea4 <__mulsi3>
   136f0:	00050b93          	mv	s7,a0
   136f4:	000c0593          	mv	a1,s8
   136f8:	010fd513          	srli	a0,t6,0x10
   136fc:	7a8020ef          	jal	15ea4 <__mulsi3>
   13700:	00050c13          	mv	s8,a0
   13704:	000c8593          	mv	a1,s9
   13708:	010fd513          	srli	a0,t6,0x10
   1370c:	798020ef          	jal	15ea4 <__mulsi3>
   13710:	010ad693          	srli	a3,s5,0x10
   13714:	018b8bb3          	add	s7,s7,s8
   13718:	01768bb3          	add	s7,a3,s7
   1371c:	018bf663          	bgeu	s7,s8,13728 <__multf3+0x4e8>
   13720:	000106b7          	lui	a3,0x10
   13724:	00d50533          	add	a0,a0,a3
   13728:	03412603          	lw	a2,52(sp)
   1372c:	010bd693          	srli	a3,s7,0x10
   13730:	00a68533          	add	a0,a3,a0
   13734:	01c60e33          	add	t3,a2,t3
   13738:	00ce3633          	sltu	a2,t3,a2
   1373c:	00c90933          	add	s2,s2,a2
   13740:	01690933          	add	s2,s2,s6
   13744:	00fe07b3          	add	a5,t3,a5
   13748:	013909b3          	add	s3,s2,s3
   1374c:	02f12a23          	sw	a5,52(sp)
   13750:	01c7b7b3          	sltu	a5,a5,t3
   13754:	00f987b3          	add	a5,s3,a5
   13758:	0129b6b3          	sltu	a3,s3,s2
   1375c:	0137b9b3          	sltu	s3,a5,s3
   13760:	00c93933          	sltu	s2,s2,a2
   13764:	0136e6b3          	or	a3,a3,s3
   13768:	012686b3          	add	a3,a3,s2
   1376c:	00e78733          	add	a4,a5,a4
   13770:	009684b3          	add	s1,a3,s1
   13774:	00f737b3          	sltu	a5,a4,a5
   13778:	010a9a93          	slli	s5,s5,0x10
   1377c:	00670333          	add	t1,a4,t1
   13780:	00f487b3          	add	a5,s1,a5
   13784:	010b9b93          	slli	s7,s7,0x10
   13788:	010ada93          	srli	s5,s5,0x10
   1378c:	01b78633          	add	a2,a5,s11
   13790:	015b8ab3          	add	s5,s7,s5
   13794:	00e33733          	sltu	a4,t1,a4
   13798:	00e60733          	add	a4,a2,a4
   1379c:	01530ab3          	add	s5,t1,s5
   137a0:	00a70533          	add	a0,a4,a0
   137a4:	00d4b6b3          	sltu	a3,s1,a3
   137a8:	03512c23          	sw	s5,56(sp)
   137ac:	0097b4b3          	sltu	s1,a5,s1
   137b0:	006abab3          	sltu	s5,s5,t1
   137b4:	00f637b3          	sltu	a5,a2,a5
   137b8:	01c12303          	lw	t1,28(sp)
   137bc:	00c73633          	sltu	a2,a4,a2
   137c0:	00c7e7b3          	or	a5,a5,a2
   137c4:	01550ab3          	add	s5,a0,s5
   137c8:	0096e6b3          	or	a3,a3,s1
   137cc:	00f686b3          	add	a3,a3,a5
   137d0:	03512e23          	sw	s5,60(sp)
   137d4:	00e537b3          	sltu	a5,a0,a4
   137d8:	00aabab3          	sltu	s5,s5,a0
   137dc:	0157e7b3          	or	a5,a5,s5
   137e0:	010f5713          	srli	a4,t5,0x10
   137e4:	01031913          	slli	s2,t1,0x10
   137e8:	010f1f13          	slli	t5,t5,0x10
   137ec:	00d787b3          	add	a5,a5,a3
   137f0:	010f5f13          	srli	t5,t5,0x10
   137f4:	01095913          	srli	s2,s2,0x10
   137f8:	04f12023          	sw	a5,64(sp)
   137fc:	000f0513          	mv	a0,t5
   13800:	01035793          	srli	a5,t1,0x10
   13804:	00090593          	mv	a1,s2
   13808:	69c020ef          	jal	15ea4 <__mulsi3>
   1380c:	00050493          	mv	s1,a0
   13810:	00078593          	mv	a1,a5
   13814:	000f0513          	mv	a0,t5
   13818:	68c020ef          	jal	15ea4 <__mulsi3>
   1381c:	00050e13          	mv	t3,a0
   13820:	00090593          	mv	a1,s2
   13824:	00070513          	mv	a0,a4
   13828:	67c020ef          	jal	15ea4 <__mulsi3>
   1382c:	00050f13          	mv	t5,a0
   13830:	00078593          	mv	a1,a5
   13834:	00070513          	mv	a0,a4
   13838:	66c020ef          	jal	15ea4 <__mulsi3>
   1383c:	0104d793          	srli	a5,s1,0x10
   13840:	01ee0e33          	add	t3,t3,t5
   13844:	01c787b3          	add	a5,a5,t3
   13848:	00050713          	mv	a4,a0
   1384c:	01e7f663          	bgeu	a5,t5,13858 <__multf3+0x618>
   13850:	000106b7          	lui	a3,0x10
   13854:	00d50733          	add	a4,a0,a3
   13858:	00c12f03          	lw	t5,12(sp)
   1385c:	0107d913          	srli	s2,a5,0x10
   13860:	00e90933          	add	s2,s2,a4
   13864:	010f1e13          	slli	t3,t5,0x10
   13868:	010ed713          	srli	a4,t4,0x10
   1386c:	01049493          	slli	s1,s1,0x10
   13870:	010e9e93          	slli	t4,t4,0x10
   13874:	0104d493          	srli	s1,s1,0x10
   13878:	010e5e13          	srli	t3,t3,0x10
   1387c:	010ede93          	srli	t4,t4,0x10
   13880:	01079793          	slli	a5,a5,0x10
   13884:	009787b3          	add	a5,a5,s1
   13888:	000e0513          	mv	a0,t3
   1388c:	010f5493          	srli	s1,t5,0x10
   13890:	000e8593          	mv	a1,t4
   13894:	610020ef          	jal	15ea4 <__mulsi3>
   13898:	00050993          	mv	s3,a0
   1389c:	00070593          	mv	a1,a4
   138a0:	000e0513          	mv	a0,t3
   138a4:	600020ef          	jal	15ea4 <__mulsi3>
   138a8:	00050e13          	mv	t3,a0
   138ac:	000e8593          	mv	a1,t4
   138b0:	00048513          	mv	a0,s1
   138b4:	5f0020ef          	jal	15ea4 <__mulsi3>
   138b8:	00050e93          	mv	t4,a0
   138bc:	00070593          	mv	a1,a4
   138c0:	00048513          	mv	a0,s1
   138c4:	5e0020ef          	jal	15ea4 <__mulsi3>
   138c8:	0109d713          	srli	a4,s3,0x10
   138cc:	01de0e33          	add	t3,t3,t4
   138d0:	01c70733          	add	a4,a4,t3
   138d4:	00050693          	mv	a3,a0
   138d8:	01d77663          	bgeu	a4,t4,138e4 <__multf3+0x6a4>
   138dc:	00010637          	lui	a2,0x10
   138e0:	00c506b3          	add	a3,a0,a2
   138e4:	0103da93          	srli	s5,t2,0x10
   138e8:	010a5e13          	srli	t3,s4,0x10
   138ec:	01099993          	slli	s3,s3,0x10
   138f0:	01039393          	slli	t2,t2,0x10
   138f4:	010a1a13          	slli	s4,s4,0x10
   138f8:	01075513          	srli	a0,a4,0x10
   138fc:	0109d993          	srli	s3,s3,0x10
   13900:	0103d393          	srli	t2,t2,0x10
   13904:	010a5a13          	srli	s4,s4,0x10
   13908:	01071713          	slli	a4,a4,0x10
   1390c:	00d504b3          	add	s1,a0,a3
   13910:	01370733          	add	a4,a4,s3
   13914:	00038513          	mv	a0,t2
   13918:	000a0593          	mv	a1,s4
   1391c:	588020ef          	jal	15ea4 <__mulsi3>
   13920:	00050993          	mv	s3,a0
   13924:	000e0593          	mv	a1,t3
   13928:	00038513          	mv	a0,t2
   1392c:	578020ef          	jal	15ea4 <__mulsi3>
   13930:	00050e93          	mv	t4,a0
   13934:	000a0593          	mv	a1,s4
   13938:	000a8513          	mv	a0,s5
   1393c:	568020ef          	jal	15ea4 <__mulsi3>
   13940:	00050393          	mv	t2,a0
   13944:	000e0593          	mv	a1,t3
   13948:	000a8513          	mv	a0,s5
   1394c:	558020ef          	jal	15ea4 <__mulsi3>
   13950:	0109de13          	srli	t3,s3,0x10
   13954:	007e8eb3          	add	t4,t4,t2
   13958:	01de0e33          	add	t3,t3,t4
   1395c:	00050693          	mv	a3,a0
   13960:	007e7663          	bgeu	t3,t2,1396c <__multf3+0x72c>
   13964:	00010637          	lui	a2,0x10
   13968:	00c506b3          	add	a3,a0,a2
   1396c:	0102da93          	srli	s5,t0,0x10
   13970:	010f9a13          	slli	s4,t6,0x10
   13974:	01099993          	slli	s3,s3,0x10
   13978:	01029293          	slli	t0,t0,0x10
   1397c:	010e5e93          	srli	t4,t3,0x10
   13980:	0109d993          	srli	s3,s3,0x10
   13984:	010a5a13          	srli	s4,s4,0x10
   13988:	0102d293          	srli	t0,t0,0x10
   1398c:	010e1e13          	slli	t3,t3,0x10
   13990:	013e0e33          	add	t3,t3,s3
   13994:	00de8eb3          	add	t4,t4,a3
   13998:	010fd993          	srli	s3,t6,0x10
   1399c:	000a0513          	mv	a0,s4
   139a0:	00028593          	mv	a1,t0
   139a4:	500020ef          	jal	15ea4 <__mulsi3>
   139a8:	00050393          	mv	t2,a0
   139ac:	000a8593          	mv	a1,s5
   139b0:	000a0513          	mv	a0,s4
   139b4:	4f0020ef          	jal	15ea4 <__mulsi3>
   139b8:	00050a13          	mv	s4,a0
   139bc:	00028593          	mv	a1,t0
   139c0:	00098513          	mv	a0,s3
   139c4:	4e0020ef          	jal	15ea4 <__mulsi3>
   139c8:	00050293          	mv	t0,a0
   139cc:	000a8593          	mv	a1,s5
   139d0:	00098513          	mv	a0,s3
   139d4:	4d0020ef          	jal	15ea4 <__mulsi3>
   139d8:	0103d693          	srli	a3,t2,0x10
   139dc:	005a0a33          	add	s4,s4,t0
   139e0:	014686b3          	add	a3,a3,s4
   139e4:	00050613          	mv	a2,a0
   139e8:	0056f663          	bgeu	a3,t0,139f4 <__multf3+0x7b4>
   139ec:	000105b7          	lui	a1,0x10
   139f0:	00b50633          	add	a2,a0,a1
   139f4:	01039393          	slli	t2,t2,0x10
   139f8:	0106d293          	srli	t0,a3,0x10
   139fc:	0103d393          	srli	t2,t2,0x10
   13a00:	01069693          	slli	a3,a3,0x10
   13a04:	00c282b3          	add	t0,t0,a2
   13a08:	00768633          	add	a2,a3,t2
   13a0c:	03c12683          	lw	a3,60(sp)
   13a10:	04012583          	lw	a1,64(sp)
   13a14:	00f687b3          	add	a5,a3,a5
   13a18:	012583b3          	add	t2,a1,s2
   13a1c:	00d7b6b3          	sltu	a3,a5,a3
   13a20:	00d386b3          	add	a3,t2,a3
   13a24:	00e78733          	add	a4,a5,a4
   13a28:	00968533          	add	a0,a3,s1
   13a2c:	00f737b3          	sltu	a5,a4,a5
   13a30:	00f507b3          	add	a5,a0,a5
   13a34:	01c70e33          	add	t3,a4,t3
   13a38:	00b3b5b3          	sltu	a1,t2,a1
   13a3c:	0076b3b3          	sltu	t2,a3,t2
   13a40:	00d536b3          	sltu	a3,a0,a3
   13a44:	00a7b533          	sltu	a0,a5,a0
   13a48:	00a6e6b3          	or	a3,a3,a0
   13a4c:	01d78eb3          	add	t4,a5,t4
   13a50:	0075e5b3          	or	a1,a1,t2
   13a54:	00ee3733          	sltu	a4,t3,a4
   13a58:	00d585b3          	add	a1,a1,a3
   13a5c:	00ee8733          	add	a4,t4,a4
   13a60:	00ce06b3          	add	a3,t3,a2
   13a64:	005702b3          	add	t0,a4,t0
   13a68:	01812483          	lw	s1,24(sp)
   13a6c:	02d12e23          	sw	a3,60(sp)
   13a70:	01c6b6b3          	sltu	a3,a3,t3
   13a74:	00d286b3          	add	a3,t0,a3
   13a78:	00feb7b3          	sltu	a5,t4,a5
   13a7c:	01d73eb3          	sltu	t4,a4,t4
   13a80:	01d7e7b3          	or	a5,a5,t4
   13a84:	04d12023          	sw	a3,64(sp)
   13a88:	00e2b733          	sltu	a4,t0,a4
   13a8c:	0056b6b3          	sltu	a3,a3,t0
   13a90:	00b787b3          	add	a5,a5,a1
   13a94:	00d76733          	or	a4,a4,a3
   13a98:	010fd293          	srli	t0,t6,0x10
   13a9c:	01049e93          	slli	t4,s1,0x10
   13aa0:	010f9f93          	slli	t6,t6,0x10
   13aa4:	00f70733          	add	a4,a4,a5
   13aa8:	010fdf93          	srli	t6,t6,0x10
   13aac:	010ede93          	srli	t4,t4,0x10
   13ab0:	04e12223          	sw	a4,68(sp)
   13ab4:	0104d793          	srli	a5,s1,0x10
   13ab8:	000f8513          	mv	a0,t6
   13abc:	000e8593          	mv	a1,t4
   13ac0:	3e4020ef          	jal	15ea4 <__mulsi3>
   13ac4:	00050713          	mv	a4,a0
   13ac8:	00078593          	mv	a1,a5
   13acc:	000f8513          	mv	a0,t6
   13ad0:	3d4020ef          	jal	15ea4 <__mulsi3>
   13ad4:	00050e13          	mv	t3,a0
   13ad8:	000e8593          	mv	a1,t4
   13adc:	00028513          	mv	a0,t0
   13ae0:	3c4020ef          	jal	15ea4 <__mulsi3>
   13ae4:	00050e93          	mv	t4,a0
   13ae8:	00078593          	mv	a1,a5
   13aec:	00028513          	mv	a0,t0
   13af0:	3b4020ef          	jal	15ea4 <__mulsi3>
   13af4:	01075793          	srli	a5,a4,0x10
   13af8:	01de0e33          	add	t3,t3,t4
   13afc:	01c787b3          	add	a5,a5,t3
   13b00:	00050693          	mv	a3,a0
   13b04:	01d7f663          	bgeu	a5,t4,13b10 <__multf3+0x8d0>
   13b08:	00010637          	lui	a2,0x10
   13b0c:	00c506b3          	add	a3,a0,a2
   13b10:	00412e03          	lw	t3,4(sp)
   13b14:	01031f93          	slli	t6,t1,0x10
   13b18:	01071713          	slli	a4,a4,0x10
   13b1c:	010e5293          	srli	t0,t3,0x10
   13b20:	010e1e13          	slli	t3,t3,0x10
   13b24:	0107d393          	srli	t2,a5,0x10
   13b28:	01075713          	srli	a4,a4,0x10
   13b2c:	010e5e13          	srli	t3,t3,0x10
   13b30:	010fdf93          	srli	t6,t6,0x10
   13b34:	01079793          	slli	a5,a5,0x10
   13b38:	00d383b3          	add	t2,t2,a3
   13b3c:	00e787b3          	add	a5,a5,a4
   13b40:	01035e93          	srli	t4,t1,0x10
   13b44:	000e0513          	mv	a0,t3
   13b48:	000f8593          	mv	a1,t6
   13b4c:	358020ef          	jal	15ea4 <__mulsi3>
   13b50:	00050713          	mv	a4,a0
   13b54:	000e8593          	mv	a1,t4
   13b58:	000e0513          	mv	a0,t3
   13b5c:	000e8e13          	mv	t3,t4
   13b60:	344020ef          	jal	15ea4 <__mulsi3>
   13b64:	00050e93          	mv	t4,a0
   13b68:	000f8593          	mv	a1,t6
   13b6c:	00028513          	mv	a0,t0
   13b70:	334020ef          	jal	15ea4 <__mulsi3>
   13b74:	00050f93          	mv	t6,a0
   13b78:	000e0593          	mv	a1,t3
   13b7c:	00028513          	mv	a0,t0
   13b80:	324020ef          	jal	15ea4 <__mulsi3>
   13b84:	01075e13          	srli	t3,a4,0x10
   13b88:	01fe8eb3          	add	t4,t4,t6
   13b8c:	01de0e33          	add	t3,t3,t4
   13b90:	00050693          	mv	a3,a0
   13b94:	01fe7663          	bgeu	t3,t6,13ba0 <__multf3+0x960>
   13b98:	00010637          	lui	a2,0x10
   13b9c:	00c506b3          	add	a3,a0,a2
   13ba0:	01071713          	slli	a4,a4,0x10
   13ba4:	010e5293          	srli	t0,t3,0x10
   13ba8:	01075713          	srli	a4,a4,0x10
   13bac:	010e1e13          	slli	t3,t3,0x10
   13bb0:	00ee0e33          	add	t3,t3,a4
   13bb4:	01412703          	lw	a4,20(sp)
   13bb8:	010f1f93          	slli	t6,t5,0x10
   13bbc:	010fdf93          	srli	t6,t6,0x10
   13bc0:	01075a13          	srli	s4,a4,0x10
   13bc4:	01071713          	slli	a4,a4,0x10
   13bc8:	01075713          	srli	a4,a4,0x10
   13bcc:	00d282b3          	add	t0,t0,a3
   13bd0:	010f5993          	srli	s3,t5,0x10
   13bd4:	000f8513          	mv	a0,t6
   13bd8:	00070593          	mv	a1,a4
   13bdc:	2c8020ef          	jal	15ea4 <__mulsi3>
   13be0:	00050e93          	mv	t4,a0
   13be4:	000a0593          	mv	a1,s4
   13be8:	000f8513          	mv	a0,t6
   13bec:	2b8020ef          	jal	15ea4 <__mulsi3>
   13bf0:	00050f93          	mv	t6,a0
   13bf4:	00070593          	mv	a1,a4
   13bf8:	00098513          	mv	a0,s3
   13bfc:	2a8020ef          	jal	15ea4 <__mulsi3>
   13c00:	00050913          	mv	s2,a0
   13c04:	000a0593          	mv	a1,s4
   13c08:	00098513          	mv	a0,s3
   13c0c:	298020ef          	jal	15ea4 <__mulsi3>
   13c10:	010ed713          	srli	a4,t4,0x10
   13c14:	012f8fb3          	add	t6,t6,s2
   13c18:	01f70733          	add	a4,a4,t6
   13c1c:	00050693          	mv	a3,a0
   13c20:	01277663          	bgeu	a4,s2,13c2c <__multf3+0x9ec>
   13c24:	00010637          	lui	a2,0x10
   13c28:	00c506b3          	add	a3,a0,a2
   13c2c:	010e9e93          	slli	t4,t4,0x10
   13c30:	01075f93          	srli	t6,a4,0x10
   13c34:	010ede93          	srli	t4,t4,0x10
   13c38:	01071713          	slli	a4,a4,0x10
   13c3c:	01d70733          	add	a4,a4,t4
   13c40:	00812e83          	lw	t4,8(sp)
   13c44:	01035a13          	srli	s4,t1,0x10
   13c48:	01031313          	slli	t1,t1,0x10
   13c4c:	010eda93          	srli	s5,t4,0x10
   13c50:	010e9e93          	slli	t4,t4,0x10
   13c54:	010ede93          	srli	t4,t4,0x10
   13c58:	01035313          	srli	t1,t1,0x10
   13c5c:	00df8fb3          	add	t6,t6,a3
   13c60:	000e8513          	mv	a0,t4
   13c64:	00030593          	mv	a1,t1
   13c68:	23c020ef          	jal	15ea4 <__mulsi3>
   13c6c:	00050913          	mv	s2,a0
   13c70:	000a0593          	mv	a1,s4
   13c74:	000e8513          	mv	a0,t4
   13c78:	22c020ef          	jal	15ea4 <__mulsi3>
   13c7c:	00050e93          	mv	t4,a0
   13c80:	00030593          	mv	a1,t1
   13c84:	000a8513          	mv	a0,s5
   13c88:	21c020ef          	jal	15ea4 <__mulsi3>
   13c8c:	00050993          	mv	s3,a0
   13c90:	000a0593          	mv	a1,s4
   13c94:	000a8513          	mv	a0,s5
   13c98:	20c020ef          	jal	15ea4 <__mulsi3>
   13c9c:	013e8333          	add	t1,t4,s3
   13ca0:	01095693          	srli	a3,s2,0x10
   13ca4:	00d30333          	add	t1,t1,a3
   13ca8:	01337663          	bgeu	t1,s3,13cb4 <__multf3+0xa74>
   13cac:	000106b7          	lui	a3,0x10
   13cb0:	00d50533          	add	a0,a0,a3
   13cb4:	010f5a13          	srli	s4,t5,0x10
   13cb8:	0104d993          	srli	s3,s1,0x10
   13cbc:	01091913          	slli	s2,s2,0x10
   13cc0:	010f1f13          	slli	t5,t5,0x10
   13cc4:	01049493          	slli	s1,s1,0x10
   13cc8:	01035e93          	srli	t4,t1,0x10
   13ccc:	01095913          	srli	s2,s2,0x10
   13cd0:	010f5f13          	srli	t5,t5,0x10
   13cd4:	0104d493          	srli	s1,s1,0x10
   13cd8:	01031313          	slli	t1,t1,0x10
   13cdc:	00ae8eb3          	add	t4,t4,a0
   13ce0:	01230333          	add	t1,t1,s2
   13ce4:	000f0513          	mv	a0,t5
   13ce8:	00048593          	mv	a1,s1
   13cec:	1b8020ef          	jal	15ea4 <__mulsi3>
   13cf0:	00050913          	mv	s2,a0
   13cf4:	00098593          	mv	a1,s3
   13cf8:	000f0513          	mv	a0,t5
   13cfc:	1a8020ef          	jal	15ea4 <__mulsi3>
   13d00:	00050f13          	mv	t5,a0
   13d04:	00048593          	mv	a1,s1
   13d08:	000a0513          	mv	a0,s4
   13d0c:	198020ef          	jal	15ea4 <__mulsi3>
   13d10:	00050493          	mv	s1,a0
   13d14:	00098593          	mv	a1,s3
   13d18:	000a0513          	mv	a0,s4
   13d1c:	188020ef          	jal	15ea4 <__mulsi3>
   13d20:	009f06b3          	add	a3,t5,s1
   13d24:	01095613          	srli	a2,s2,0x10
   13d28:	00c686b3          	add	a3,a3,a2
   13d2c:	0096f663          	bgeu	a3,s1,13d38 <__multf3+0xaf8>
   13d30:	00010637          	lui	a2,0x10
   13d34:	00c50533          	add	a0,a0,a2
   13d38:	01091913          	slli	s2,s2,0x10
   13d3c:	0106d613          	srli	a2,a3,0x10
   13d40:	01095913          	srli	s2,s2,0x10
   13d44:	01069693          	slli	a3,a3,0x10
   13d48:	012685b3          	add	a1,a3,s2
   13d4c:	04012683          	lw	a3,64(sp)
   13d50:	00a60633          	add	a2,a2,a0
   13d54:	04412503          	lw	a0,68(sp)
   13d58:	00f687b3          	add	a5,a3,a5
   13d5c:	00d7b6b3          	sltu	a3,a5,a3
   13d60:	007503b3          	add	t2,a0,t2
   13d64:	01c78e33          	add	t3,a5,t3
   13d68:	00d386b3          	add	a3,t2,a3
   13d6c:	005682b3          	add	t0,a3,t0
   13d70:	00fe37b3          	sltu	a5,t3,a5
   13d74:	00f287b3          	add	a5,t0,a5
   13d78:	00ee0733          	add	a4,t3,a4
   13d7c:	01f78fb3          	add	t6,a5,t6
   13d80:	04e12023          	sw	a4,64(sp)
   13d84:	01c73733          	sltu	a4,a4,t3
   13d88:	00ef8733          	add	a4,t6,a4
   13d8c:	00a3b533          	sltu	a0,t2,a0
   13d90:	0076b3b3          	sltu	t2,a3,t2
   13d94:	00d2b6b3          	sltu	a3,t0,a3
   13d98:	0057b2b3          	sltu	t0,a5,t0
   13d9c:	0056e6b3          	or	a3,a3,t0
   13da0:	00756533          	or	a0,a0,t2
   13da4:	00ffb7b3          	sltu	a5,t6,a5
   13da8:	01f73fb3          	sltu	t6,a4,t6
   13dac:	00d50533          	add	a0,a0,a3
   13db0:	01f7e7b3          	or	a5,a5,t6
   13db4:	00670333          	add	t1,a4,t1
   13db8:	00a787b3          	add	a5,a5,a0
   13dbc:	01d78eb3          	add	t4,a5,t4
   13dc0:	00e33733          	sltu	a4,t1,a4
   13dc4:	00b306b3          	add	a3,t1,a1
   13dc8:	00ee8733          	add	a4,t4,a4
   13dcc:	00c70633          	add	a2,a4,a2
   13dd0:	04d12223          	sw	a3,68(sp)
   13dd4:	0066b6b3          	sltu	a3,a3,t1
   13dd8:	00d606b3          	add	a3,a2,a3
   13ddc:	04d12423          	sw	a3,72(sp)
   13de0:	00feb7b3          	sltu	a5,t4,a5
   13de4:	00c6b6b3          	sltu	a3,a3,a2
   13de8:	01d73eb3          	sltu	t4,a4,t4
   13dec:	00e63733          	sltu	a4,a2,a4
   13df0:	00d76733          	or	a4,a4,a3
   13df4:	01d7e7b3          	or	a5,a5,t4
   13df8:	00e787b3          	add	a5,a5,a4
   13dfc:	04f12623          	sw	a5,76(sp)
   13e00:	00c12703          	lw	a4,12(sp)
   13e04:	01c12783          	lw	a5,28(sp)
   13e08:	01075f13          	srli	t5,a4,0x10
   13e0c:	0107de93          	srli	t4,a5,0x10
   13e10:	01071713          	slli	a4,a4,0x10
   13e14:	01079793          	slli	a5,a5,0x10
   13e18:	01075713          	srli	a4,a4,0x10
   13e1c:	0107d793          	srli	a5,a5,0x10
   13e20:	00070513          	mv	a0,a4
   13e24:	00078593          	mv	a1,a5
   13e28:	07c020ef          	jal	15ea4 <__mulsi3>
   13e2c:	00050313          	mv	t1,a0
   13e30:	000e8593          	mv	a1,t4
   13e34:	00070513          	mv	a0,a4
   13e38:	06c020ef          	jal	15ea4 <__mulsi3>
   13e3c:	00050713          	mv	a4,a0
   13e40:	00078593          	mv	a1,a5
   13e44:	000f0513          	mv	a0,t5
   13e48:	05c020ef          	jal	15ea4 <__mulsi3>
   13e4c:	00050e13          	mv	t3,a0
   13e50:	000e8593          	mv	a1,t4
   13e54:	000f0513          	mv	a0,t5
   13e58:	04c020ef          	jal	15ea4 <__mulsi3>
   13e5c:	01035793          	srli	a5,t1,0x10
   13e60:	01c70733          	add	a4,a4,t3
   13e64:	00e787b3          	add	a5,a5,a4
   13e68:	00050693          	mv	a3,a0
   13e6c:	01c7f663          	bgeu	a5,t3,13e78 <__multf3+0xc38>
   13e70:	00010737          	lui	a4,0x10
   13e74:	00e506b3          	add	a3,a0,a4
   13e78:	04812603          	lw	a2,72(sp)
   13e7c:	01031313          	slli	t1,t1,0x10
   13e80:	04c12583          	lw	a1,76(sp)
   13e84:	01079713          	slli	a4,a5,0x10
   13e88:	01035313          	srli	t1,t1,0x10
   13e8c:	00670733          	add	a4,a4,t1
   13e90:	00e60733          	add	a4,a2,a4
   13e94:	0107d793          	srli	a5,a5,0x10
   13e98:	00b787b3          	add	a5,a5,a1
   13e9c:	00c73633          	sltu	a2,a4,a2
   13ea0:	00c787b3          	add	a5,a5,a2
   13ea4:	00d78533          	add	a0,a5,a3
   13ea8:	04e12423          	sw	a4,72(sp)
   13eac:	03412783          	lw	a5,52(sp)
   13eb0:	03012703          	lw	a4,48(sp)
   13eb4:	04a12623          	sw	a0,76(sp)
   13eb8:	04010593          	addi	a1,sp,64
   13ebc:	00f76733          	or	a4,a4,a5
   13ec0:	03812783          	lw	a5,56(sp)
   13ec4:	00f76733          	or	a4,a4,a5
   13ec8:	03c12783          	lw	a5,60(sp)
   13ecc:	00d79793          	slli	a5,a5,0xd
   13ed0:	00e7e7b3          	or	a5,a5,a4
   13ed4:	03010713          	addi	a4,sp,48
   13ed8:	00c72683          	lw	a3,12(a4) # 1000c <_start+0xc>
   13edc:	01072603          	lw	a2,16(a4)
   13ee0:	00470713          	addi	a4,a4,4
   13ee4:	0136d693          	srli	a3,a3,0x13
   13ee8:	00d61613          	slli	a2,a2,0xd
   13eec:	00c6e6b3          	or	a3,a3,a2
   13ef0:	fed72e23          	sw	a3,-4(a4)
   13ef4:	fee592e3          	bne	a1,a4,13ed8 <__multf3+0xc98>
   13ef8:	03012703          	lw	a4,48(sp)
   13efc:	00f037b3          	snez	a5,a5
   13f00:	03c12683          	lw	a3,60(sp)
   13f04:	00e7e7b3          	or	a5,a5,a4
   13f08:	03812703          	lw	a4,56(sp)
   13f0c:	02d12623          	sw	a3,44(sp)
   13f10:	02f12023          	sw	a5,32(sp)
   13f14:	02e12423          	sw	a4,40(sp)
   13f18:	03412703          	lw	a4,52(sp)
   13f1c:	02e12223          	sw	a4,36(sp)
   13f20:	00b69713          	slli	a4,a3,0xb
   13f24:	4c075863          	bgez	a4,143f4 <__multf3+0x11b4>
   13f28:	01f79793          	slli	a5,a5,0x1f
   13f2c:	02010713          	addi	a4,sp,32
   13f30:	02c10513          	addi	a0,sp,44
   13f34:	00072603          	lw	a2,0(a4)
   13f38:	00472583          	lw	a1,4(a4)
   13f3c:	00470713          	addi	a4,a4,4
   13f40:	00165613          	srli	a2,a2,0x1
   13f44:	01f59593          	slli	a1,a1,0x1f
   13f48:	00b66633          	or	a2,a2,a1
   13f4c:	fec72e23          	sw	a2,-4(a4)
   13f50:	fee512e3          	bne	a0,a4,13f34 <__multf3+0xcf4>
   13f54:	02012703          	lw	a4,32(sp)
   13f58:	01f7d793          	srli	a5,a5,0x1f
   13f5c:	0016d693          	srli	a3,a3,0x1
   13f60:	00f767b3          	or	a5,a4,a5
   13f64:	02d12623          	sw	a3,44(sp)
   13f68:	02f12023          	sw	a5,32(sp)
   13f6c:	000047b7          	lui	a5,0x4
   13f70:	fff78793          	addi	a5,a5,-1 # 3fff <_start-0xc001>
   13f74:	00fd07b3          	add	a5,s10,a5
   13f78:	48f05263          	blez	a5,143fc <__multf3+0x11bc>
   13f7c:	02012703          	lw	a4,32(sp)
   13f80:	00777693          	andi	a3,a4,7
   13f84:	04068463          	beqz	a3,13fcc <__multf3+0xd8c>
   13f88:	00f77693          	andi	a3,a4,15
   13f8c:	00400613          	li	a2,4
   13f90:	02c68e63          	beq	a3,a2,13fcc <__multf3+0xd8c>
   13f94:	00c70733          	add	a4,a4,a2
   13f98:	00473693          	sltiu	a3,a4,4
   13f9c:	02e12023          	sw	a4,32(sp)
   13fa0:	02412703          	lw	a4,36(sp)
   13fa4:	00e68733          	add	a4,a3,a4
   13fa8:	02e12223          	sw	a4,36(sp)
   13fac:	00d73733          	sltu	a4,a4,a3
   13fb0:	02812683          	lw	a3,40(sp)
   13fb4:	00e68733          	add	a4,a3,a4
   13fb8:	02e12423          	sw	a4,40(sp)
   13fbc:	00d73733          	sltu	a4,a4,a3
   13fc0:	02c12683          	lw	a3,44(sp)
   13fc4:	00d70733          	add	a4,a4,a3
   13fc8:	02e12623          	sw	a4,44(sp)
   13fcc:	02c12703          	lw	a4,44(sp)
   13fd0:	00b71693          	slli	a3,a4,0xb
   13fd4:	0006de63          	bgez	a3,13ff0 <__multf3+0xdb0>
   13fd8:	fff007b7          	lui	a5,0xfff00
   13fdc:	fff78793          	addi	a5,a5,-1 # ffefffff <__global_pointer$+0xffedd147>
   13fe0:	00f77733          	and	a4,a4,a5
   13fe4:	000047b7          	lui	a5,0x4
   13fe8:	02e12623          	sw	a4,44(sp)
   13fec:	00fd07b3          	add	a5,s10,a5
   13ff0:	02010693          	addi	a3,sp,32
   13ff4:	02c10513          	addi	a0,sp,44
   13ff8:	0006a603          	lw	a2,0(a3) # 10000 <_start>
   13ffc:	0046a583          	lw	a1,4(a3)
   14000:	00468693          	addi	a3,a3,4
   14004:	00365613          	srli	a2,a2,0x3
   14008:	01d59593          	slli	a1,a1,0x1d
   1400c:	00b66633          	or	a2,a2,a1
   14010:	fec6ae23          	sw	a2,-4(a3)
   14014:	fed512e3          	bne	a0,a3,13ff8 <__multf3+0xdb8>
   14018:	000086b7          	lui	a3,0x8
   1401c:	ffe68693          	addi	a3,a3,-2 # 7ffe <_start-0x8002>
   14020:	5af6c863          	blt	a3,a5,145d0 <__multf3+0x1390>
   14024:	00375713          	srli	a4,a4,0x3
   14028:	02e12623          	sw	a4,44(sp)
   1402c:	00f89893          	slli	a7,a7,0xf
   14030:	00f8e8b3          	or	a7,a7,a5
   14034:	02012783          	lw	a5,32(sp)
   14038:	02c12703          	lw	a4,44(sp)
   1403c:	03111f23          	sh	a7,62(sp)
   14040:	00f42023          	sw	a5,0(s0) # 80000 <__global_pointer$+0x5d148>
   14044:	02412783          	lw	a5,36(sp)
   14048:	02e11e23          	sh	a4,60(sp)
   1404c:	08c12083          	lw	ra,140(sp)
   14050:	00f42223          	sw	a5,4(s0)
   14054:	02812783          	lw	a5,40(sp)
   14058:	00040513          	mv	a0,s0
   1405c:	08412483          	lw	s1,132(sp)
   14060:	00f42423          	sw	a5,8(s0)
   14064:	03c12783          	lw	a5,60(sp)
   14068:	08012903          	lw	s2,128(sp)
   1406c:	07c12983          	lw	s3,124(sp)
   14070:	00f42623          	sw	a5,12(s0)
   14074:	08812403          	lw	s0,136(sp)
   14078:	07812a03          	lw	s4,120(sp)
   1407c:	07412a83          	lw	s5,116(sp)
   14080:	07012b03          	lw	s6,112(sp)
   14084:	06c12b83          	lw	s7,108(sp)
   14088:	06812c03          	lw	s8,104(sp)
   1408c:	06412c83          	lw	s9,100(sp)
   14090:	06012d03          	lw	s10,96(sp)
   14094:	05c12d83          	lw	s11,92(sp)
   14098:	09010113          	addi	sp,sp,144
   1409c:	00008067          	ret
   140a0:	00a7e633          	or	a2,a5,a0
   140a4:	00d66633          	or	a2,a2,a3
   140a8:	00e66633          	or	a2,a2,a4
   140ac:	12060663          	beqz	a2,141d8 <__multf3+0xf98>
   140b0:	06070263          	beqz	a4,14114 <__multf3+0xed4>
   140b4:	00070513          	mv	a0,a4
   140b8:	6c5010ef          	jal	15f7c <__clzsi2>
   140bc:	ff450613          	addi	a2,a0,-12
   140c0:	40565693          	srai	a3,a2,0x5
   140c4:	01f67613          	andi	a2,a2,31
   140c8:	40d007b3          	neg	a5,a3
   140cc:	06060e63          	beqz	a2,14148 <__multf3+0xf08>
   140d0:	00279793          	slli	a5,a5,0x2
   140d4:	00c78713          	addi	a4,a5,12 # 400c <_start-0xbff4>
   140d8:	02000893          	li	a7,32
   140dc:	40c888b3          	sub	a7,a7,a2
   140e0:	00010593          	mv	a1,sp
   140e4:	00e10733          	add	a4,sp,a4
   140e8:	40f007b3          	neg	a5,a5
   140ec:	08e59463          	bne	a1,a4,14174 <__multf3+0xf34>
   140f0:	00012703          	lw	a4,0(sp)
   140f4:	fff68793          	addi	a5,a3,-1
   140f8:	00269693          	slli	a3,a3,0x2
   140fc:	00d585b3          	add	a1,a1,a3
   14100:	00c71733          	sll	a4,a4,a2
   14104:	00e5a023          	sw	a4,0(a1) # 10000 <_start>
   14108:	fff00693          	li	a3,-1
   1410c:	00010613          	mv	a2,sp
   14110:	0980006f          	j	141a8 <__multf3+0xf68>
   14114:	00068a63          	beqz	a3,14128 <__multf3+0xee8>
   14118:	00068513          	mv	a0,a3
   1411c:	661010ef          	jal	15f7c <__clzsi2>
   14120:	02050513          	addi	a0,a0,32
   14124:	f99ff06f          	j	140bc <__multf3+0xe7c>
   14128:	00078a63          	beqz	a5,1413c <__multf3+0xefc>
   1412c:	00078513          	mv	a0,a5
   14130:	64d010ef          	jal	15f7c <__clzsi2>
   14134:	04050513          	addi	a0,a0,64
   14138:	f85ff06f          	j	140bc <__multf3+0xe7c>
   1413c:	641010ef          	jal	15f7c <__clzsi2>
   14140:	06050513          	addi	a0,a0,96
   14144:	f79ff06f          	j	140bc <__multf3+0xe7c>
   14148:	00c10713          	addi	a4,sp,12
   1414c:	00279793          	slli	a5,a5,0x2
   14150:	00300613          	li	a2,3
   14154:	00f705b3          	add	a1,a4,a5
   14158:	0005a583          	lw	a1,0(a1)
   1415c:	fff60613          	addi	a2,a2,-1 # ffff <_start-0x1>
   14160:	ffc70713          	addi	a4,a4,-4
   14164:	00b72223          	sw	a1,4(a4)
   14168:	fed656e3          	bge	a2,a3,14154 <__multf3+0xf14>
   1416c:	fff68793          	addi	a5,a3,-1
   14170:	f99ff06f          	j	14108 <__multf3+0xec8>
   14174:	00072803          	lw	a6,0(a4)
   14178:	ffc72303          	lw	t1,-4(a4)
   1417c:	00f70e33          	add	t3,a4,a5
   14180:	00c81833          	sll	a6,a6,a2
   14184:	01135333          	srl	t1,t1,a7
   14188:	00686833          	or	a6,a6,t1
   1418c:	010e2023          	sw	a6,0(t3)
   14190:	ffc70713          	addi	a4,a4,-4
   14194:	f59ff06f          	j	140ec <__multf3+0xeac>
   14198:	00279713          	slli	a4,a5,0x2
   1419c:	00e60733          	add	a4,a2,a4
   141a0:	00072023          	sw	zero,0(a4)
   141a4:	fff78793          	addi	a5,a5,-1
   141a8:	fed798e3          	bne	a5,a3,14198 <__multf3+0xf58>
   141ac:	ffffc4b7          	lui	s1,0xffffc
   141b0:	01148493          	addi	s1,s1,17 # ffffc011 <__global_pointer$+0xfffd9159>
   141b4:	40a484b3          	sub	s1,s1,a0
   141b8:	970ff06f          	j	13328 <__multf3+0xe8>
   141bc:	00a7e7b3          	or	a5,a5,a0
   141c0:	00d7e7b3          	or	a5,a5,a3
   141c4:	00e7e7b3          	or	a5,a5,a4
   141c8:	00200993          	li	s3,2
   141cc:	96078063          	beqz	a5,1332c <__multf3+0xec>
   141d0:	00300993          	li	s3,3
   141d4:	958ff06f          	j	1332c <__multf3+0xec>
   141d8:	00000493          	li	s1,0
   141dc:	00100993          	li	s3,1
   141e0:	94cff06f          	j	1332c <__multf3+0xec>
   141e4:	017ae7b3          	or	a5,s5,s7
   141e8:	0167e7b3          	or	a5,a5,s6
   141ec:	00a7e7b3          	or	a5,a5,a0
   141f0:	12078863          	beqz	a5,14320 <__multf3+0x10e0>
   141f4:	06050063          	beqz	a0,14254 <__multf3+0x1014>
   141f8:	585010ef          	jal	15f7c <__clzsi2>
   141fc:	ff450613          	addi	a2,a0,-12
   14200:	40565693          	srai	a3,a2,0x5
   14204:	01f67613          	andi	a2,a2,31
   14208:	40d007b3          	neg	a5,a3
   1420c:	08060063          	beqz	a2,1428c <__multf3+0x104c>
   14210:	00279793          	slli	a5,a5,0x2
   14214:	00c78713          	addi	a4,a5,12
   14218:	02000893          	li	a7,32
   1421c:	01010593          	addi	a1,sp,16
   14220:	40c888b3          	sub	a7,a7,a2
   14224:	00e58733          	add	a4,a1,a4
   14228:	40f007b3          	neg	a5,a5
   1422c:	08e59663          	bne	a1,a4,142b8 <__multf3+0x1078>
   14230:	01012703          	lw	a4,16(sp)
   14234:	fff68793          	addi	a5,a3,-1
   14238:	00269693          	slli	a3,a3,0x2
   1423c:	00d585b3          	add	a1,a1,a3
   14240:	00c71733          	sll	a4,a4,a2
   14244:	00e5a023          	sw	a4,0(a1)
   14248:	fff00693          	li	a3,-1
   1424c:	01010613          	addi	a2,sp,16
   14250:	09c0006f          	j	142ec <__multf3+0x10ac>
   14254:	000b0a63          	beqz	s6,14268 <__multf3+0x1028>
   14258:	000b0513          	mv	a0,s6
   1425c:	521010ef          	jal	15f7c <__clzsi2>
   14260:	02050513          	addi	a0,a0,32
   14264:	f99ff06f          	j	141fc <__multf3+0xfbc>
   14268:	000a8a63          	beqz	s5,1427c <__multf3+0x103c>
   1426c:	000a8513          	mv	a0,s5
   14270:	50d010ef          	jal	15f7c <__clzsi2>
   14274:	04050513          	addi	a0,a0,64
   14278:	f85ff06f          	j	141fc <__multf3+0xfbc>
   1427c:	000b8513          	mv	a0,s7
   14280:	4fd010ef          	jal	15f7c <__clzsi2>
   14284:	06050513          	addi	a0,a0,96
   14288:	f75ff06f          	j	141fc <__multf3+0xfbc>
   1428c:	01c10713          	addi	a4,sp,28
   14290:	00279793          	slli	a5,a5,0x2
   14294:	00300613          	li	a2,3
   14298:	00f705b3          	add	a1,a4,a5
   1429c:	0005a583          	lw	a1,0(a1)
   142a0:	fff60613          	addi	a2,a2,-1
   142a4:	ffc70713          	addi	a4,a4,-4
   142a8:	00b72223          	sw	a1,4(a4)
   142ac:	fed656e3          	bge	a2,a3,14298 <__multf3+0x1058>
   142b0:	fff68793          	addi	a5,a3,-1
   142b4:	f95ff06f          	j	14248 <__multf3+0x1008>
   142b8:	00072803          	lw	a6,0(a4)
   142bc:	ffc72303          	lw	t1,-4(a4)
   142c0:	00f70e33          	add	t3,a4,a5
   142c4:	00c81833          	sll	a6,a6,a2
   142c8:	01135333          	srl	t1,t1,a7
   142cc:	00686833          	or	a6,a6,t1
   142d0:	010e2023          	sw	a6,0(t3)
   142d4:	ffc70713          	addi	a4,a4,-4
   142d8:	f55ff06f          	j	1422c <__multf3+0xfec>
   142dc:	00279713          	slli	a4,a5,0x2
   142e0:	00e60733          	add	a4,a2,a4
   142e4:	00072023          	sw	zero,0(a4)
   142e8:	fff78793          	addi	a5,a5,-1
   142ec:	fed798e3          	bne	a5,a3,142dc <__multf3+0x109c>
   142f0:	ffffc837          	lui	a6,0xffffc
   142f4:	01180813          	addi	a6,a6,17 # ffffc011 <__global_pointer$+0xfffd9159>
   142f8:	40a80833          	sub	a6,a6,a0
   142fc:	8c0ff06f          	j	133bc <__multf3+0x17c>
   14300:	017aeab3          	or	s5,s5,s7
   14304:	016aeab3          	or	s5,s5,s6
   14308:	00aaeab3          	or	s5,s5,a0
   1430c:	00200713          	li	a4,2
   14310:	000a9463          	bnez	s5,14318 <__multf3+0x10d8>
   14314:	8acff06f          	j	133c0 <__multf3+0x180>
   14318:	00300713          	li	a4,3
   1431c:	8a4ff06f          	j	133c0 <__multf3+0x180>
   14320:	00000813          	li	a6,0
   14324:	00100713          	li	a4,1
   14328:	898ff06f          	j	133c0 <__multf3+0x180>
   1432c:	00f697b3          	sll	a5,a3,a5
   14330:	5307f693          	andi	a3,a5,1328
   14334:	06069863          	bnez	a3,143a4 <__multf3+0x1164>
   14338:	0887f693          	andi	a3,a5,136
   1433c:	04069263          	bnez	a3,14380 <__multf3+0x1140>
   14340:	2407f793          	andi	a5,a5,576
   14344:	00079463          	bnez	a5,1434c <__multf3+0x110c>
   14348:	8b4ff06f          	j	133fc <__multf3+0x1bc>
   1434c:	000087b7          	lui	a5,0x8
   14350:	02f12623          	sw	a5,44(sp)
   14354:	02012423          	sw	zero,40(sp)
   14358:	02012223          	sw	zero,36(sp)
   1435c:	02012023          	sw	zero,32(sp)
   14360:	fff78793          	addi	a5,a5,-1 # 7fff <_start-0x8001>
   14364:	00000893          	li	a7,0
   14368:	cc5ff06f          	j	1402c <__multf3+0xdec>
   1436c:	00f00693          	li	a3,15
   14370:	fcd78ee3          	beq	a5,a3,1434c <__multf3+0x110c>
   14374:	00b00693          	li	a3,11
   14378:	000a0893          	mv	a7,s4
   1437c:	02d79463          	bne	a5,a3,143a4 <__multf3+0x1164>
   14380:	00090893          	mv	a7,s2
   14384:	01012783          	lw	a5,16(sp)
   14388:	02f12023          	sw	a5,32(sp)
   1438c:	01412783          	lw	a5,20(sp)
   14390:	02f12223          	sw	a5,36(sp)
   14394:	01812783          	lw	a5,24(sp)
   14398:	02f12423          	sw	a5,40(sp)
   1439c:	01c12783          	lw	a5,28(sp)
   143a0:	0240006f          	j	143c4 <__multf3+0x1184>
   143a4:	00012783          	lw	a5,0(sp)
   143a8:	00098713          	mv	a4,s3
   143ac:	02f12023          	sw	a5,32(sp)
   143b0:	00412783          	lw	a5,4(sp)
   143b4:	02f12223          	sw	a5,36(sp)
   143b8:	00812783          	lw	a5,8(sp)
   143bc:	02f12423          	sw	a5,40(sp)
   143c0:	00c12783          	lw	a5,12(sp)
   143c4:	02f12623          	sw	a5,44(sp)
   143c8:	00200793          	li	a5,2
   143cc:	20f70263          	beq	a4,a5,145d0 <__multf3+0x1390>
   143d0:	00300793          	li	a5,3
   143d4:	f6f70ce3          	beq	a4,a5,1434c <__multf3+0x110c>
   143d8:	00100793          	li	a5,1
   143dc:	b8f718e3          	bne	a4,a5,13f6c <__multf3+0xd2c>
   143e0:	02012623          	sw	zero,44(sp)
   143e4:	02012423          	sw	zero,40(sp)
   143e8:	02012223          	sw	zero,36(sp)
   143ec:	02012023          	sw	zero,32(sp)
   143f0:	1b40006f          	j	145a4 <__multf3+0x1364>
   143f4:	00080d13          	mv	s10,a6
   143f8:	b75ff06f          	j	13f6c <__multf3+0xd2c>
   143fc:	00100713          	li	a4,1
   14400:	00078863          	beqz	a5,14410 <__multf3+0x11d0>
   14404:	40f70733          	sub	a4,a4,a5
   14408:	07400793          	li	a5,116
   1440c:	1ae7c063          	blt	a5,a4,145ac <__multf3+0x136c>
   14410:	02010513          	addi	a0,sp,32
   14414:	40575693          	srai	a3,a4,0x5
   14418:	00050593          	mv	a1,a0
   1441c:	01f77713          	andi	a4,a4,31
   14420:	00000793          	li	a5,0
   14424:	00000613          	li	a2,0
   14428:	02d61e63          	bne	a2,a3,14464 <__multf3+0x1224>
   1442c:	00300593          	li	a1,3
   14430:	40d585b3          	sub	a1,a1,a3
   14434:	00269613          	slli	a2,a3,0x2
   14438:	04071063          	bnez	a4,14478 <__multf3+0x1238>
   1443c:	00050813          	mv	a6,a0
   14440:	00c80333          	add	t1,a6,a2
   14444:	00032303          	lw	t1,0(t1) # 100a4 <frame_dummy+0x14>
   14448:	00170713          	addi	a4,a4,1
   1444c:	00480813          	addi	a6,a6,4
   14450:	fe682e23          	sw	t1,-4(a6)
   14454:	fee5d6e3          	bge	a1,a4,14440 <__multf3+0x1200>
   14458:	00400713          	li	a4,4
   1445c:	40d706b3          	sub	a3,a4,a3
   14460:	0580006f          	j	144b8 <__multf3+0x1278>
   14464:	0005a803          	lw	a6,0(a1)
   14468:	00160613          	addi	a2,a2,1
   1446c:	00458593          	addi	a1,a1,4
   14470:	0107e7b3          	or	a5,a5,a6
   14474:	fb5ff06f          	j	14428 <__multf3+0x11e8>
   14478:	00c50633          	add	a2,a0,a2
   1447c:	00062803          	lw	a6,0(a2)
   14480:	02000313          	li	t1,32
   14484:	40e30333          	sub	t1,t1,a4
   14488:	00681833          	sll	a6,a6,t1
   1448c:	0107e7b3          	or	a5,a5,a6
   14490:	00050e93          	mv	t4,a0
   14494:	00000e13          	li	t3,0
   14498:	02be4463          	blt	t3,a1,144c0 <__multf3+0x1280>
   1449c:	00400613          	li	a2,4
   144a0:	40d606b3          	sub	a3,a2,a3
   144a4:	02c12603          	lw	a2,44(sp)
   144a8:	00259593          	slli	a1,a1,0x2
   144ac:	00b505b3          	add	a1,a0,a1
   144b0:	00e65733          	srl	a4,a2,a4
   144b4:	00e5a023          	sw	a4,0(a1)
   144b8:	00400613          	li	a2,4
   144bc:	03c0006f          	j	144f8 <__multf3+0x12b8>
   144c0:	00062803          	lw	a6,0(a2)
   144c4:	00462f03          	lw	t5,4(a2)
   144c8:	00460613          	addi	a2,a2,4
   144cc:	00e85833          	srl	a6,a6,a4
   144d0:	006f1f33          	sll	t5,t5,t1
   144d4:	01e86833          	or	a6,a6,t5
   144d8:	010ea023          	sw	a6,0(t4)
   144dc:	001e0e13          	addi	t3,t3,1
   144e0:	004e8e93          	addi	t4,t4,4
   144e4:	fb5ff06f          	j	14498 <__multf3+0x1258>
   144e8:	00269713          	slli	a4,a3,0x2
   144ec:	00e50733          	add	a4,a0,a4
   144f0:	00072023          	sw	zero,0(a4)
   144f4:	00168693          	addi	a3,a3,1
   144f8:	fec698e3          	bne	a3,a2,144e8 <__multf3+0x12a8>
   144fc:	02012703          	lw	a4,32(sp)
   14500:	00f037b3          	snez	a5,a5
   14504:	00e7e7b3          	or	a5,a5,a4
   14508:	02f12023          	sw	a5,32(sp)
   1450c:	0077f713          	andi	a4,a5,7
   14510:	04070263          	beqz	a4,14554 <__multf3+0x1314>
   14514:	00f7f713          	andi	a4,a5,15
   14518:	02d70e63          	beq	a4,a3,14554 <__multf3+0x1314>
   1451c:	02412703          	lw	a4,36(sp)
   14520:	00478793          	addi	a5,a5,4
   14524:	02f12023          	sw	a5,32(sp)
   14528:	0047b793          	sltiu	a5,a5,4
   1452c:	00f707b3          	add	a5,a4,a5
   14530:	02f12223          	sw	a5,36(sp)
   14534:	00e7b7b3          	sltu	a5,a5,a4
   14538:	02812703          	lw	a4,40(sp)
   1453c:	00f707b3          	add	a5,a4,a5
   14540:	02f12423          	sw	a5,40(sp)
   14544:	00e7b7b3          	sltu	a5,a5,a4
   14548:	02c12703          	lw	a4,44(sp)
   1454c:	00e787b3          	add	a5,a5,a4
   14550:	02f12623          	sw	a5,44(sp)
   14554:	02c12703          	lw	a4,44(sp)
   14558:	00c71793          	slli	a5,a4,0xc
   1455c:	0007de63          	bgez	a5,14578 <__multf3+0x1338>
   14560:	02012623          	sw	zero,44(sp)
   14564:	02012423          	sw	zero,40(sp)
   14568:	02012223          	sw	zero,36(sp)
   1456c:	02012023          	sw	zero,32(sp)
   14570:	00100793          	li	a5,1
   14574:	ab9ff06f          	j	1402c <__multf3+0xdec>
   14578:	00c50613          	addi	a2,a0,12
   1457c:	00052783          	lw	a5,0(a0)
   14580:	00452683          	lw	a3,4(a0)
   14584:	00450513          	addi	a0,a0,4
   14588:	0037d793          	srli	a5,a5,0x3
   1458c:	01d69693          	slli	a3,a3,0x1d
   14590:	00d7e7b3          	or	a5,a5,a3
   14594:	fef52e23          	sw	a5,-4(a0)
   14598:	fea612e3          	bne	a2,a0,1457c <__multf3+0x133c>
   1459c:	00375713          	srli	a4,a4,0x3
   145a0:	02e12623          	sw	a4,44(sp)
   145a4:	00000793          	li	a5,0
   145a8:	a85ff06f          	j	1402c <__multf3+0xdec>
   145ac:	02412703          	lw	a4,36(sp)
   145b0:	02012783          	lw	a5,32(sp)
   145b4:	00e7e7b3          	or	a5,a5,a4
   145b8:	02812703          	lw	a4,40(sp)
   145bc:	00e7e7b3          	or	a5,a5,a4
   145c0:	02c12703          	lw	a4,44(sp)
   145c4:	00e7e7b3          	or	a5,a5,a4
   145c8:	fc078ee3          	beqz	a5,145a4 <__multf3+0x1364>
   145cc:	e15ff06f          	j	143e0 <__multf3+0x11a0>
   145d0:	000087b7          	lui	a5,0x8
   145d4:	02012623          	sw	zero,44(sp)
   145d8:	02012423          	sw	zero,40(sp)
   145dc:	02012223          	sw	zero,36(sp)
   145e0:	02012023          	sw	zero,32(sp)
   145e4:	fff78793          	addi	a5,a5,-1 # 7fff <_start-0x8001>
   145e8:	a45ff06f          	j	1402c <__multf3+0xdec>

000145ec <__subtf3>:
   145ec:	fa010113          	addi	sp,sp,-96
   145f0:	0085a783          	lw	a5,8(a1)
   145f4:	04912a23          	sw	s1,84(sp)
   145f8:	00050493          	mv	s1,a0
   145fc:	00c5a503          	lw	a0,12(a1)
   14600:	0005a703          	lw	a4,0(a1)
   14604:	0045a303          	lw	t1,4(a1)
   14608:	02f12c23          	sw	a5,56(sp)
   1460c:	00f12c23          	sw	a5,24(sp)
   14610:	00062683          	lw	a3,0(a2)
   14614:	01051793          	slli	a5,a0,0x10
   14618:	00462883          	lw	a7,4(a2)
   1461c:	00862583          	lw	a1,8(a2)
   14620:	00c62803          	lw	a6,12(a2)
   14624:	04812c23          	sw	s0,88(sp)
   14628:	02a12e23          	sw	a0,60(sp)
   1462c:	00151413          	slli	s0,a0,0x1
   14630:	0107d793          	srli	a5,a5,0x10
   14634:	01f55513          	srli	a0,a0,0x1f
   14638:	05212823          	sw	s2,80(sp)
   1463c:	04112e23          	sw	ra,92(sp)
   14640:	05312623          	sw	s3,76(sp)
   14644:	05412423          	sw	s4,72(sp)
   14648:	05512223          	sw	s5,68(sp)
   1464c:	02e12823          	sw	a4,48(sp)
   14650:	02612a23          	sw	t1,52(sp)
   14654:	00e12823          	sw	a4,16(sp)
   14658:	00612a23          	sw	t1,20(sp)
   1465c:	00f12e23          	sw	a5,28(sp)
   14660:	01145413          	srli	s0,s0,0x11
   14664:	00050913          	mv	s2,a0
   14668:	01010293          	addi	t0,sp,16
   1466c:	01c10e13          	addi	t3,sp,28
   14670:	000e2783          	lw	a5,0(t3)
   14674:	ffce2603          	lw	a2,-4(t3)
   14678:	ffce0e13          	addi	t3,t3,-4
   1467c:	00379793          	slli	a5,a5,0x3
   14680:	01d65613          	srli	a2,a2,0x1d
   14684:	00c7e7b3          	or	a5,a5,a2
   14688:	00fe2223          	sw	a5,4(t3)
   1468c:	ffc292e3          	bne	t0,t3,14670 <__subtf3+0x84>
   14690:	01081793          	slli	a5,a6,0x10
   14694:	00181313          	slli	t1,a6,0x1
   14698:	00371713          	slli	a4,a4,0x3
   1469c:	0107d793          	srli	a5,a5,0x10
   146a0:	03012e23          	sw	a6,60(sp)
   146a4:	00e12823          	sw	a4,16(sp)
   146a8:	02d12823          	sw	a3,48(sp)
   146ac:	03112a23          	sw	a7,52(sp)
   146b0:	02b12c23          	sw	a1,56(sp)
   146b4:	02d12023          	sw	a3,32(sp)
   146b8:	03112223          	sw	a7,36(sp)
   146bc:	02b12423          	sw	a1,40(sp)
   146c0:	02f12623          	sw	a5,44(sp)
   146c4:	01135313          	srli	t1,t1,0x11
   146c8:	01f85813          	srli	a6,a6,0x1f
   146cc:	02010e93          	addi	t4,sp,32
   146d0:	02c10f13          	addi	t5,sp,44
   146d4:	000f2783          	lw	a5,0(t5)
   146d8:	ffcf2603          	lw	a2,-4(t5)
   146dc:	ffcf0f13          	addi	t5,t5,-4
   146e0:	00379793          	slli	a5,a5,0x3
   146e4:	01d65613          	srli	a2,a2,0x1d
   146e8:	00c7e7b3          	or	a5,a5,a2
   146ec:	00ff2223          	sw	a5,4(t5)
   146f0:	ffee92e3          	bne	t4,t5,146d4 <__subtf3+0xe8>
   146f4:	00369693          	slli	a3,a3,0x3
   146f8:	000087b7          	lui	a5,0x8
   146fc:	02d12023          	sw	a3,32(sp)
   14700:	fff78793          	addi	a5,a5,-1 # 7fff <_start-0x8001>
   14704:	02f31063          	bne	t1,a5,14724 <__subtf3+0x138>
   14708:	02812603          	lw	a2,40(sp)
   1470c:	02412783          	lw	a5,36(sp)
   14710:	00c7e7b3          	or	a5,a5,a2
   14714:	02c12603          	lw	a2,44(sp)
   14718:	00c7e7b3          	or	a5,a5,a2
   1471c:	00d7e7b3          	or	a5,a5,a3
   14720:	00079463          	bnez	a5,14728 <__subtf3+0x13c>
   14724:	00184813          	xori	a6,a6,1
   14728:	406403b3          	sub	t2,s0,t1
   1472c:	04a814e3          	bne	a6,a0,14f74 <__subtf3+0x988>
   14730:	38705263          	blez	t2,14ab4 <__subtf3+0x4c8>
   14734:	01412783          	lw	a5,20(sp)
   14738:	01812603          	lw	a2,24(sp)
   1473c:	01c12883          	lw	a7,28(sp)
   14740:	0a031263          	bnez	t1,147e4 <__subtf3+0x1f8>
   14744:	02412503          	lw	a0,36(sp)
   14748:	02812803          	lw	a6,40(sp)
   1474c:	02c12303          	lw	t1,44(sp)
   14750:	010565b3          	or	a1,a0,a6
   14754:	0065e5b3          	or	a1,a1,t1
   14758:	00d5e5b3          	or	a1,a1,a3
   1475c:	00059e63          	bnez	a1,14778 <__subtf3+0x18c>
   14760:	02e12823          	sw	a4,48(sp)
   14764:	02f12a23          	sw	a5,52(sp)
   14768:	02c12c23          	sw	a2,56(sp)
   1476c:	03112e23          	sw	a7,60(sp)
   14770:	00038413          	mv	s0,t2
   14774:	08c0006f          	j	14800 <__subtf3+0x214>
   14778:	fff38593          	addi	a1,t2,-1
   1477c:	04059863          	bnez	a1,147cc <__subtf3+0x1e0>
   14780:	00d705b3          	add	a1,a4,a3
   14784:	00f507b3          	add	a5,a0,a5
   14788:	00e5b733          	sltu	a4,a1,a4
   1478c:	00e78733          	add	a4,a5,a4
   14790:	00a7b533          	sltu	a0,a5,a0
   14794:	02e12a23          	sw	a4,52(sp)
   14798:	00f73733          	sltu	a4,a4,a5
   1479c:	00c80633          	add	a2,a6,a2
   147a0:	00e56533          	or	a0,a0,a4
   147a4:	00a60533          	add	a0,a2,a0
   147a8:	02a12c23          	sw	a0,56(sp)
   147ac:	010637b3          	sltu	a5,a2,a6
   147b0:	00c53533          	sltu	a0,a0,a2
   147b4:	00a7e7b3          	or	a5,a5,a0
   147b8:	01130333          	add	t1,t1,a7
   147bc:	02b12823          	sw	a1,48(sp)
   147c0:	006787b3          	add	a5,a5,t1
   147c4:	00100413          	li	s0,1
   147c8:	2dc0006f          	j	14aa4 <__subtf3+0x4b8>
   147cc:	000086b7          	lui	a3,0x8
   147d0:	fff68693          	addi	a3,a3,-1 # 7fff <_start-0x8001>
   147d4:	00d38463          	beq	t2,a3,147dc <__subtf3+0x1f0>
   147d8:	1ac0106f          	j	15984 <__subtf3+0x1398>
   147dc:	02e12823          	sw	a4,48(sp)
   147e0:	3800006f          	j	14b60 <__subtf3+0x574>
   147e4:	000086b7          	lui	a3,0x8
   147e8:	fff68693          	addi	a3,a3,-1 # 7fff <_start-0x8001>
   147ec:	14d41e63          	bne	s0,a3,14948 <__subtf3+0x35c>
   147f0:	02e12823          	sw	a4,48(sp)
   147f4:	02f12a23          	sw	a5,52(sp)
   147f8:	02c12c23          	sw	a2,56(sp)
   147fc:	03112e23          	sw	a7,60(sp)
   14800:	03012783          	lw	a5,48(sp)
   14804:	0077f713          	andi	a4,a5,7
   14808:	04070463          	beqz	a4,14850 <__subtf3+0x264>
   1480c:	00f7f713          	andi	a4,a5,15
   14810:	00400693          	li	a3,4
   14814:	02d70e63          	beq	a4,a3,14850 <__subtf3+0x264>
   14818:	03412703          	lw	a4,52(sp)
   1481c:	00d787b3          	add	a5,a5,a3
   14820:	02f12823          	sw	a5,48(sp)
   14824:	0047b793          	sltiu	a5,a5,4
   14828:	00f707b3          	add	a5,a4,a5
   1482c:	02f12a23          	sw	a5,52(sp)
   14830:	00e7b7b3          	sltu	a5,a5,a4
   14834:	03812703          	lw	a4,56(sp)
   14838:	00f707b3          	add	a5,a4,a5
   1483c:	02f12c23          	sw	a5,56(sp)
   14840:	00e7b7b3          	sltu	a5,a5,a4
   14844:	03c12703          	lw	a4,60(sp)
   14848:	00e787b3          	add	a5,a5,a4
   1484c:	02f12e23          	sw	a5,60(sp)
   14850:	03c12783          	lw	a5,60(sp)
   14854:	00c79713          	slli	a4,a5,0xc
   14858:	02075463          	bgez	a4,14880 <__subtf3+0x294>
   1485c:	00008737          	lui	a4,0x8
   14860:	00140413          	addi	s0,s0,1
   14864:	fff70713          	addi	a4,a4,-1 # 7fff <_start-0x8001>
   14868:	00e41463          	bne	s0,a4,14870 <__subtf3+0x284>
   1486c:	1000106f          	j	1596c <__subtf3+0x1380>
   14870:	fff80737          	lui	a4,0xfff80
   14874:	fff70713          	addi	a4,a4,-1 # fff7ffff <__global_pointer$+0xfff5d147>
   14878:	00e7f7b3          	and	a5,a5,a4
   1487c:	02f12e23          	sw	a5,60(sp)
   14880:	03010713          	addi	a4,sp,48
   14884:	03c10593          	addi	a1,sp,60
   14888:	00072683          	lw	a3,0(a4)
   1488c:	00472603          	lw	a2,4(a4)
   14890:	00470713          	addi	a4,a4,4
   14894:	0036d693          	srli	a3,a3,0x3
   14898:	01d61613          	slli	a2,a2,0x1d
   1489c:	00c6e6b3          	or	a3,a3,a2
   148a0:	fed72e23          	sw	a3,-4(a4)
   148a4:	fee592e3          	bne	a1,a4,14888 <__subtf3+0x29c>
   148a8:	000086b7          	lui	a3,0x8
   148ac:	fff68713          	addi	a4,a3,-1 # 7fff <_start-0x8001>
   148b0:	0037d793          	srli	a5,a5,0x3
   148b4:	02e41a63          	bne	s0,a4,148e8 <__subtf3+0x2fc>
   148b8:	03412603          	lw	a2,52(sp)
   148bc:	03012703          	lw	a4,48(sp)
   148c0:	00c76733          	or	a4,a4,a2
   148c4:	03812603          	lw	a2,56(sp)
   148c8:	00c76733          	or	a4,a4,a2
   148cc:	00e7e7b3          	or	a5,a5,a4
   148d0:	00078c63          	beqz	a5,148e8 <__subtf3+0x2fc>
   148d4:	02012c23          	sw	zero,56(sp)
   148d8:	02012a23          	sw	zero,52(sp)
   148dc:	02012823          	sw	zero,48(sp)
   148e0:	00068793          	mv	a5,a3
   148e4:	00000913          	li	s2,0
   148e8:	00f11623          	sh	a5,12(sp)
   148ec:	03012783          	lw	a5,48(sp)
   148f0:	01141413          	slli	s0,s0,0x11
   148f4:	01145413          	srli	s0,s0,0x11
   148f8:	00f4a023          	sw	a5,0(s1)
   148fc:	03412783          	lw	a5,52(sp)
   14900:	00f91913          	slli	s2,s2,0xf
   14904:	00896933          	or	s2,s2,s0
   14908:	00f4a223          	sw	a5,4(s1)
   1490c:	03812783          	lw	a5,56(sp)
   14910:	01211723          	sh	s2,14(sp)
   14914:	05c12083          	lw	ra,92(sp)
   14918:	00f4a423          	sw	a5,8(s1)
   1491c:	00c12783          	lw	a5,12(sp)
   14920:	05812403          	lw	s0,88(sp)
   14924:	05012903          	lw	s2,80(sp)
   14928:	00f4a623          	sw	a5,12(s1)
   1492c:	04c12983          	lw	s3,76(sp)
   14930:	04812a03          	lw	s4,72(sp)
   14934:	04412a83          	lw	s5,68(sp)
   14938:	00048513          	mv	a0,s1
   1493c:	05412483          	lw	s1,84(sp)
   14940:	06010113          	addi	sp,sp,96
   14944:	00008067          	ret
   14948:	02c12683          	lw	a3,44(sp)
   1494c:	000805b7          	lui	a1,0x80
   14950:	00b6e6b3          	or	a3,a3,a1
   14954:	02d12623          	sw	a3,44(sp)
   14958:	07400693          	li	a3,116
   1495c:	0076d463          	bge	a3,t2,14964 <__subtf3+0x378>
   14960:	0300106f          	j	15990 <__subtf3+0x13a4>
   14964:	00038593          	mv	a1,t2
   14968:	4055d513          	srai	a0,a1,0x5
   1496c:	01f5f693          	andi	a3,a1,31
   14970:	000f0313          	mv	t1,t5
   14974:	00000593          	li	a1,0
   14978:	00000813          	li	a6,0
   1497c:	02a81c63          	bne	a6,a0,149b4 <__subtf3+0x3c8>
   14980:	00300313          	li	t1,3
   14984:	40a30333          	sub	t1,t1,a0
   14988:	00251813          	slli	a6,a0,0x2
   1498c:	02069e63          	bnez	a3,149c8 <__subtf3+0x3dc>
   14990:	010f0e33          	add	t3,t5,a6
   14994:	000e2e03          	lw	t3,0(t3)
   14998:	00168693          	addi	a3,a3,1
   1499c:	004f0f13          	addi	t5,t5,4
   149a0:	ffcf2e23          	sw	t3,-4(t5)
   149a4:	fed356e3          	bge	t1,a3,14990 <__subtf3+0x3a4>
   149a8:	00400693          	li	a3,4
   149ac:	40a68533          	sub	a0,a3,a0
   149b0:	0540006f          	j	14a04 <__subtf3+0x418>
   149b4:	00032e03          	lw	t3,0(t1)
   149b8:	00180813          	addi	a6,a6,1
   149bc:	00430313          	addi	t1,t1,4
   149c0:	01c5e5b3          	or	a1,a1,t3
   149c4:	fb9ff06f          	j	1497c <__subtf3+0x390>
   149c8:	010e8833          	add	a6,t4,a6
   149cc:	00082e03          	lw	t3,0(a6)
   149d0:	02000f93          	li	t6,32
   149d4:	40df8fb3          	sub	t6,t6,a3
   149d8:	01fe1e33          	sll	t3,t3,t6
   149dc:	01c5e5b3          	or	a1,a1,t3
   149e0:	00000293          	li	t0,0
   149e4:	0262c463          	blt	t0,t1,14a0c <__subtf3+0x420>
   149e8:	00400813          	li	a6,4
   149ec:	40a80533          	sub	a0,a6,a0
   149f0:	02c12803          	lw	a6,44(sp)
   149f4:	00231313          	slli	t1,t1,0x2
   149f8:	006e8333          	add	t1,t4,t1
   149fc:	00d856b3          	srl	a3,a6,a3
   14a00:	00d32023          	sw	a3,0(t1)
   14a04:	00400813          	li	a6,4
   14a08:	03c0006f          	j	14a44 <__subtf3+0x458>
   14a0c:	00082e03          	lw	t3,0(a6)
   14a10:	00482383          	lw	t2,4(a6)
   14a14:	00480813          	addi	a6,a6,4
   14a18:	00de5e33          	srl	t3,t3,a3
   14a1c:	01f393b3          	sll	t2,t2,t6
   14a20:	007e6e33          	or	t3,t3,t2
   14a24:	01cf2023          	sw	t3,0(t5)
   14a28:	00128293          	addi	t0,t0,1 # 10211 <memset+0xb5>
   14a2c:	004f0f13          	addi	t5,t5,4
   14a30:	fb5ff06f          	j	149e4 <__subtf3+0x3f8>
   14a34:	00251693          	slli	a3,a0,0x2
   14a38:	00de86b3          	add	a3,t4,a3
   14a3c:	0006a023          	sw	zero,0(a3)
   14a40:	00150513          	addi	a0,a0,1
   14a44:	ff0518e3          	bne	a0,a6,14a34 <__subtf3+0x448>
   14a48:	02012683          	lw	a3,32(sp)
   14a4c:	00b035b3          	snez	a1,a1
   14a50:	00d5e5b3          	or	a1,a1,a3
   14a54:	02412503          	lw	a0,36(sp)
   14a58:	00b705b3          	add	a1,a4,a1
   14a5c:	02812683          	lw	a3,40(sp)
   14a60:	00f507b3          	add	a5,a0,a5
   14a64:	00e5b733          	sltu	a4,a1,a4
   14a68:	00e78833          	add	a6,a5,a4
   14a6c:	03012a23          	sw	a6,52(sp)
   14a70:	00a7b733          	sltu	a4,a5,a0
   14a74:	00f83833          	sltu	a6,a6,a5
   14a78:	00c68633          	add	a2,a3,a2
   14a7c:	01076733          	or	a4,a4,a6
   14a80:	00e60733          	add	a4,a2,a4
   14a84:	02e12c23          	sw	a4,56(sp)
   14a88:	00d637b3          	sltu	a5,a2,a3
   14a8c:	00c73733          	sltu	a4,a4,a2
   14a90:	00e7e7b3          	or	a5,a5,a4
   14a94:	02c12703          	lw	a4,44(sp)
   14a98:	02b12823          	sw	a1,48(sp)
   14a9c:	00e88733          	add	a4,a7,a4
   14aa0:	00e787b3          	add	a5,a5,a4
   14aa4:	00c79713          	slli	a4,a5,0xc
   14aa8:	44074a63          	bltz	a4,14efc <__subtf3+0x910>
   14aac:	02f12e23          	sw	a5,60(sp)
   14ab0:	d51ff06f          	j	14800 <__subtf3+0x214>
   14ab4:	02412783          	lw	a5,36(sp)
   14ab8:	02812603          	lw	a2,40(sp)
   14abc:	02c12883          	lw	a7,44(sp)
   14ac0:	26038063          	beqz	t2,14d20 <__subtf3+0x734>
   14ac4:	408305b3          	sub	a1,t1,s0
   14ac8:	0a041863          	bnez	s0,14b78 <__subtf3+0x58c>
   14acc:	01412503          	lw	a0,20(sp)
   14ad0:	01812803          	lw	a6,24(sp)
   14ad4:	01c12f03          	lw	t5,28(sp)
   14ad8:	01056eb3          	or	t4,a0,a6
   14adc:	01eeeeb3          	or	t4,t4,t5
   14ae0:	00eeeeb3          	or	t4,t4,a4
   14ae4:	000e9e63          	bnez	t4,14b00 <__subtf3+0x514>
   14ae8:	02d12823          	sw	a3,48(sp)
   14aec:	02f12a23          	sw	a5,52(sp)
   14af0:	02c12c23          	sw	a2,56(sp)
   14af4:	03112e23          	sw	a7,60(sp)
   14af8:	00058413          	mv	s0,a1
   14afc:	d05ff06f          	j	14800 <__subtf3+0x214>
   14b00:	fff58e93          	addi	t4,a1,-1 # 7ffff <__global_pointer$+0x5d147>
   14b04:	040e9663          	bnez	t4,14b50 <__subtf3+0x564>
   14b08:	00d705b3          	add	a1,a4,a3
   14b0c:	00f507b3          	add	a5,a0,a5
   14b10:	00e5b733          	sltu	a4,a1,a4
   14b14:	00e78733          	add	a4,a5,a4
   14b18:	00a7b533          	sltu	a0,a5,a0
   14b1c:	02e12a23          	sw	a4,52(sp)
   14b20:	00f73733          	sltu	a4,a4,a5
   14b24:	00c80633          	add	a2,a6,a2
   14b28:	00e56533          	or	a0,a0,a4
   14b2c:	00a60533          	add	a0,a2,a0
   14b30:	02a12c23          	sw	a0,56(sp)
   14b34:	010637b3          	sltu	a5,a2,a6
   14b38:	00c53533          	sltu	a0,a0,a2
   14b3c:	00a7e7b3          	or	a5,a5,a0
   14b40:	011f0f33          	add	t5,t5,a7
   14b44:	02b12823          	sw	a1,48(sp)
   14b48:	01e787b3          	add	a5,a5,t5
   14b4c:	c79ff06f          	j	147c4 <__subtf3+0x1d8>
   14b50:	00008737          	lui	a4,0x8
   14b54:	fff70713          	addi	a4,a4,-1 # 7fff <_start-0x8001>
   14b58:	64e596e3          	bne	a1,a4,159a4 <__subtf3+0x13b8>
   14b5c:	02d12823          	sw	a3,48(sp)
   14b60:	02f12a23          	sw	a5,52(sp)
   14b64:	02c12c23          	sw	a2,56(sp)
   14b68:	03112e23          	sw	a7,60(sp)
   14b6c:	28c0006f          	j	14df8 <__subtf3+0x80c>
   14b70:	00070693          	mv	a3,a4
   14b74:	fe9ff06f          	j	14b5c <__subtf3+0x570>
   14b78:	00008737          	lui	a4,0x8
   14b7c:	fff70713          	addi	a4,a4,-1 # 7fff <_start-0x8001>
   14b80:	fce30ee3          	beq	t1,a4,14b5c <__subtf3+0x570>
   14b84:	01c12703          	lw	a4,28(sp)
   14b88:	00080537          	lui	a0,0x80
   14b8c:	00a76733          	or	a4,a4,a0
   14b90:	00e12e23          	sw	a4,28(sp)
   14b94:	07400713          	li	a4,116
   14b98:	60b74ae3          	blt	a4,a1,159ac <__subtf3+0x13c0>
   14b9c:	00058e93          	mv	t4,a1
   14ba0:	41fed713          	srai	a4,t4,0x1f
   14ba4:	01f77713          	andi	a4,a4,31
   14ba8:	01d70733          	add	a4,a4,t4
   14bac:	40575713          	srai	a4,a4,0x5
   14bb0:	000e0813          	mv	a6,t3
   14bb4:	00000593          	li	a1,0
   14bb8:	00000513          	li	a0,0
   14bbc:	02e54e63          	blt	a0,a4,14bf8 <__subtf3+0x60c>
   14bc0:	00300513          	li	a0,3
   14bc4:	01feff13          	andi	t5,t4,31
   14bc8:	40e50fb3          	sub	t6,a0,a4
   14bcc:	00271813          	slli	a6,a4,0x2
   14bd0:	020f1e63          	bnez	t5,14c0c <__subtf3+0x620>
   14bd4:	010e0533          	add	a0,t3,a6
   14bd8:	00052503          	lw	a0,0(a0) # 80000 <__global_pointer$+0x5d148>
   14bdc:	001f0f13          	addi	t5,t5,1
   14be0:	004e0e13          	addi	t3,t3,4
   14be4:	feae2e23          	sw	a0,-4(t3)
   14be8:	ffefd6e3          	bge	t6,t5,14bd4 <__subtf3+0x5e8>
   14bec:	00400513          	li	a0,4
   14bf0:	40e50733          	sub	a4,a0,a4
   14bf4:	0880006f          	j	14c7c <__subtf3+0x690>
   14bf8:	00082f03          	lw	t5,0(a6)
   14bfc:	00150513          	addi	a0,a0,1
   14c00:	00480813          	addi	a6,a6,4
   14c04:	01e5e5b3          	or	a1,a1,t5
   14c08:	fb5ff06f          	j	14bbc <__subtf3+0x5d0>
   14c0c:	80000537          	lui	a0,0x80000
   14c10:	01f50513          	addi	a0,a0,31 # 8000001f <__global_pointer$+0x7ffdd167>
   14c14:	00aef533          	and	a0,t4,a0
   14c18:	00055863          	bgez	a0,14c28 <__subtf3+0x63c>
   14c1c:	fff50513          	addi	a0,a0,-1
   14c20:	fe056513          	ori	a0,a0,-32
   14c24:	00150513          	addi	a0,a0,1
   14c28:	02000393          	li	t2,32
   14c2c:	40a383b3          	sub	t2,t2,a0
   14c30:	fff74513          	not	a0,a4
   14c34:	41f55513          	srai	a0,a0,0x1f
   14c38:	00a77533          	and	a0,a4,a0
   14c3c:	00251513          	slli	a0,a0,0x2
   14c40:	00a28533          	add	a0,t0,a0
   14c44:	00052503          	lw	a0,0(a0)
   14c48:	01028833          	add	a6,t0,a6
   14c4c:	00751533          	sll	a0,a0,t2
   14c50:	00a5e5b3          	or	a1,a1,a0
   14c54:	00000513          	li	a0,0
   14c58:	00480813          	addi	a6,a6,4
   14c5c:	03f54463          	blt	a0,t6,14c84 <__subtf3+0x698>
   14c60:	01c12803          	lw	a6,28(sp)
   14c64:	00400513          	li	a0,4
   14c68:	40e50733          	sub	a4,a0,a4
   14c6c:	002f9513          	slli	a0,t6,0x2
   14c70:	00a28533          	add	a0,t0,a0
   14c74:	01e85833          	srl	a6,a6,t5
   14c78:	01052023          	sw	a6,0(a0)
   14c7c:	00300813          	li	a6,3
   14c80:	0380006f          	j	14cb8 <__subtf3+0x6cc>
   14c84:	ffc82e83          	lw	t4,-4(a6)
   14c88:	00082403          	lw	s0,0(a6)
   14c8c:	00150513          	addi	a0,a0,1
   14c90:	01eedeb3          	srl	t4,t4,t5
   14c94:	00741433          	sll	s0,s0,t2
   14c98:	008eeeb3          	or	t4,t4,s0
   14c9c:	01de2023          	sw	t4,0(t3)
   14ca0:	004e0e13          	addi	t3,t3,4
   14ca4:	fb5ff06f          	j	14c58 <__subtf3+0x66c>
   14ca8:	00271513          	slli	a0,a4,0x2
   14cac:	00a28533          	add	a0,t0,a0
   14cb0:	00052023          	sw	zero,0(a0)
   14cb4:	00170713          	addi	a4,a4,1
   14cb8:	fee858e3          	bge	a6,a4,14ca8 <__subtf3+0x6bc>
   14cbc:	01012703          	lw	a4,16(sp)
   14cc0:	00b035b3          	snez	a1,a1
   14cc4:	00e5e5b3          	or	a1,a1,a4
   14cc8:	01412503          	lw	a0,20(sp)
   14ccc:	01812703          	lw	a4,24(sp)
   14cd0:	00b685b3          	add	a1,a3,a1
   14cd4:	00f507b3          	add	a5,a0,a5
   14cd8:	00d5b6b3          	sltu	a3,a1,a3
   14cdc:	00d78833          	add	a6,a5,a3
   14ce0:	00c70633          	add	a2,a4,a2
   14ce4:	00a7b6b3          	sltu	a3,a5,a0
   14ce8:	03012a23          	sw	a6,52(sp)
   14cec:	00f83833          	sltu	a6,a6,a5
   14cf0:	0106e6b3          	or	a3,a3,a6
   14cf4:	00e637b3          	sltu	a5,a2,a4
   14cf8:	01c12703          	lw	a4,28(sp)
   14cfc:	00d606b3          	add	a3,a2,a3
   14d00:	02d12c23          	sw	a3,56(sp)
   14d04:	00c6b6b3          	sltu	a3,a3,a2
   14d08:	00d7e7b3          	or	a5,a5,a3
   14d0c:	00e88733          	add	a4,a7,a4
   14d10:	02b12823          	sw	a1,48(sp)
   14d14:	00e787b3          	add	a5,a5,a4
   14d18:	00030413          	mv	s0,t1
   14d1c:	d89ff06f          	j	14aa4 <__subtf3+0x4b8>
   14d20:	00140e93          	addi	t4,s0,1
   14d24:	011e9f13          	slli	t5,t4,0x11
   14d28:	012f5f13          	srli	t5,t5,0x12
   14d2c:	01412583          	lw	a1,20(sp)
   14d30:	01812503          	lw	a0,24(sp)
   14d34:	01c12803          	lw	a6,28(sp)
   14d38:	03010313          	addi	t1,sp,48
   14d3c:	03c10e13          	addi	t3,sp,60
   14d40:	120f1063          	bnez	t5,14e60 <__subtf3+0x874>
   14d44:	00a5eeb3          	or	t4,a1,a0
   14d48:	010eeeb3          	or	t4,t4,a6
   14d4c:	00eeeeb3          	or	t4,t4,a4
   14d50:	08041263          	bnez	s0,14dd4 <__subtf3+0x7e8>
   14d54:	780e8063          	beqz	t4,154d4 <__subtf3+0xee8>
   14d58:	00c7e333          	or	t1,a5,a2
   14d5c:	01136333          	or	t1,t1,a7
   14d60:	00d36333          	or	t1,t1,a3
   14d64:	76030c63          	beqz	t1,154dc <__subtf3+0xef0>
   14d68:	00d706b3          	add	a3,a4,a3
   14d6c:	00f587b3          	add	a5,a1,a5
   14d70:	02d12823          	sw	a3,48(sp)
   14d74:	00e6b6b3          	sltu	a3,a3,a4
   14d78:	00d786b3          	add	a3,a5,a3
   14d7c:	00b7b5b3          	sltu	a1,a5,a1
   14d80:	02d12a23          	sw	a3,52(sp)
   14d84:	00f6b6b3          	sltu	a3,a3,a5
   14d88:	00c50633          	add	a2,a0,a2
   14d8c:	00d5e5b3          	or	a1,a1,a3
   14d90:	00b605b3          	add	a1,a2,a1
   14d94:	02b12c23          	sw	a1,56(sp)
   14d98:	00a63533          	sltu	a0,a2,a0
   14d9c:	00c5b5b3          	sltu	a1,a1,a2
   14da0:	00b56533          	or	a0,a0,a1
   14da4:	01180833          	add	a6,a6,a7
   14da8:	01050533          	add	a0,a0,a6
   14dac:	00c51793          	slli	a5,a0,0xc
   14db0:	0007c663          	bltz	a5,14dbc <__subtf3+0x7d0>
   14db4:	02a12e23          	sw	a0,60(sp)
   14db8:	a49ff06f          	j	14800 <__subtf3+0x214>
   14dbc:	fff807b7          	lui	a5,0xfff80
   14dc0:	fff78793          	addi	a5,a5,-1 # fff7ffff <__global_pointer$+0xfff5d147>
   14dc4:	00f57533          	and	a0,a0,a5
   14dc8:	02a12e23          	sw	a0,60(sp)
   14dcc:	00100413          	li	s0,1
   14dd0:	a31ff06f          	j	14800 <__subtf3+0x214>
   14dd4:	020e8863          	beqz	t4,14e04 <__subtf3+0x818>
   14dd8:	00c7e7b3          	or	a5,a5,a2
   14ddc:	0117e7b3          	or	a5,a5,a7
   14de0:	00d7e7b3          	or	a5,a5,a3
   14de4:	02079a63          	bnez	a5,14e18 <__subtf3+0x82c>
   14de8:	02e12823          	sw	a4,48(sp)
   14dec:	02b12a23          	sw	a1,52(sp)
   14df0:	02a12c23          	sw	a0,56(sp)
   14df4:	03012e23          	sw	a6,60(sp)
   14df8:	00008437          	lui	s0,0x8
   14dfc:	fff40413          	addi	s0,s0,-1 # 7fff <_start-0x8001>
   14e00:	a01ff06f          	j	14800 <__subtf3+0x214>
   14e04:	00068713          	mv	a4,a3
   14e08:	00078593          	mv	a1,a5
   14e0c:	00060513          	mv	a0,a2
   14e10:	00088813          	mv	a6,a7
   14e14:	fd5ff06f          	j	14de8 <__subtf3+0x7fc>
   14e18:	000087b7          	lui	a5,0x8
   14e1c:	02f12e23          	sw	a5,60(sp)
   14e20:	02012c23          	sw	zero,56(sp)
   14e24:	02012a23          	sw	zero,52(sp)
   14e28:	02012823          	sw	zero,48(sp)
   14e2c:	000e0793          	mv	a5,t3
   14e30:	0007a703          	lw	a4,0(a5) # 8000 <_start-0x8000>
   14e34:	ffc7a683          	lw	a3,-4(a5)
   14e38:	ffc78793          	addi	a5,a5,-4
   14e3c:	00371713          	slli	a4,a4,0x3
   14e40:	01d6d693          	srli	a3,a3,0x1d
   14e44:	00d76733          	or	a4,a4,a3
   14e48:	00e7a223          	sw	a4,4(a5)
   14e4c:	fef312e3          	bne	t1,a5,14e30 <__subtf3+0x844>
   14e50:	00008437          	lui	s0,0x8
   14e54:	fff40413          	addi	s0,s0,-1 # 7fff <_start-0x8001>
   14e58:	00000913          	li	s2,0
   14e5c:	9a5ff06f          	j	14800 <__subtf3+0x214>
   14e60:	00d706b3          	add	a3,a4,a3
   14e64:	00f587b3          	add	a5,a1,a5
   14e68:	02d12823          	sw	a3,48(sp)
   14e6c:	00e6b6b3          	sltu	a3,a3,a4
   14e70:	00d786b3          	add	a3,a5,a3
   14e74:	00b7b5b3          	sltu	a1,a5,a1
   14e78:	02d12a23          	sw	a3,52(sp)
   14e7c:	00f6b6b3          	sltu	a3,a3,a5
   14e80:	00c50633          	add	a2,a0,a2
   14e84:	00d5e5b3          	or	a1,a1,a3
   14e88:	00b605b3          	add	a1,a2,a1
   14e8c:	02b12c23          	sw	a1,56(sp)
   14e90:	00a63533          	sltu	a0,a2,a0
   14e94:	00c5b5b3          	sltu	a1,a1,a2
   14e98:	00b56533          	or	a0,a0,a1
   14e9c:	01180833          	add	a6,a6,a7
   14ea0:	01050533          	add	a0,a0,a6
   14ea4:	02a12e23          	sw	a0,60(sp)
   14ea8:	00030793          	mv	a5,t1
   14eac:	0007a703          	lw	a4,0(a5)
   14eb0:	0047a683          	lw	a3,4(a5)
   14eb4:	00478793          	addi	a5,a5,4
   14eb8:	00175713          	srli	a4,a4,0x1
   14ebc:	01f69693          	slli	a3,a3,0x1f
   14ec0:	00d76733          	or	a4,a4,a3
   14ec4:	fee7ae23          	sw	a4,-4(a5)
   14ec8:	fefe12e3          	bne	t3,a5,14eac <__subtf3+0x8c0>
   14ecc:	000087b7          	lui	a5,0x8
   14ed0:	fff78793          	addi	a5,a5,-1 # 7fff <_start-0x8001>
   14ed4:	00fe8a63          	beq	t4,a5,14ee8 <__subtf3+0x8fc>
   14ed8:	00155513          	srli	a0,a0,0x1
   14edc:	02a12e23          	sw	a0,60(sp)
   14ee0:	000e8413          	mv	s0,t4
   14ee4:	91dff06f          	j	14800 <__subtf3+0x214>
   14ee8:	02012e23          	sw	zero,60(sp)
   14eec:	02012c23          	sw	zero,56(sp)
   14ef0:	02012a23          	sw	zero,52(sp)
   14ef4:	02012823          	sw	zero,48(sp)
   14ef8:	f01ff06f          	j	14df8 <__subtf3+0x80c>
   14efc:	fff80737          	lui	a4,0xfff80
   14f00:	fff70713          	addi	a4,a4,-1 # fff7ffff <__global_pointer$+0xfff5d147>
   14f04:	00e7f7b3          	and	a5,a5,a4
   14f08:	02f12e23          	sw	a5,60(sp)
   14f0c:	00140413          	addi	s0,s0,1
   14f10:	01f59593          	slli	a1,a1,0x1f
   14f14:	03010713          	addi	a4,sp,48
   14f18:	03c10513          	addi	a0,sp,60
   14f1c:	00072683          	lw	a3,0(a4)
   14f20:	00472603          	lw	a2,4(a4)
   14f24:	00470713          	addi	a4,a4,4
   14f28:	0016d693          	srli	a3,a3,0x1
   14f2c:	01f61613          	slli	a2,a2,0x1f
   14f30:	00c6e6b3          	or	a3,a3,a2
   14f34:	fed72e23          	sw	a3,-4(a4)
   14f38:	fee512e3          	bne	a0,a4,14f1c <__subtf3+0x930>
   14f3c:	0017d793          	srli	a5,a5,0x1
   14f40:	02f12e23          	sw	a5,60(sp)
   14f44:	03012783          	lw	a5,48(sp)
   14f48:	01f5d593          	srli	a1,a1,0x1f
   14f4c:	00b7e7b3          	or	a5,a5,a1
   14f50:	02f12823          	sw	a5,48(sp)
   14f54:	000087b7          	lui	a5,0x8
   14f58:	fff78793          	addi	a5,a5,-1 # 7fff <_start-0x8001>
   14f5c:	8af412e3          	bne	s0,a5,14800 <__subtf3+0x214>
   14f60:	02012e23          	sw	zero,60(sp)
   14f64:	02012c23          	sw	zero,56(sp)
   14f68:	02012a23          	sw	zero,52(sp)
   14f6c:	02012823          	sw	zero,48(sp)
   14f70:	891ff06f          	j	14800 <__subtf3+0x214>
   14f74:	24705863          	blez	t2,151c4 <__subtf3+0xbd8>
   14f78:	01412783          	lw	a5,20(sp)
   14f7c:	01812603          	lw	a2,24(sp)
   14f80:	01c12883          	lw	a7,28(sp)
   14f84:	0a031263          	bnez	t1,15028 <__subtf3+0xa3c>
   14f88:	02412f83          	lw	t6,36(sp)
   14f8c:	02812303          	lw	t1,40(sp)
   14f90:	02c12503          	lw	a0,44(sp)
   14f94:	006fe5b3          	or	a1,t6,t1
   14f98:	00a5e5b3          	or	a1,a1,a0
   14f9c:	00d5e5b3          	or	a1,a1,a3
   14fa0:	fc058063          	beqz	a1,14760 <__subtf3+0x174>
   14fa4:	fff38813          	addi	a6,t2,-1
   14fa8:	04081c63          	bnez	a6,15000 <__subtf3+0xa14>
   14fac:	40d705b3          	sub	a1,a4,a3
   14fb0:	41f78e33          	sub	t3,a5,t6
   14fb4:	00b736b3          	sltu	a3,a4,a1
   14fb8:	01c7beb3          	sltu	t4,a5,t3
   14fbc:	40de0e33          	sub	t3,t3,a3
   14fc0:	00000693          	li	a3,0
   14fc4:	00b77663          	bgeu	a4,a1,14fd0 <__subtf3+0x9e4>
   14fc8:	40ff8fb3          	sub	t6,t6,a5
   14fcc:	001fb693          	seqz	a3,t6
   14fd0:	01d6e7b3          	or	a5,a3,t4
   14fd4:	40660733          	sub	a4,a2,t1
   14fd8:	00e636b3          	sltu	a3,a2,a4
   14fdc:	40f70733          	sub	a4,a4,a5
   14fe0:	00078663          	beqz	a5,14fec <__subtf3+0xa00>
   14fe4:	40c30333          	sub	t1,t1,a2
   14fe8:	00133813          	seqz	a6,t1
   14fec:	40a88533          	sub	a0,a7,a0
   14ff0:	00d867b3          	or	a5,a6,a3
   14ff4:	40f50533          	sub	a0,a0,a5
   14ff8:	00100413          	li	s0,1
   14ffc:	19c0006f          	j	15198 <__subtf3+0xbac>
   15000:	000086b7          	lui	a3,0x8
   15004:	fff68693          	addi	a3,a3,-1 # 7fff <_start-0x8001>
   15008:	fcd38a63          	beq	t2,a3,147dc <__subtf3+0x1f0>
   1500c:	07400693          	li	a3,116
   15010:	0506d063          	bge	a3,a6,15050 <__subtf3+0xa64>
   15014:	02012623          	sw	zero,44(sp)
   15018:	02012423          	sw	zero,40(sp)
   1501c:	02012223          	sw	zero,36(sp)
   15020:	00100593          	li	a1,1
   15024:	1180006f          	j	1513c <__subtf3+0xb50>
   15028:	000086b7          	lui	a3,0x8
   1502c:	fff68693          	addi	a3,a3,-1 # 7fff <_start-0x8001>
   15030:	b4d400e3          	beq	s0,a3,14b70 <__subtf3+0x584>
   15034:	02c12683          	lw	a3,44(sp)
   15038:	000805b7          	lui	a1,0x80
   1503c:	00b6e6b3          	or	a3,a3,a1
   15040:	02d12623          	sw	a3,44(sp)
   15044:	07400693          	li	a3,116
   15048:	fc76c6e3          	blt	a3,t2,15014 <__subtf3+0xa28>
   1504c:	00038813          	mv	a6,t2
   15050:	40585693          	srai	a3,a6,0x5
   15054:	01f87313          	andi	t1,a6,31
   15058:	00000593          	li	a1,0
   1505c:	000f0813          	mv	a6,t5
   15060:	00000513          	li	a0,0
   15064:	02d51c63          	bne	a0,a3,1509c <__subtf3+0xab0>
   15068:	00300813          	li	a6,3
   1506c:	40d80833          	sub	a6,a6,a3
   15070:	00269513          	slli	a0,a3,0x2
   15074:	02031e63          	bnez	t1,150b0 <__subtf3+0xac4>
   15078:	00af0e33          	add	t3,t5,a0
   1507c:	000e2e03          	lw	t3,0(t3)
   15080:	00130313          	addi	t1,t1,1
   15084:	004f0f13          	addi	t5,t5,4
   15088:	ffcf2e23          	sw	t3,-4(t5)
   1508c:	fe6856e3          	bge	a6,t1,15078 <__subtf3+0xa8c>
   15090:	00400513          	li	a0,4
   15094:	40d506b3          	sub	a3,a0,a3
   15098:	0540006f          	j	150ec <__subtf3+0xb00>
   1509c:	00082e03          	lw	t3,0(a6)
   150a0:	00150513          	addi	a0,a0,1
   150a4:	00480813          	addi	a6,a6,4
   150a8:	01c5e5b3          	or	a1,a1,t3
   150ac:	fb9ff06f          	j	15064 <__subtf3+0xa78>
   150b0:	00ae8533          	add	a0,t4,a0
   150b4:	00052e03          	lw	t3,0(a0)
   150b8:	02000f93          	li	t6,32
   150bc:	406f8fb3          	sub	t6,t6,t1
   150c0:	01fe1e33          	sll	t3,t3,t6
   150c4:	01c5e5b3          	or	a1,a1,t3
   150c8:	00000293          	li	t0,0
   150cc:	0302c463          	blt	t0,a6,150f4 <__subtf3+0xb08>
   150d0:	00400513          	li	a0,4
   150d4:	40d506b3          	sub	a3,a0,a3
   150d8:	02c12503          	lw	a0,44(sp)
   150dc:	00281813          	slli	a6,a6,0x2
   150e0:	010e8833          	add	a6,t4,a6
   150e4:	00655533          	srl	a0,a0,t1
   150e8:	00a82023          	sw	a0,0(a6)
   150ec:	00400813          	li	a6,4
   150f0:	03c0006f          	j	1512c <__subtf3+0xb40>
   150f4:	00052e03          	lw	t3,0(a0)
   150f8:	00452383          	lw	t2,4(a0)
   150fc:	00450513          	addi	a0,a0,4
   15100:	006e5e33          	srl	t3,t3,t1
   15104:	01f393b3          	sll	t2,t2,t6
   15108:	007e6e33          	or	t3,t3,t2
   1510c:	01cf2023          	sw	t3,0(t5)
   15110:	00128293          	addi	t0,t0,1
   15114:	004f0f13          	addi	t5,t5,4
   15118:	fb5ff06f          	j	150cc <__subtf3+0xae0>
   1511c:	00269513          	slli	a0,a3,0x2
   15120:	00ae8533          	add	a0,t4,a0
   15124:	00052023          	sw	zero,0(a0)
   15128:	00168693          	addi	a3,a3,1
   1512c:	ff0698e3          	bne	a3,a6,1511c <__subtf3+0xb30>
   15130:	02012683          	lw	a3,32(sp)
   15134:	00b035b3          	snez	a1,a1
   15138:	00d5e5b3          	or	a1,a1,a3
   1513c:	02412503          	lw	a0,36(sp)
   15140:	40b705b3          	sub	a1,a4,a1
   15144:	00b736b3          	sltu	a3,a4,a1
   15148:	40a78e33          	sub	t3,a5,a0
   1514c:	01c7b833          	sltu	a6,a5,t3
   15150:	40de0e33          	sub	t3,t3,a3
   15154:	00000693          	li	a3,0
   15158:	00b77663          	bgeu	a4,a1,15164 <__subtf3+0xb78>
   1515c:	40f50533          	sub	a0,a0,a5
   15160:	00153693          	seqz	a3,a0
   15164:	02812503          	lw	a0,40(sp)
   15168:	0106e7b3          	or	a5,a3,a6
   1516c:	00000693          	li	a3,0
   15170:	40a60733          	sub	a4,a2,a0
   15174:	00e63833          	sltu	a6,a2,a4
   15178:	40f70733          	sub	a4,a4,a5
   1517c:	00078663          	beqz	a5,15188 <__subtf3+0xb9c>
   15180:	40c50533          	sub	a0,a0,a2
   15184:	00153693          	seqz	a3,a0
   15188:	02c12503          	lw	a0,44(sp)
   1518c:	0106e6b3          	or	a3,a3,a6
   15190:	40a88533          	sub	a0,a7,a0
   15194:	40d50533          	sub	a0,a0,a3
   15198:	02a12e23          	sw	a0,60(sp)
   1519c:	02e12c23          	sw	a4,56(sp)
   151a0:	03c12a23          	sw	t3,52(sp)
   151a4:	02b12823          	sw	a1,48(sp)
   151a8:	00c51793          	slli	a5,a0,0xc
   151ac:	e407da63          	bgez	a5,14800 <__subtf3+0x214>
   151b0:	000807b7          	lui	a5,0x80
   151b4:	fff78793          	addi	a5,a5,-1 # 7ffff <__global_pointer$+0x5d147>
   151b8:	00f57533          	and	a0,a0,a5
   151bc:	02a12e23          	sw	a0,60(sp)
   151c0:	5540006f          	j	15714 <__subtf3+0x1128>
   151c4:	02412e83          	lw	t4,36(sp)
   151c8:	02812f83          	lw	t6,40(sp)
   151cc:	02c12f03          	lw	t5,44(sp)
   151d0:	28038663          	beqz	t2,1545c <__subtf3+0xe70>
   151d4:	40830633          	sub	a2,t1,s0
   151d8:	0a041e63          	bnez	s0,15294 <__subtf3+0xca8>
   151dc:	01412383          	lw	t2,20(sp)
   151e0:	01812883          	lw	a7,24(sp)
   151e4:	01c12503          	lw	a0,28(sp)
   151e8:	0113e7b3          	or	a5,t2,a7
   151ec:	00a7e7b3          	or	a5,a5,a0
   151f0:	00e7e7b3          	or	a5,a5,a4
   151f4:	02079063          	bnez	a5,15214 <__subtf3+0xc28>
   151f8:	02d12823          	sw	a3,48(sp)
   151fc:	03d12a23          	sw	t4,52(sp)
   15200:	03f12c23          	sw	t6,56(sp)
   15204:	03e12e23          	sw	t5,60(sp)
   15208:	00060413          	mv	s0,a2
   1520c:	00080913          	mv	s2,a6
   15210:	df0ff06f          	j	14800 <__subtf3+0x214>
   15214:	fff60793          	addi	a5,a2,-1
   15218:	04079c63          	bnez	a5,15270 <__subtf3+0xc84>
   1521c:	40e685b3          	sub	a1,a3,a4
   15220:	407e8e33          	sub	t3,t4,t2
   15224:	00b6b733          	sltu	a4,a3,a1
   15228:	01ceb633          	sltu	a2,t4,t3
   1522c:	40ee0e33          	sub	t3,t3,a4
   15230:	00000713          	li	a4,0
   15234:	00b6f663          	bgeu	a3,a1,15240 <__subtf3+0xc54>
   15238:	41d383b3          	sub	t2,t2,t4
   1523c:	0013b713          	seqz	a4,t2
   15240:	00c766b3          	or	a3,a4,a2
   15244:	411f8733          	sub	a4,t6,a7
   15248:	00efb633          	sltu	a2,t6,a4
   1524c:	40d70733          	sub	a4,a4,a3
   15250:	00068663          	beqz	a3,1525c <__subtf3+0xc70>
   15254:	41f888b3          	sub	a7,a7,t6
   15258:	0018b793          	seqz	a5,a7
   1525c:	40af0533          	sub	a0,t5,a0
   15260:	00c7e7b3          	or	a5,a5,a2
   15264:	40f50533          	sub	a0,a0,a5
   15268:	00080913          	mv	s2,a6
   1526c:	d8dff06f          	j	14ff8 <__subtf3+0xa0c>
   15270:	00008737          	lui	a4,0x8
   15274:	fff70713          	addi	a4,a4,-1 # 7fff <_start-0x8001>
   15278:	74e61463          	bne	a2,a4,159c0 <__subtf3+0x13d4>
   1527c:	02d12823          	sw	a3,48(sp)
   15280:	03d12a23          	sw	t4,52(sp)
   15284:	03f12c23          	sw	t6,56(sp)
   15288:	03e12e23          	sw	t5,60(sp)
   1528c:	00080913          	mv	s2,a6
   15290:	b69ff06f          	j	14df8 <__subtf3+0x80c>
   15294:	000087b7          	lui	a5,0x8
   15298:	fff78793          	addi	a5,a5,-1 # 7fff <_start-0x8001>
   1529c:	fef300e3          	beq	t1,a5,1527c <__subtf3+0xc90>
   152a0:	01c12783          	lw	a5,28(sp)
   152a4:	00080737          	lui	a4,0x80
   152a8:	00e7e7b3          	or	a5,a5,a4
   152ac:	00f12e23          	sw	a5,28(sp)
   152b0:	07400793          	li	a5,116
   152b4:	18c7ca63          	blt	a5,a2,15448 <__subtf3+0xe5c>
   152b8:	41f65793          	srai	a5,a2,0x1f
   152bc:	01f7f793          	andi	a5,a5,31
   152c0:	00c787b3          	add	a5,a5,a2
   152c4:	4057d793          	srai	a5,a5,0x5
   152c8:	000e0513          	mv	a0,t3
   152cc:	00000593          	li	a1,0
   152d0:	00000713          	li	a4,0
   152d4:	02f74e63          	blt	a4,a5,15310 <__subtf3+0xd24>
   152d8:	00300713          	li	a4,3
   152dc:	01f67893          	andi	a7,a2,31
   152e0:	40f703b3          	sub	t2,a4,a5
   152e4:	00279513          	slli	a0,a5,0x2
   152e8:	02089e63          	bnez	a7,15324 <__subtf3+0xd38>
   152ec:	00ae0733          	add	a4,t3,a0
   152f0:	00072703          	lw	a4,0(a4) # 80000 <__global_pointer$+0x5d148>
   152f4:	00188893          	addi	a7,a7,1
   152f8:	004e0e13          	addi	t3,t3,4
   152fc:	feee2e23          	sw	a4,-4(t3)
   15300:	ff13d6e3          	bge	t2,a7,152ec <__subtf3+0xd00>
   15304:	00400713          	li	a4,4
   15308:	40f707b3          	sub	a5,a4,a5
   1530c:	0880006f          	j	15394 <__subtf3+0xda8>
   15310:	00052883          	lw	a7,0(a0)
   15314:	00170713          	addi	a4,a4,1
   15318:	00450513          	addi	a0,a0,4
   1531c:	0115e5b3          	or	a1,a1,a7
   15320:	fb5ff06f          	j	152d4 <__subtf3+0xce8>
   15324:	80000737          	lui	a4,0x80000
   15328:	01f70713          	addi	a4,a4,31 # 8000001f <__global_pointer$+0x7ffdd167>
   1532c:	00e67633          	and	a2,a2,a4
   15330:	00065863          	bgez	a2,15340 <__subtf3+0xd54>
   15334:	fff60613          	addi	a2,a2,-1
   15338:	fe066613          	ori	a2,a2,-32
   1533c:	00160613          	addi	a2,a2,1
   15340:	fff7c713          	not	a4,a5
   15344:	41f75713          	srai	a4,a4,0x1f
   15348:	00e7f733          	and	a4,a5,a4
   1534c:	00271713          	slli	a4,a4,0x2
   15350:	00e28733          	add	a4,t0,a4
   15354:	00072703          	lw	a4,0(a4)
   15358:	02000413          	li	s0,32
   1535c:	40c40433          	sub	s0,s0,a2
   15360:	00871733          	sll	a4,a4,s0
   15364:	00e5e5b3          	or	a1,a1,a4
   15368:	00a28633          	add	a2,t0,a0
   1536c:	00000713          	li	a4,0
   15370:	00460613          	addi	a2,a2,4
   15374:	02774463          	blt	a4,t2,1539c <__subtf3+0xdb0>
   15378:	01c12603          	lw	a2,28(sp)
   1537c:	00400713          	li	a4,4
   15380:	40f707b3          	sub	a5,a4,a5
   15384:	00239713          	slli	a4,t2,0x2
   15388:	00e28733          	add	a4,t0,a4
   1538c:	01165633          	srl	a2,a2,a7
   15390:	00c72023          	sw	a2,0(a4)
   15394:	00300613          	li	a2,3
   15398:	0380006f          	j	153d0 <__subtf3+0xde4>
   1539c:	ffc62503          	lw	a0,-4(a2)
   153a0:	00062903          	lw	s2,0(a2)
   153a4:	00170713          	addi	a4,a4,1
   153a8:	01155533          	srl	a0,a0,a7
   153ac:	00891933          	sll	s2,s2,s0
   153b0:	01256533          	or	a0,a0,s2
   153b4:	00ae2023          	sw	a0,0(t3)
   153b8:	004e0e13          	addi	t3,t3,4
   153bc:	fb5ff06f          	j	15370 <__subtf3+0xd84>
   153c0:	00279713          	slli	a4,a5,0x2
   153c4:	00e28733          	add	a4,t0,a4
   153c8:	00072023          	sw	zero,0(a4)
   153cc:	00178793          	addi	a5,a5,1
   153d0:	fef658e3          	bge	a2,a5,153c0 <__subtf3+0xdd4>
   153d4:	01012783          	lw	a5,16(sp)
   153d8:	00b035b3          	snez	a1,a1
   153dc:	00f5e5b3          	or	a1,a1,a5
   153e0:	01412703          	lw	a4,20(sp)
   153e4:	40b685b3          	sub	a1,a3,a1
   153e8:	00b6b7b3          	sltu	a5,a3,a1
   153ec:	40ee8e33          	sub	t3,t4,a4
   153f0:	01ceb633          	sltu	a2,t4,t3
   153f4:	40fe0e33          	sub	t3,t3,a5
   153f8:	00000793          	li	a5,0
   153fc:	00b6f663          	bgeu	a3,a1,15408 <__subtf3+0xe1c>
   15400:	41d70733          	sub	a4,a4,t4
   15404:	00173793          	seqz	a5,a4
   15408:	00c7e7b3          	or	a5,a5,a2
   1540c:	01812603          	lw	a2,24(sp)
   15410:	00000693          	li	a3,0
   15414:	40cf8733          	sub	a4,t6,a2
   15418:	00efb8b3          	sltu	a7,t6,a4
   1541c:	40f70733          	sub	a4,a4,a5
   15420:	00078663          	beqz	a5,1542c <__subtf3+0xe40>
   15424:	41f60633          	sub	a2,a2,t6
   15428:	00163693          	seqz	a3,a2
   1542c:	01c12503          	lw	a0,28(sp)
   15430:	0116e6b3          	or	a3,a3,a7
   15434:	00030413          	mv	s0,t1
   15438:	40af0533          	sub	a0,t5,a0
   1543c:	40d50533          	sub	a0,a0,a3
   15440:	00080913          	mv	s2,a6
   15444:	d55ff06f          	j	15198 <__subtf3+0xbac>
   15448:	00012e23          	sw	zero,28(sp)
   1544c:	00012c23          	sw	zero,24(sp)
   15450:	00012a23          	sw	zero,20(sp)
   15454:	00100593          	li	a1,1
   15458:	f89ff06f          	j	153e0 <__subtf3+0xdf4>
   1545c:	00140593          	addi	a1,s0,1
   15460:	01159313          	slli	t1,a1,0x11
   15464:	01235313          	srli	t1,t1,0x12
   15468:	01412783          	lw	a5,20(sp)
   1546c:	01812603          	lw	a2,24(sp)
   15470:	01c12883          	lw	a7,28(sp)
   15474:	00008e37          	lui	t3,0x8
   15478:	1e031263          	bnez	t1,1565c <__subtf3+0x1070>
   1547c:	01fee5b3          	or	a1,t4,t6
   15480:	00c7e333          	or	t1,a5,a2
   15484:	01e5e5b3          	or	a1,a1,t5
   15488:	01136333          	or	t1,t1,a7
   1548c:	00d5e5b3          	or	a1,a1,a3
   15490:	00e36333          	or	t1,t1,a4
   15494:	12041663          	bnez	s0,155c0 <__subtf3+0xfd4>
   15498:	02031063          	bnez	t1,154b8 <__subtf3+0xecc>
   1549c:	00b035b3          	snez	a1,a1
   154a0:	02d12823          	sw	a3,48(sp)
   154a4:	03d12a23          	sw	t4,52(sp)
   154a8:	03f12c23          	sw	t6,56(sp)
   154ac:	03e12e23          	sw	t5,60(sp)
   154b0:	0105f933          	and	s2,a1,a6
   154b4:	b4cff06f          	j	14800 <__subtf3+0x214>
   154b8:	02059a63          	bnez	a1,154ec <__subtf3+0xf00>
   154bc:	02e12823          	sw	a4,48(sp)
   154c0:	02f12a23          	sw	a5,52(sp)
   154c4:	02c12c23          	sw	a2,56(sp)
   154c8:	03112e23          	sw	a7,60(sp)
   154cc:	00000413          	li	s0,0
   154d0:	b30ff06f          	j	14800 <__subtf3+0x214>
   154d4:	00068713          	mv	a4,a3
   154d8:	fe5ff06f          	j	154bc <__subtf3+0xed0>
   154dc:	00058793          	mv	a5,a1
   154e0:	00050613          	mv	a2,a0
   154e4:	00080893          	mv	a7,a6
   154e8:	fd5ff06f          	j	154bc <__subtf3+0xed0>
   154ec:	40d705b3          	sub	a1,a4,a3
   154f0:	41d783b3          	sub	t2,a5,t4
   154f4:	00b73e33          	sltu	t3,a4,a1
   154f8:	0077b2b3          	sltu	t0,a5,t2
   154fc:	41c38e33          	sub	t3,t2,t3
   15500:	00000313          	li	t1,0
   15504:	00b77463          	bgeu	a4,a1,1550c <__subtf3+0xf20>
   15508:	0013b313          	seqz	t1,t2
   1550c:	00536333          	or	t1,t1,t0
   15510:	41f602b3          	sub	t0,a2,t6
   15514:	00563a33          	sltu	s4,a2,t0
   15518:	406289b3          	sub	s3,t0,t1
   1551c:	00000913          	li	s2,0
   15520:	00030463          	beqz	t1,15528 <__subtf3+0xf3c>
   15524:	0012b913          	seqz	s2,t0
   15528:	01496933          	or	s2,s2,s4
   1552c:	41e88333          	sub	t1,a7,t5
   15530:	41230333          	sub	t1,t1,s2
   15534:	02612e23          	sw	t1,60(sp)
   15538:	03312c23          	sw	s3,56(sp)
   1553c:	03c12a23          	sw	t3,52(sp)
   15540:	02b12823          	sw	a1,48(sp)
   15544:	00c31913          	slli	s2,t1,0xc
   15548:	06095063          	bgez	s2,155a8 <__subtf3+0xfbc>
   1554c:	40e68733          	sub	a4,a3,a4
   15550:	40fe87b3          	sub	a5,t4,a5
   15554:	00e6b5b3          	sltu	a1,a3,a4
   15558:	00febeb3          	sltu	t4,t4,a5
   1555c:	40b787b3          	sub	a5,a5,a1
   15560:	00000593          	li	a1,0
   15564:	00e6f463          	bgeu	a3,a4,1556c <__subtf3+0xf80>
   15568:	0013b593          	seqz	a1,t2
   1556c:	40cf8633          	sub	a2,t6,a2
   15570:	01d5eeb3          	or	t4,a1,t4
   15574:	00cfbfb3          	sltu	t6,t6,a2
   15578:	00000693          	li	a3,0
   1557c:	41d60633          	sub	a2,a2,t4
   15580:	000e8463          	beqz	t4,15588 <__subtf3+0xf9c>
   15584:	0012b693          	seqz	a3,t0
   15588:	411f0f33          	sub	t5,t5,a7
   1558c:	01f6e6b3          	or	a3,a3,t6
   15590:	40df0f33          	sub	t5,t5,a3
   15594:	03e12e23          	sw	t5,60(sp)
   15598:	02c12c23          	sw	a2,56(sp)
   1559c:	02f12a23          	sw	a5,52(sp)
   155a0:	02e12823          	sw	a4,48(sp)
   155a4:	c69ff06f          	j	1520c <__subtf3+0xc20>
   155a8:	01c5e933          	or	s2,a1,t3
   155ac:	01396933          	or	s2,s2,s3
   155b0:	00696933          	or	s2,s2,t1
   155b4:	01203933          	snez	s2,s2
   155b8:	01257933          	and	s2,a0,s2
   155bc:	a44ff06f          	j	14800 <__subtf3+0x214>
   155c0:	03010513          	addi	a0,sp,48
   155c4:	04031e63          	bnez	t1,15620 <__subtf3+0x1034>
   155c8:	02059e63          	bnez	a1,15604 <__subtf3+0x1018>
   155cc:	03c12e23          	sw	t3,60(sp)
   155d0:	02012c23          	sw	zero,56(sp)
   155d4:	02012a23          	sw	zero,52(sp)
   155d8:	02012823          	sw	zero,48(sp)
   155dc:	03c10793          	addi	a5,sp,60
   155e0:	0007a703          	lw	a4,0(a5)
   155e4:	ffc7a683          	lw	a3,-4(a5)
   155e8:	ffc78793          	addi	a5,a5,-4
   155ec:	00371713          	slli	a4,a4,0x3
   155f0:	01d6d693          	srli	a3,a3,0x1d
   155f4:	00d76733          	or	a4,a4,a3
   155f8:	00e7a223          	sw	a4,4(a5)
   155fc:	fef512e3          	bne	a0,a5,155e0 <__subtf3+0xff4>
   15600:	851ff06f          	j	14e50 <__subtf3+0x864>
   15604:	02d12823          	sw	a3,48(sp)
   15608:	03d12a23          	sw	t4,52(sp)
   1560c:	03f12c23          	sw	t6,56(sp)
   15610:	03e12e23          	sw	t5,60(sp)
   15614:	00080913          	mv	s2,a6
   15618:	fffe0413          	addi	s0,t3,-1 # 7fff <_start-0x8001>
   1561c:	9e4ff06f          	j	14800 <__subtf3+0x214>
   15620:	9a058e63          	beqz	a1,147dc <__subtf3+0x1f0>
   15624:	03c12e23          	sw	t3,60(sp)
   15628:	02012c23          	sw	zero,56(sp)
   1562c:	02012a23          	sw	zero,52(sp)
   15630:	02012823          	sw	zero,48(sp)
   15634:	03c10793          	addi	a5,sp,60
   15638:	0007a703          	lw	a4,0(a5)
   1563c:	ffc7a683          	lw	a3,-4(a5)
   15640:	ffc78793          	addi	a5,a5,-4
   15644:	00371713          	slli	a4,a4,0x3
   15648:	01d6d693          	srli	a3,a3,0x1d
   1564c:	00d76733          	or	a4,a4,a3
   15650:	00e7a223          	sw	a4,4(a5)
   15654:	fef512e3          	bne	a0,a5,15638 <__subtf3+0x104c>
   15658:	ff8ff06f          	j	14e50 <__subtf3+0x864>
   1565c:	40d705b3          	sub	a1,a4,a3
   15660:	41d782b3          	sub	t0,a5,t4
   15664:	00b73333          	sltu	t1,a4,a1
   15668:	0057be33          	sltu	t3,a5,t0
   1566c:	40628333          	sub	t1,t0,t1
   15670:	00000513          	li	a0,0
   15674:	00b77463          	bgeu	a4,a1,1567c <__subtf3+0x1090>
   15678:	0012b513          	seqz	a0,t0
   1567c:	01c56533          	or	a0,a0,t3
   15680:	41f60e33          	sub	t3,a2,t6
   15684:	01c63ab3          	sltu	s5,a2,t3
   15688:	40ae0a33          	sub	s4,t3,a0
   1568c:	00000993          	li	s3,0
   15690:	00050463          	beqz	a0,15698 <__subtf3+0x10ac>
   15694:	001e3993          	seqz	s3,t3
   15698:	0159e9b3          	or	s3,s3,s5
   1569c:	41e88533          	sub	a0,a7,t5
   156a0:	41350533          	sub	a0,a0,s3
   156a4:	02a12e23          	sw	a0,60(sp)
   156a8:	03412c23          	sw	s4,56(sp)
   156ac:	02612a23          	sw	t1,52(sp)
   156b0:	02b12823          	sw	a1,48(sp)
   156b4:	00c51993          	slli	s3,a0,0xc
   156b8:	0e09d263          	bgez	s3,1579c <__subtf3+0x11b0>
   156bc:	40e68733          	sub	a4,a3,a4
   156c0:	40fe87b3          	sub	a5,t4,a5
   156c4:	00e6b5b3          	sltu	a1,a3,a4
   156c8:	00febeb3          	sltu	t4,t4,a5
   156cc:	40b787b3          	sub	a5,a5,a1
   156d0:	00000593          	li	a1,0
   156d4:	00e6f463          	bgeu	a3,a4,156dc <__subtf3+0x10f0>
   156d8:	0012b593          	seqz	a1,t0
   156dc:	40cf8633          	sub	a2,t6,a2
   156e0:	01d5eeb3          	or	t4,a1,t4
   156e4:	00cfbfb3          	sltu	t6,t6,a2
   156e8:	41d60633          	sub	a2,a2,t4
   156ec:	000e8463          	beqz	t4,156f4 <__subtf3+0x1108>
   156f0:	001e3393          	seqz	t2,t3
   156f4:	411f0533          	sub	a0,t5,a7
   156f8:	01f3e6b3          	or	a3,t2,t6
   156fc:	40d50533          	sub	a0,a0,a3
   15700:	02a12e23          	sw	a0,60(sp)
   15704:	02c12c23          	sw	a2,56(sp)
   15708:	02f12a23          	sw	a5,52(sp)
   1570c:	02e12823          	sw	a4,48(sp)
   15710:	00080913          	mv	s2,a6
   15714:	0a050063          	beqz	a0,157b4 <__subtf3+0x11c8>
   15718:	065000ef          	jal	15f7c <__clzsi2>
   1571c:	ff450513          	addi	a0,a0,-12
   15720:	41f55793          	srai	a5,a0,0x1f
   15724:	01f7f793          	andi	a5,a5,31
   15728:	00a787b3          	add	a5,a5,a0
   1572c:	4057d793          	srai	a5,a5,0x5
   15730:	01f57813          	andi	a6,a0,31
   15734:	40f006b3          	neg	a3,a5
   15738:	0a080a63          	beqz	a6,157ec <__subtf3+0x1200>
   1573c:	80000737          	lui	a4,0x80000
   15740:	01f70713          	addi	a4,a4,31 # 8000001f <__global_pointer$+0x7ffdd167>
   15744:	00e57733          	and	a4,a0,a4
   15748:	00075863          	bgez	a4,15758 <__subtf3+0x116c>
   1574c:	fff70713          	addi	a4,a4,-1
   15750:	fe076713          	ori	a4,a4,-32
   15754:	00170713          	addi	a4,a4,1
   15758:	00269693          	slli	a3,a3,0x2
   1575c:	02000893          	li	a7,32
   15760:	40e888b3          	sub	a7,a7,a4
   15764:	03010613          	addi	a2,sp,48
   15768:	00c68713          	addi	a4,a3,12
   1576c:	00e60733          	add	a4,a2,a4
   15770:	40d006b3          	neg	a3,a3
   15774:	0ae61263          	bne	a2,a4,15818 <__subtf3+0x122c>
   15778:	fff78713          	addi	a4,a5,-1
   1577c:	00279793          	slli	a5,a5,0x2
   15780:	00f60633          	add	a2,a2,a5
   15784:	03012783          	lw	a5,48(sp)
   15788:	010797b3          	sll	a5,a5,a6
   1578c:	00f62023          	sw	a5,0(a2)
   15790:	fff00693          	li	a3,-1
   15794:	03010313          	addi	t1,sp,48
   15798:	0b40006f          	j	1584c <__subtf3+0x1260>
   1579c:	0065e5b3          	or	a1,a1,t1
   157a0:	0145e5b3          	or	a1,a1,s4
   157a4:	00a5e5b3          	or	a1,a1,a0
   157a8:	f60596e3          	bnez	a1,15714 <__subtf3+0x1128>
   157ac:	00000413          	li	s0,0
   157b0:	ea8ff06f          	j	14e58 <__subtf3+0x86c>
   157b4:	03812503          	lw	a0,56(sp)
   157b8:	00050863          	beqz	a0,157c8 <__subtf3+0x11dc>
   157bc:	7c0000ef          	jal	15f7c <__clzsi2>
   157c0:	02050513          	addi	a0,a0,32
   157c4:	f59ff06f          	j	1571c <__subtf3+0x1130>
   157c8:	03412503          	lw	a0,52(sp)
   157cc:	00050863          	beqz	a0,157dc <__subtf3+0x11f0>
   157d0:	7ac000ef          	jal	15f7c <__clzsi2>
   157d4:	04050513          	addi	a0,a0,64
   157d8:	f45ff06f          	j	1571c <__subtf3+0x1130>
   157dc:	03012503          	lw	a0,48(sp)
   157e0:	79c000ef          	jal	15f7c <__clzsi2>
   157e4:	06050513          	addi	a0,a0,96
   157e8:	f35ff06f          	j	1571c <__subtf3+0x1130>
   157ec:	03c10713          	addi	a4,sp,60
   157f0:	00269693          	slli	a3,a3,0x2
   157f4:	00300613          	li	a2,3
   157f8:	00d705b3          	add	a1,a4,a3
   157fc:	0005a583          	lw	a1,0(a1) # 80000 <__global_pointer$+0x5d148>
   15800:	fff60613          	addi	a2,a2,-1
   15804:	ffc70713          	addi	a4,a4,-4
   15808:	00b72223          	sw	a1,4(a4)
   1580c:	fef656e3          	bge	a2,a5,157f8 <__subtf3+0x120c>
   15810:	fff78713          	addi	a4,a5,-1
   15814:	f7dff06f          	j	15790 <__subtf3+0x11a4>
   15818:	00072583          	lw	a1,0(a4)
   1581c:	ffc72303          	lw	t1,-4(a4)
   15820:	00d70e33          	add	t3,a4,a3
   15824:	010595b3          	sll	a1,a1,a6
   15828:	01135333          	srl	t1,t1,a7
   1582c:	0065e5b3          	or	a1,a1,t1
   15830:	00be2023          	sw	a1,0(t3)
   15834:	ffc70713          	addi	a4,a4,-4
   15838:	f3dff06f          	j	15774 <__subtf3+0x1188>
   1583c:	00271793          	slli	a5,a4,0x2
   15840:	00f307b3          	add	a5,t1,a5
   15844:	0007a023          	sw	zero,0(a5)
   15848:	fff70713          	addi	a4,a4,-1
   1584c:	fed718e3          	bne	a4,a3,1583c <__subtf3+0x1250>
   15850:	10854263          	blt	a0,s0,15954 <__subtf3+0x1368>
   15854:	40850533          	sub	a0,a0,s0
   15858:	00150513          	addi	a0,a0,1
   1585c:	40555793          	srai	a5,a0,0x5
   15860:	00030613          	mv	a2,t1
   15864:	01f57513          	andi	a0,a0,31
   15868:	00030693          	mv	a3,t1
   1586c:	00000893          	li	a7,0
   15870:	00000713          	li	a4,0
   15874:	02f71c63          	bne	a4,a5,158ac <__subtf3+0x12c0>
   15878:	00300693          	li	a3,3
   1587c:	40f686b3          	sub	a3,a3,a5
   15880:	00279713          	slli	a4,a5,0x2
   15884:	02051e63          	bnez	a0,158c0 <__subtf3+0x12d4>
   15888:	00e605b3          	add	a1,a2,a4
   1588c:	0005a583          	lw	a1,0(a1)
   15890:	00150513          	addi	a0,a0,1
   15894:	00460613          	addi	a2,a2,4
   15898:	feb62e23          	sw	a1,-4(a2)
   1589c:	fea6d6e3          	bge	a3,a0,15888 <__subtf3+0x129c>
   158a0:	00400713          	li	a4,4
   158a4:	40f707b3          	sub	a5,a4,a5
   158a8:	0580006f          	j	15900 <__subtf3+0x1314>
   158ac:	0006a583          	lw	a1,0(a3)
   158b0:	00170713          	addi	a4,a4,1
   158b4:	00468693          	addi	a3,a3,4
   158b8:	00b8e8b3          	or	a7,a7,a1
   158bc:	fb9ff06f          	j	15874 <__subtf3+0x1288>
   158c0:	00e30733          	add	a4,t1,a4
   158c4:	00072583          	lw	a1,0(a4)
   158c8:	02000813          	li	a6,32
   158cc:	40a80833          	sub	a6,a6,a0
   158d0:	010595b3          	sll	a1,a1,a6
   158d4:	00b8e8b3          	or	a7,a7,a1
   158d8:	00000e13          	li	t3,0
   158dc:	00470713          	addi	a4,a4,4
   158e0:	02de4463          	blt	t3,a3,15908 <__subtf3+0x131c>
   158e4:	00400713          	li	a4,4
   158e8:	40f707b3          	sub	a5,a4,a5
   158ec:	03c12703          	lw	a4,60(sp)
   158f0:	00269693          	slli	a3,a3,0x2
   158f4:	00d306b3          	add	a3,t1,a3
   158f8:	00a75733          	srl	a4,a4,a0
   158fc:	00e6a023          	sw	a4,0(a3)
   15900:	00400693          	li	a3,4
   15904:	0380006f          	j	1593c <__subtf3+0x1350>
   15908:	ffc72583          	lw	a1,-4(a4)
   1590c:	00072e83          	lw	t4,0(a4)
   15910:	001e0e13          	addi	t3,t3,1
   15914:	00a5d5b3          	srl	a1,a1,a0
   15918:	010e9eb3          	sll	t4,t4,a6
   1591c:	01d5e5b3          	or	a1,a1,t4
   15920:	00b62023          	sw	a1,0(a2)
   15924:	00460613          	addi	a2,a2,4
   15928:	fb5ff06f          	j	158dc <__subtf3+0x12f0>
   1592c:	00279713          	slli	a4,a5,0x2
   15930:	00e30733          	add	a4,t1,a4
   15934:	00072023          	sw	zero,0(a4)
   15938:	00178793          	addi	a5,a5,1
   1593c:	fed798e3          	bne	a5,a3,1592c <__subtf3+0x1340>
   15940:	03012703          	lw	a4,48(sp)
   15944:	011037b3          	snez	a5,a7
   15948:	00f767b3          	or	a5,a4,a5
   1594c:	02f12823          	sw	a5,48(sp)
   15950:	b7dff06f          	j	154cc <__subtf3+0xee0>
   15954:	03c12783          	lw	a5,60(sp)
   15958:	fff80737          	lui	a4,0xfff80
   1595c:	fff70713          	addi	a4,a4,-1 # fff7ffff <__global_pointer$+0xfff5d147>
   15960:	40a40433          	sub	s0,s0,a0
   15964:	00e7f7b3          	and	a5,a5,a4
   15968:	944ff06f          	j	14aac <__subtf3+0x4c0>
   1596c:	02012e23          	sw	zero,60(sp)
   15970:	02012c23          	sw	zero,56(sp)
   15974:	02012a23          	sw	zero,52(sp)
   15978:	02012823          	sw	zero,48(sp)
   1597c:	00000793          	li	a5,0
   15980:	f01fe06f          	j	14880 <__subtf3+0x294>
   15984:	07400693          	li	a3,116
   15988:	00b6c463          	blt	a3,a1,15990 <__subtf3+0x13a4>
   1598c:	fddfe06f          	j	14968 <__subtf3+0x37c>
   15990:	02012623          	sw	zero,44(sp)
   15994:	02012423          	sw	zero,40(sp)
   15998:	02012223          	sw	zero,36(sp)
   1599c:	00100593          	li	a1,1
   159a0:	8b4ff06f          	j	14a54 <__subtf3+0x468>
   159a4:	07400713          	li	a4,116
   159a8:	9fd75c63          	bge	a4,t4,14ba0 <__subtf3+0x5b4>
   159ac:	00012e23          	sw	zero,28(sp)
   159b0:	00012c23          	sw	zero,24(sp)
   159b4:	00012a23          	sw	zero,20(sp)
   159b8:	00100593          	li	a1,1
   159bc:	b0cff06f          	j	14cc8 <__subtf3+0x6dc>
   159c0:	07400713          	li	a4,116
   159c4:	a8f742e3          	blt	a4,a5,15448 <__subtf3+0xe5c>
   159c8:	00078613          	mv	a2,a5
   159cc:	8edff06f          	j	152b8 <__subtf3+0xccc>

000159d0 <__unordtf2>:
   159d0:	00052703          	lw	a4,0(a0)
   159d4:	00452e83          	lw	t4,4(a0)
   159d8:	00852e03          	lw	t3,8(a0)
   159dc:	00c52503          	lw	a0,12(a0)
   159e0:	00c5a603          	lw	a2,12(a1)
   159e4:	000086b7          	lui	a3,0x8
   159e8:	fff68693          	addi	a3,a3,-1 # 7fff <_start-0x8001>
   159ec:	01055813          	srli	a6,a0,0x10
   159f0:	0005a783          	lw	a5,0(a1)
   159f4:	0045a303          	lw	t1,4(a1)
   159f8:	0085a883          	lw	a7,8(a1)
   159fc:	00d87833          	and	a6,a6,a3
   15a00:	01065593          	srli	a1,a2,0x10
   15a04:	ff010113          	addi	sp,sp,-16
   15a08:	00d5f5b3          	and	a1,a1,a3
   15a0c:	02d81063          	bne	a6,a3,15a2c <__unordtf2+0x5c>
   15a10:	01d76733          	or	a4,a4,t4
   15a14:	01051513          	slli	a0,a0,0x10
   15a18:	01055513          	srli	a0,a0,0x10
   15a1c:	01c76733          	or	a4,a4,t3
   15a20:	00a76733          	or	a4,a4,a0
   15a24:	00100513          	li	a0,1
   15a28:	02071663          	bnez	a4,15a54 <__unordtf2+0x84>
   15a2c:	00008737          	lui	a4,0x8
   15a30:	fff70713          	addi	a4,a4,-1 # 7fff <_start-0x8001>
   15a34:	00000513          	li	a0,0
   15a38:	00e59e63          	bne	a1,a4,15a54 <__unordtf2+0x84>
   15a3c:	0067e533          	or	a0,a5,t1
   15a40:	01061613          	slli	a2,a2,0x10
   15a44:	01156533          	or	a0,a0,a7
   15a48:	01065613          	srli	a2,a2,0x10
   15a4c:	00c56533          	or	a0,a0,a2
   15a50:	00a03533          	snez	a0,a0
   15a54:	01010113          	addi	sp,sp,16
   15a58:	00008067          	ret

00015a5c <__fixtfsi>:
   15a5c:	00052703          	lw	a4,0(a0)
   15a60:	00452603          	lw	a2,4(a0)
   15a64:	00c52783          	lw	a5,12(a0)
   15a68:	00852683          	lw	a3,8(a0)
   15a6c:	fe010113          	addi	sp,sp,-32
   15a70:	00e12023          	sw	a4,0(sp)
   15a74:	00c12223          	sw	a2,4(sp)
   15a78:	00e12823          	sw	a4,16(sp)
   15a7c:	00179613          	slli	a2,a5,0x1
   15a80:	00004737          	lui	a4,0x4
   15a84:	00d12423          	sw	a3,8(sp)
   15a88:	00f12623          	sw	a5,12(sp)
   15a8c:	00d12c23          	sw	a3,24(sp)
   15a90:	01165613          	srli	a2,a2,0x11
   15a94:	ffe70713          	addi	a4,a4,-2 # 3ffe <_start-0xc002>
   15a98:	00000513          	li	a0,0
   15a9c:	02c75063          	bge	a4,a2,15abc <__fixtfsi+0x60>
   15aa0:	00004737          	lui	a4,0x4
   15aa4:	01d70713          	addi	a4,a4,29 # 401d <_start-0xbfe3>
   15aa8:	01f7d813          	srli	a6,a5,0x1f
   15aac:	00c75c63          	bge	a4,a2,15ac4 <__fixtfsi+0x68>
   15ab0:	80000537          	lui	a0,0x80000
   15ab4:	fff50513          	addi	a0,a0,-1 # 7fffffff <__global_pointer$+0x7ffdd147>
   15ab8:	00a80533          	add	a0,a6,a0
   15abc:	02010113          	addi	sp,sp,32
   15ac0:	00008067          	ret
   15ac4:	01079793          	slli	a5,a5,0x10
   15ac8:	00010737          	lui	a4,0x10
   15acc:	0107d793          	srli	a5,a5,0x10
   15ad0:	00e7e7b3          	or	a5,a5,a4
   15ad4:	00004737          	lui	a4,0x4
   15ad8:	06f70713          	addi	a4,a4,111 # 406f <_start-0xbf91>
   15adc:	40c70733          	sub	a4,a4,a2
   15ae0:	40575513          	srai	a0,a4,0x5
   15ae4:	02000593          	li	a1,32
   15ae8:	01f77713          	andi	a4,a4,31
   15aec:	00f12e23          	sw	a5,28(sp)
   15af0:	40e585b3          	sub	a1,a1,a4
   15af4:	01010613          	addi	a2,sp,16
   15af8:	04071663          	bnez	a4,15b44 <__fixtfsi+0xe8>
   15afc:	00251513          	slli	a0,a0,0x2
   15b00:	00a60633          	add	a2,a2,a0
   15b04:	00062783          	lw	a5,0(a2)
   15b08:	00f12823          	sw	a5,16(sp)
   15b0c:	01012503          	lw	a0,16(sp)
   15b10:	fa0806e3          	beqz	a6,15abc <__fixtfsi+0x60>
   15b14:	40a00533          	neg	a0,a0
   15b18:	fa5ff06f          	j	15abc <__fixtfsi+0x60>
   15b1c:	00e6d6b3          	srl	a3,a3,a4
   15b20:	00b795b3          	sll	a1,a5,a1
   15b24:	00b6e6b3          	or	a3,a3,a1
   15b28:	00d12823          	sw	a3,16(sp)
   15b2c:	00100693          	li	a3,1
   15b30:	00269693          	slli	a3,a3,0x2
   15b34:	00d60633          	add	a2,a2,a3
   15b38:	00e7d7b3          	srl	a5,a5,a4
   15b3c:	00f62023          	sw	a5,0(a2)
   15b40:	fcdff06f          	j	15b0c <__fixtfsi+0xb0>
   15b44:	00200893          	li	a7,2
   15b48:	fd150ae3          	beq	a0,a7,15b1c <__fixtfsi+0xc0>
   15b4c:	00000693          	li	a3,0
   15b50:	fe1ff06f          	j	15b30 <__fixtfsi+0xd4>

00015b54 <__floatsitf>:
   15b54:	fd010113          	addi	sp,sp,-48
   15b58:	02912223          	sw	s1,36(sp)
   15b5c:	02112623          	sw	ra,44(sp)
   15b60:	02812423          	sw	s0,40(sp)
   15b64:	03212023          	sw	s2,32(sp)
   15b68:	00050493          	mv	s1,a0
   15b6c:	10058e63          	beqz	a1,15c88 <__floatsitf+0x134>
   15b70:	41f5d793          	srai	a5,a1,0x1f
   15b74:	00b7c433          	xor	s0,a5,a1
   15b78:	40f40433          	sub	s0,s0,a5
   15b7c:	00040513          	mv	a0,s0
   15b80:	01f5d913          	srli	s2,a1,0x1f
   15b84:	3f8000ef          	jal	15f7c <__clzsi2>
   15b88:	05150793          	addi	a5,a0,81
   15b8c:	000045b7          	lui	a1,0x4
   15b90:	01e58593          	addi	a1,a1,30 # 401e <_start-0xbfe2>
   15b94:	4057d713          	srai	a4,a5,0x5
   15b98:	00812823          	sw	s0,16(sp)
   15b9c:	00012a23          	sw	zero,20(sp)
   15ba0:	00012c23          	sw	zero,24(sp)
   15ba4:	00012e23          	sw	zero,28(sp)
   15ba8:	01f7f793          	andi	a5,a5,31
   15bac:	40a585b3          	sub	a1,a1,a0
   15bb0:	01010613          	addi	a2,sp,16
   15bb4:	02078a63          	beqz	a5,15be8 <__floatsitf+0x94>
   15bb8:	00200693          	li	a3,2
   15bbc:	0cd71263          	bne	a4,a3,15c80 <__floatsitf+0x12c>
   15bc0:	02000693          	li	a3,32
   15bc4:	40f686b3          	sub	a3,a3,a5
   15bc8:	00d456b3          	srl	a3,s0,a3
   15bcc:	00d12e23          	sw	a3,28(sp)
   15bd0:	fff70693          	addi	a3,a4,-1
   15bd4:	00271713          	slli	a4,a4,0x2
   15bd8:	00e60733          	add	a4,a2,a4
   15bdc:	00f41433          	sll	s0,s0,a5
   15be0:	00872023          	sw	s0,0(a4)
   15be4:	0300006f          	j	15c14 <__floatsitf+0xc0>
   15be8:	00300793          	li	a5,3
   15bec:	40e787b3          	sub	a5,a5,a4
   15bf0:	00279793          	slli	a5,a5,0x2
   15bf4:	00f607b3          	add	a5,a2,a5
   15bf8:	0007a783          	lw	a5,0(a5)
   15bfc:	00f12e23          	sw	a5,28(sp)
   15c00:	00200793          	li	a5,2
   15c04:	00078693          	mv	a3,a5
   15c08:	00f71663          	bne	a4,a5,15c14 <__floatsitf+0xc0>
   15c0c:	00812c23          	sw	s0,24(sp)
   15c10:	00100693          	li	a3,1
   15c14:	00269693          	slli	a3,a3,0x2
   15c18:	00012823          	sw	zero,16(sp)
   15c1c:	00062223          	sw	zero,4(a2)
   15c20:	ffc68693          	addi	a3,a3,-4
   15c24:	00400793          	li	a5,4
   15c28:	00f6e463          	bltu	a3,a5,15c30 <__floatsitf+0xdc>
   15c2c:	00012c23          	sw	zero,24(sp)
   15c30:	01c12783          	lw	a5,28(sp)
   15c34:	02c12083          	lw	ra,44(sp)
   15c38:	02812403          	lw	s0,40(sp)
   15c3c:	00f11623          	sh	a5,12(sp)
   15c40:	00f91793          	slli	a5,s2,0xf
   15c44:	00b7e7b3          	or	a5,a5,a1
   15c48:	00f11723          	sh	a5,14(sp)
   15c4c:	01012783          	lw	a5,16(sp)
   15c50:	02012903          	lw	s2,32(sp)
   15c54:	00048513          	mv	a0,s1
   15c58:	00f4a023          	sw	a5,0(s1)
   15c5c:	01412783          	lw	a5,20(sp)
   15c60:	00f4a223          	sw	a5,4(s1)
   15c64:	01812783          	lw	a5,24(sp)
   15c68:	00f4a423          	sw	a5,8(s1)
   15c6c:	00c12783          	lw	a5,12(sp)
   15c70:	00f4a623          	sw	a5,12(s1)
   15c74:	02412483          	lw	s1,36(sp)
   15c78:	03010113          	addi	sp,sp,48
   15c7c:	00008067          	ret
   15c80:	00300713          	li	a4,3
   15c84:	f4dff06f          	j	15bd0 <__floatsitf+0x7c>
   15c88:	00012e23          	sw	zero,28(sp)
   15c8c:	00012c23          	sw	zero,24(sp)
   15c90:	00012a23          	sw	zero,20(sp)
   15c94:	00012823          	sw	zero,16(sp)
   15c98:	00000913          	li	s2,0
   15c9c:	f95ff06f          	j	15c30 <__floatsitf+0xdc>

00015ca0 <__extenddftf2>:
   15ca0:	01465713          	srli	a4,a2,0x14
   15ca4:	00c61793          	slli	a5,a2,0xc
   15ca8:	7ff77713          	andi	a4,a4,2047
   15cac:	fd010113          	addi	sp,sp,-48
   15cb0:	00c7d793          	srli	a5,a5,0xc
   15cb4:	00170693          	addi	a3,a4,1
   15cb8:	02812423          	sw	s0,40(sp)
   15cbc:	02912223          	sw	s1,36(sp)
   15cc0:	03212023          	sw	s2,32(sp)
   15cc4:	02112623          	sw	ra,44(sp)
   15cc8:	00b12823          	sw	a1,16(sp)
   15ccc:	00f12a23          	sw	a5,20(sp)
   15cd0:	00012e23          	sw	zero,28(sp)
   15cd4:	00012c23          	sw	zero,24(sp)
   15cd8:	7fe6f693          	andi	a3,a3,2046
   15cdc:	00050913          	mv	s2,a0
   15ce0:	00058413          	mv	s0,a1
   15ce4:	01f65493          	srli	s1,a2,0x1f
   15ce8:	08068263          	beqz	a3,15d6c <__extenddftf2+0xcc>
   15cec:	000046b7          	lui	a3,0x4
   15cf0:	c0068693          	addi	a3,a3,-1024 # 3c00 <_start-0xc400>
   15cf4:	00d70733          	add	a4,a4,a3
   15cf8:	0047d693          	srli	a3,a5,0x4
   15cfc:	00d12e23          	sw	a3,28(sp)
   15d00:	01c79793          	slli	a5,a5,0x1c
   15d04:	0045d693          	srli	a3,a1,0x4
   15d08:	00d7e7b3          	or	a5,a5,a3
   15d0c:	01c59413          	slli	s0,a1,0x1c
   15d10:	00f12c23          	sw	a5,24(sp)
   15d14:	00812a23          	sw	s0,20(sp)
   15d18:	00012823          	sw	zero,16(sp)
   15d1c:	01c12783          	lw	a5,28(sp)
   15d20:	00f49493          	slli	s1,s1,0xf
   15d24:	00e4e4b3          	or	s1,s1,a4
   15d28:	00f11623          	sh	a5,12(sp)
   15d2c:	01012783          	lw	a5,16(sp)
   15d30:	00911723          	sh	s1,14(sp)
   15d34:	02c12083          	lw	ra,44(sp)
   15d38:	00f92023          	sw	a5,0(s2)
   15d3c:	01412783          	lw	a5,20(sp)
   15d40:	02812403          	lw	s0,40(sp)
   15d44:	02412483          	lw	s1,36(sp)
   15d48:	00f92223          	sw	a5,4(s2)
   15d4c:	01812783          	lw	a5,24(sp)
   15d50:	00090513          	mv	a0,s2
   15d54:	00f92423          	sw	a5,8(s2)
   15d58:	00c12783          	lw	a5,12(sp)
   15d5c:	00f92623          	sw	a5,12(s2)
   15d60:	02012903          	lw	s2,32(sp)
   15d64:	03010113          	addi	sp,sp,48
   15d68:	00008067          	ret
   15d6c:	00b7e533          	or	a0,a5,a1
   15d70:	0e071c63          	bnez	a4,15e68 <__extenddftf2+0x1c8>
   15d74:	fa0504e3          	beqz	a0,15d1c <__extenddftf2+0x7c>
   15d78:	04078c63          	beqz	a5,15dd0 <__extenddftf2+0x130>
   15d7c:	00078513          	mv	a0,a5
   15d80:	1fc000ef          	jal	15f7c <__clzsi2>
   15d84:	03150713          	addi	a4,a0,49
   15d88:	40575613          	srai	a2,a4,0x5
   15d8c:	01f77713          	andi	a4,a4,31
   15d90:	40c007b3          	neg	a5,a2
   15d94:	04070463          	beqz	a4,15ddc <__extenddftf2+0x13c>
   15d98:	00279793          	slli	a5,a5,0x2
   15d9c:	00c78693          	addi	a3,a5,12
   15da0:	02000893          	li	a7,32
   15da4:	01010593          	addi	a1,sp,16
   15da8:	40e888b3          	sub	a7,a7,a4
   15dac:	00d586b3          	add	a3,a1,a3
   15db0:	40f007b3          	neg	a5,a5
   15db4:	08d59863          	bne	a1,a3,15e44 <__extenddftf2+0x1a4>
   15db8:	fff60793          	addi	a5,a2,-1
   15dbc:	00261613          	slli	a2,a2,0x2
   15dc0:	00c585b3          	add	a1,a1,a2
   15dc4:	00e41733          	sll	a4,s0,a4
   15dc8:	00e5a023          	sw	a4,0(a1)
   15dcc:	0380006f          	j	15e04 <__extenddftf2+0x164>
   15dd0:	1ac000ef          	jal	15f7c <__clzsi2>
   15dd4:	02050513          	addi	a0,a0,32
   15dd8:	fadff06f          	j	15d84 <__extenddftf2+0xe4>
   15ddc:	01c10713          	addi	a4,sp,28
   15de0:	00279793          	slli	a5,a5,0x2
   15de4:	00300693          	li	a3,3
   15de8:	00f705b3          	add	a1,a4,a5
   15dec:	0005a583          	lw	a1,0(a1)
   15df0:	fff68693          	addi	a3,a3,-1
   15df4:	ffc70713          	addi	a4,a4,-4
   15df8:	00b72223          	sw	a1,4(a4)
   15dfc:	fec6d6e3          	bge	a3,a2,15de8 <__extenddftf2+0x148>
   15e00:	fff60793          	addi	a5,a2,-1
   15e04:	00178793          	addi	a5,a5,1
   15e08:	00279793          	slli	a5,a5,0x2
   15e0c:	00800693          	li	a3,8
   15e10:	01010713          	addi	a4,sp,16
   15e14:	00d7ea63          	bltu	a5,a3,15e28 <__extenddftf2+0x188>
   15e18:	00012823          	sw	zero,16(sp)
   15e1c:	00072223          	sw	zero,4(a4)
   15e20:	ff878793          	addi	a5,a5,-8
   15e24:	01810713          	addi	a4,sp,24
   15e28:	00400693          	li	a3,4
   15e2c:	00d7e463          	bltu	a5,a3,15e34 <__extenddftf2+0x194>
   15e30:	00072023          	sw	zero,0(a4)
   15e34:	00004737          	lui	a4,0x4
   15e38:	c0c70713          	addi	a4,a4,-1012 # 3c0c <_start-0xc3f4>
   15e3c:	40a70733          	sub	a4,a4,a0
   15e40:	eddff06f          	j	15d1c <__extenddftf2+0x7c>
   15e44:	0006a803          	lw	a6,0(a3)
   15e48:	ffc6a303          	lw	t1,-4(a3)
   15e4c:	00f68e33          	add	t3,a3,a5
   15e50:	00e81833          	sll	a6,a6,a4
   15e54:	01135333          	srl	t1,t1,a7
   15e58:	00686833          	or	a6,a6,t1
   15e5c:	010e2023          	sw	a6,0(t3)
   15e60:	ffc68693          	addi	a3,a3,-4
   15e64:	f51ff06f          	j	15db4 <__extenddftf2+0x114>
   15e68:	02050863          	beqz	a0,15e98 <__extenddftf2+0x1f8>
   15e6c:	01c79713          	slli	a4,a5,0x1c
   15e70:	0045d693          	srli	a3,a1,0x4
   15e74:	00d76733          	or	a4,a4,a3
   15e78:	00e12c23          	sw	a4,24(sp)
   15e7c:	0047d793          	srli	a5,a5,0x4
   15e80:	00008737          	lui	a4,0x8
   15e84:	01c59413          	slli	s0,a1,0x1c
   15e88:	00e7e7b3          	or	a5,a5,a4
   15e8c:	00812a23          	sw	s0,20(sp)
   15e90:	00012823          	sw	zero,16(sp)
   15e94:	00f12e23          	sw	a5,28(sp)
   15e98:	00008737          	lui	a4,0x8
   15e9c:	fff70713          	addi	a4,a4,-1 # 7fff <_start-0x8001>
   15ea0:	e7dff06f          	j	15d1c <__extenddftf2+0x7c>

00015ea4 <__mulsi3>:
   15ea4:	00050613          	mv	a2,a0
   15ea8:	00000513          	li	a0,0
   15eac:	0015f693          	andi	a3,a1,1
   15eb0:	00068463          	beqz	a3,15eb8 <__mulsi3+0x14>
   15eb4:	00c50533          	add	a0,a0,a2
   15eb8:	0015d593          	srli	a1,a1,0x1
   15ebc:	00161613          	slli	a2,a2,0x1
   15ec0:	fe0596e3          	bnez	a1,15eac <__mulsi3+0x8>
   15ec4:	00008067          	ret

00015ec8 <__divsi3>:
   15ec8:	06054063          	bltz	a0,15f28 <__umodsi3+0x10>
   15ecc:	0605c663          	bltz	a1,15f38 <__umodsi3+0x20>

00015ed0 <__hidden___udivsi3>:
   15ed0:	00058613          	mv	a2,a1
   15ed4:	00050593          	mv	a1,a0
   15ed8:	fff00513          	li	a0,-1
   15edc:	02060c63          	beqz	a2,15f14 <__hidden___udivsi3+0x44>
   15ee0:	00100693          	li	a3,1
   15ee4:	00b67a63          	bgeu	a2,a1,15ef8 <__hidden___udivsi3+0x28>
   15ee8:	00c05863          	blez	a2,15ef8 <__hidden___udivsi3+0x28>
   15eec:	00161613          	slli	a2,a2,0x1
   15ef0:	00169693          	slli	a3,a3,0x1
   15ef4:	feb66ae3          	bltu	a2,a1,15ee8 <__hidden___udivsi3+0x18>
   15ef8:	00000513          	li	a0,0
   15efc:	00c5e663          	bltu	a1,a2,15f08 <__hidden___udivsi3+0x38>
   15f00:	40c585b3          	sub	a1,a1,a2
   15f04:	00d56533          	or	a0,a0,a3
   15f08:	0016d693          	srli	a3,a3,0x1
   15f0c:	00165613          	srli	a2,a2,0x1
   15f10:	fe0696e3          	bnez	a3,15efc <__hidden___udivsi3+0x2c>
   15f14:	00008067          	ret

00015f18 <__umodsi3>:
   15f18:	00008293          	mv	t0,ra
   15f1c:	fb5ff0ef          	jal	15ed0 <__hidden___udivsi3>
   15f20:	00058513          	mv	a0,a1
   15f24:	00028067          	jr	t0
   15f28:	40a00533          	neg	a0,a0
   15f2c:	00b04863          	bgtz	a1,15f3c <__umodsi3+0x24>
   15f30:	40b005b3          	neg	a1,a1
   15f34:	f9dff06f          	j	15ed0 <__hidden___udivsi3>
   15f38:	40b005b3          	neg	a1,a1
   15f3c:	00008293          	mv	t0,ra
   15f40:	f91ff0ef          	jal	15ed0 <__hidden___udivsi3>
   15f44:	40a00533          	neg	a0,a0
   15f48:	00028067          	jr	t0

00015f4c <__modsi3>:
   15f4c:	00008293          	mv	t0,ra
   15f50:	0005ca63          	bltz	a1,15f64 <__modsi3+0x18>
   15f54:	00054c63          	bltz	a0,15f6c <__modsi3+0x20>
   15f58:	f79ff0ef          	jal	15ed0 <__hidden___udivsi3>
   15f5c:	00058513          	mv	a0,a1
   15f60:	00028067          	jr	t0
   15f64:	40b005b3          	neg	a1,a1
   15f68:	fe0558e3          	bgez	a0,15f58 <__modsi3+0xc>
   15f6c:	40a00533          	neg	a0,a0
   15f70:	f61ff0ef          	jal	15ed0 <__hidden___udivsi3>
   15f74:	40b00533          	neg	a0,a1
   15f78:	00028067          	jr	t0

00015f7c <__clzsi2>:
   15f7c:	000107b7          	lui	a5,0x10
   15f80:	02f57a63          	bgeu	a0,a5,15fb4 <__clzsi2+0x38>
   15f84:	10053793          	sltiu	a5,a0,256
   15f88:	0017b793          	seqz	a5,a5
   15f8c:	00379793          	slli	a5,a5,0x3
   15f90:	00022737          	lui	a4,0x22
   15f94:	02000693          	li	a3,32
   15f98:	40f686b3          	sub	a3,a3,a5
   15f9c:	00f55533          	srl	a0,a0,a5
   15fa0:	95c70793          	addi	a5,a4,-1700 # 2195c <__clz_tab>
   15fa4:	00a787b3          	add	a5,a5,a0
   15fa8:	0007c503          	lbu	a0,0(a5) # 10000 <_start>
   15fac:	40a68533          	sub	a0,a3,a0
   15fb0:	00008067          	ret
   15fb4:	01000737          	lui	a4,0x1000
   15fb8:	01800793          	li	a5,24
   15fbc:	fce57ae3          	bgeu	a0,a4,15f90 <__clzsi2+0x14>
   15fc0:	01000793          	li	a5,16
   15fc4:	fcdff06f          	j	15f90 <__clzsi2+0x14>

00015fc8 <exit>:
   15fc8:	ff010113          	addi	sp,sp,-16
   15fcc:	00000593          	li	a1,0
   15fd0:	00812423          	sw	s0,8(sp)
   15fd4:	00112623          	sw	ra,12(sp)
   15fd8:	00050413          	mv	s0,a0
   15fdc:	0a1000ef          	jal	1687c <__call_exitprocs>
   15fe0:	8701a783          	lw	a5,-1936(gp) # 22728 <__stdio_exit_handler>
   15fe4:	00078463          	beqz	a5,15fec <exit+0x24>
   15fe8:	000780e7          	jalr	a5
   15fec:	00040513          	mv	a0,s0
   15ff0:	968fa0ef          	jal	10158 <_exit>

00015ff4 <main>:
   15ff4:	73736737          	lui	a4,0x73736
   15ff8:	333237b7          	lui	a5,0x33323
   15ffc:	00021537          	lui	a0,0x21
   16000:	fd010113          	addi	sp,sp,-48
   16004:	17070713          	addi	a4,a4,368 # 73736170 <__global_pointer$+0x737132b8>
   16008:	12478793          	addi	a5,a5,292 # 33323124 <__global_pointer$+0x3330026c>
   1600c:	17450513          	addi	a0,a0,372 # 21174 <_getpid_r+0x3c>
   16010:	02112623          	sw	ra,44(sp)
   16014:	00e12423          	sw	a4,8(sp)
   16018:	00f12623          	sw	a5,12(sp)
   1601c:	00010823          	sb	zero,16(sp)
   16020:	00e12a23          	sw	a4,20(sp)
   16024:	00f12c23          	sw	a5,24(sp)
   16028:	00010e23          	sb	zero,28(sp)
   1602c:	30c000ef          	jal	16338 <printf>
   16030:	00810593          	addi	a1,sp,8
   16034:	01410513          	addi	a0,sp,20
   16038:	a00fa0ef          	jal	10238 <strcmp>
   1603c:	02050063          	beqz	a0,1605c <main+0x68>
   16040:	00021537          	lui	a0,0x21
   16044:	18c50513          	addi	a0,a0,396 # 2118c <_getpid_r+0x54>
   16048:	414000ef          	jal	1645c <puts>
   1604c:	02c12083          	lw	ra,44(sp)
   16050:	00000513          	li	a0,0
   16054:	03010113          	addi	sp,sp,48
   16058:	00008067          	ret
   1605c:	854fa0ef          	jal	100b0 <secret_function>
   16060:	fedff06f          	j	1604c <main+0x58>

00016064 <register_fini>:
   16064:	00000793          	li	a5,0
   16068:	00078863          	beqz	a5,16078 <register_fini+0x14>
   1606c:	0001b537          	lui	a0,0x1b
   16070:	58850513          	addi	a0,a0,1416 # 1b588 <__libc_fini_array>
   16074:	13d0006f          	j	169b0 <atexit>
   16078:	00008067          	ret

0001607c <stdio_exit_handler>:
   1607c:	00022637          	lui	a2,0x22
   16080:	0001b5b7          	lui	a1,0x1b
   16084:	00022537          	lui	a0,0x22
   16088:	01060613          	addi	a2,a2,16 # 22010 <__sglue>
   1608c:	96858593          	addi	a1,a1,-1688 # 1a968 <_fclose_r>
   16090:	02050513          	addi	a0,a0,32 # 22020 <_impure_data>
   16094:	1f00006f          	j	16284 <_fwalk_sglue>

00016098 <cleanup_stdio>:
   16098:	00452583          	lw	a1,4(a0)
   1609c:	ff010113          	addi	sp,sp,-16
   160a0:	000227b7          	lui	a5,0x22
   160a4:	00812423          	sw	s0,8(sp)
   160a8:	00112623          	sw	ra,12(sp)
   160ac:	75c78793          	addi	a5,a5,1884 # 2275c <__sf>
   160b0:	00050413          	mv	s0,a0
   160b4:	00f58463          	beq	a1,a5,160bc <cleanup_stdio+0x24>
   160b8:	0b1040ef          	jal	1a968 <_fclose_r>
   160bc:	00842583          	lw	a1,8(s0)
   160c0:	90c18793          	addi	a5,gp,-1780 # 227c4 <__sf+0x68>
   160c4:	00f58663          	beq	a1,a5,160d0 <cleanup_stdio+0x38>
   160c8:	00040513          	mv	a0,s0
   160cc:	09d040ef          	jal	1a968 <_fclose_r>
   160d0:	00c42583          	lw	a1,12(s0)
   160d4:	97418793          	addi	a5,gp,-1676 # 2282c <__sf+0xd0>
   160d8:	00f58c63          	beq	a1,a5,160f0 <cleanup_stdio+0x58>
   160dc:	00040513          	mv	a0,s0
   160e0:	00812403          	lw	s0,8(sp)
   160e4:	00c12083          	lw	ra,12(sp)
   160e8:	01010113          	addi	sp,sp,16
   160ec:	07d0406f          	j	1a968 <_fclose_r>
   160f0:	00c12083          	lw	ra,12(sp)
   160f4:	00812403          	lw	s0,8(sp)
   160f8:	01010113          	addi	sp,sp,16
   160fc:	00008067          	ret

00016100 <global_stdio_init.part.0>:
   16100:	fe010113          	addi	sp,sp,-32
   16104:	00812c23          	sw	s0,24(sp)
   16108:	000167b7          	lui	a5,0x16
   1610c:	00022437          	lui	s0,0x22
   16110:	75c40413          	addi	s0,s0,1884 # 2275c <__sf>
   16114:	00112e23          	sw	ra,28(sp)
   16118:	00912a23          	sw	s1,20(sp)
   1611c:	01212823          	sw	s2,16(sp)
   16120:	01312623          	sw	s3,12(sp)
   16124:	01412423          	sw	s4,8(sp)
   16128:	00400713          	li	a4,4
   1612c:	07c78793          	addi	a5,a5,124 # 1607c <stdio_exit_handler>
   16130:	00800613          	li	a2,8
   16134:	00000593          	li	a1,0
   16138:	90018513          	addi	a0,gp,-1792 # 227b8 <__sf+0x5c>
   1613c:	86f1a823          	sw	a5,-1936(gp) # 22728 <__stdio_exit_handler>
   16140:	00e42623          	sw	a4,12(s0)
   16144:	00042023          	sw	zero,0(s0)
   16148:	00042223          	sw	zero,4(s0)
   1614c:	00042423          	sw	zero,8(s0)
   16150:	06042223          	sw	zero,100(s0)
   16154:	00042823          	sw	zero,16(s0)
   16158:	00042a23          	sw	zero,20(s0)
   1615c:	00042c23          	sw	zero,24(s0)
   16160:	ffdf90ef          	jal	1015c <memset>
   16164:	000107b7          	lui	a5,0x10
   16168:	00016a37          	lui	s4,0x16
   1616c:	000169b7          	lui	s3,0x16
   16170:	00016937          	lui	s2,0x16
   16174:	000164b7          	lui	s1,0x16
   16178:	468a0a13          	addi	s4,s4,1128 # 16468 <__sread>
   1617c:	4c498993          	addi	s3,s3,1220 # 164c4 <__swrite>
   16180:	54c90913          	addi	s2,s2,1356 # 1654c <__sseek>
   16184:	5b048493          	addi	s1,s1,1456 # 165b0 <__sclose>
   16188:	00978793          	addi	a5,a5,9 # 10009 <_start+0x9>
   1618c:	00800613          	li	a2,8
   16190:	00000593          	li	a1,0
   16194:	96818513          	addi	a0,gp,-1688 # 22820 <__sf+0xc4>
   16198:	06f42a23          	sw	a5,116(s0)
   1619c:	03442023          	sw	s4,32(s0)
   161a0:	03342223          	sw	s3,36(s0)
   161a4:	03242423          	sw	s2,40(s0)
   161a8:	02942623          	sw	s1,44(s0)
   161ac:	00842e23          	sw	s0,28(s0)
   161b0:	06042423          	sw	zero,104(s0)
   161b4:	06042623          	sw	zero,108(s0)
   161b8:	06042823          	sw	zero,112(s0)
   161bc:	0c042623          	sw	zero,204(s0)
   161c0:	06042c23          	sw	zero,120(s0)
   161c4:	06042e23          	sw	zero,124(s0)
   161c8:	08042023          	sw	zero,128(s0)
   161cc:	f91f90ef          	jal	1015c <memset>
   161d0:	000207b7          	lui	a5,0x20
   161d4:	01278793          	addi	a5,a5,18 # 20012 <_vfiprintf_r+0x546>
   161d8:	90c18713          	addi	a4,gp,-1780 # 227c4 <__sf+0x68>
   161dc:	9d018513          	addi	a0,gp,-1584 # 22888 <__sf+0x12c>
   161e0:	00800613          	li	a2,8
   161e4:	00000593          	li	a1,0
   161e8:	09442423          	sw	s4,136(s0)
   161ec:	09342623          	sw	s3,140(s0)
   161f0:	09242823          	sw	s2,144(s0)
   161f4:	08942a23          	sw	s1,148(s0)
   161f8:	0cf42e23          	sw	a5,220(s0)
   161fc:	0c042823          	sw	zero,208(s0)
   16200:	0c042a23          	sw	zero,212(s0)
   16204:	0c042c23          	sw	zero,216(s0)
   16208:	12042a23          	sw	zero,308(s0)
   1620c:	0e042023          	sw	zero,224(s0)
   16210:	0e042223          	sw	zero,228(s0)
   16214:	0e042423          	sw	zero,232(s0)
   16218:	08e42223          	sw	a4,132(s0)
   1621c:	f41f90ef          	jal	1015c <memset>
   16220:	97418793          	addi	a5,gp,-1676 # 2282c <__sf+0xd0>
   16224:	0f442823          	sw	s4,240(s0)
   16228:	0f342a23          	sw	s3,244(s0)
   1622c:	0f242c23          	sw	s2,248(s0)
   16230:	0e942e23          	sw	s1,252(s0)
   16234:	01c12083          	lw	ra,28(sp)
   16238:	0ef42623          	sw	a5,236(s0)
   1623c:	01812403          	lw	s0,24(sp)
   16240:	01412483          	lw	s1,20(sp)
   16244:	01012903          	lw	s2,16(sp)
   16248:	00c12983          	lw	s3,12(sp)
   1624c:	00812a03          	lw	s4,8(sp)
   16250:	02010113          	addi	sp,sp,32
   16254:	00008067          	ret

00016258 <__sinit>:
   16258:	03452783          	lw	a5,52(a0)
   1625c:	00078463          	beqz	a5,16264 <__sinit+0xc>
   16260:	00008067          	ret
   16264:	000167b7          	lui	a5,0x16
   16268:	8701a703          	lw	a4,-1936(gp) # 22728 <__stdio_exit_handler>
   1626c:	09878793          	addi	a5,a5,152 # 16098 <cleanup_stdio>
   16270:	02f52a23          	sw	a5,52(a0)
   16274:	fe0716e3          	bnez	a4,16260 <__sinit+0x8>
   16278:	e89ff06f          	j	16100 <global_stdio_init.part.0>

0001627c <__sfp_lock_acquire>:
   1627c:	00008067          	ret

00016280 <__sfp_lock_release>:
   16280:	00008067          	ret

00016284 <_fwalk_sglue>:
   16284:	fd010113          	addi	sp,sp,-48
   16288:	03212023          	sw	s2,32(sp)
   1628c:	01312e23          	sw	s3,28(sp)
   16290:	01412c23          	sw	s4,24(sp)
   16294:	01512a23          	sw	s5,20(sp)
   16298:	01612823          	sw	s6,16(sp)
   1629c:	01712623          	sw	s7,12(sp)
   162a0:	02112623          	sw	ra,44(sp)
   162a4:	02812423          	sw	s0,40(sp)
   162a8:	02912223          	sw	s1,36(sp)
   162ac:	00050b13          	mv	s6,a0
   162b0:	00058b93          	mv	s7,a1
   162b4:	00060a93          	mv	s5,a2
   162b8:	00000a13          	li	s4,0
   162bc:	00100993          	li	s3,1
   162c0:	fff00913          	li	s2,-1
   162c4:	004aa483          	lw	s1,4(s5)
   162c8:	008aa403          	lw	s0,8(s5)
   162cc:	fff48493          	addi	s1,s1,-1
   162d0:	0204c863          	bltz	s1,16300 <_fwalk_sglue+0x7c>
   162d4:	00c45783          	lhu	a5,12(s0)
   162d8:	00f9fe63          	bgeu	s3,a5,162f4 <_fwalk_sglue+0x70>
   162dc:	00e41783          	lh	a5,14(s0)
   162e0:	00040593          	mv	a1,s0
   162e4:	000b0513          	mv	a0,s6
   162e8:	01278663          	beq	a5,s2,162f4 <_fwalk_sglue+0x70>
   162ec:	000b80e7          	jalr	s7
   162f0:	00aa6a33          	or	s4,s4,a0
   162f4:	fff48493          	addi	s1,s1,-1
   162f8:	06840413          	addi	s0,s0,104
   162fc:	fd249ce3          	bne	s1,s2,162d4 <_fwalk_sglue+0x50>
   16300:	000aaa83          	lw	s5,0(s5)
   16304:	fc0a90e3          	bnez	s5,162c4 <_fwalk_sglue+0x40>
   16308:	02c12083          	lw	ra,44(sp)
   1630c:	02812403          	lw	s0,40(sp)
   16310:	02412483          	lw	s1,36(sp)
   16314:	02012903          	lw	s2,32(sp)
   16318:	01c12983          	lw	s3,28(sp)
   1631c:	01412a83          	lw	s5,20(sp)
   16320:	01012b03          	lw	s6,16(sp)
   16324:	00c12b83          	lw	s7,12(sp)
   16328:	000a0513          	mv	a0,s4
   1632c:	01812a03          	lw	s4,24(sp)
   16330:	03010113          	addi	sp,sp,48
   16334:	00008067          	ret

00016338 <printf>:
   16338:	8601a303          	lw	t1,-1952(gp) # 22718 <_impure_ptr>
   1633c:	fc010113          	addi	sp,sp,-64
   16340:	02c12423          	sw	a2,40(sp)
   16344:	02d12623          	sw	a3,44(sp)
   16348:	02b12223          	sw	a1,36(sp)
   1634c:	02e12823          	sw	a4,48(sp)
   16350:	02f12a23          	sw	a5,52(sp)
   16354:	03012c23          	sw	a6,56(sp)
   16358:	03112e23          	sw	a7,60(sp)
   1635c:	00832583          	lw	a1,8(t1)
   16360:	02410693          	addi	a3,sp,36
   16364:	00050613          	mv	a2,a0
   16368:	00030513          	mv	a0,t1
   1636c:	00112e23          	sw	ra,28(sp)
   16370:	00d12623          	sw	a3,12(sp)
   16374:	288010ef          	jal	175fc <_vfprintf_r>
   16378:	01c12083          	lw	ra,28(sp)
   1637c:	04010113          	addi	sp,sp,64
   16380:	00008067          	ret

00016384 <_puts_r>:
   16384:	fc010113          	addi	sp,sp,-64
   16388:	02812c23          	sw	s0,56(sp)
   1638c:	00050413          	mv	s0,a0
   16390:	00058513          	mv	a0,a1
   16394:	02912a23          	sw	s1,52(sp)
   16398:	02112e23          	sw	ra,60(sp)
   1639c:	00058493          	mv	s1,a1
   163a0:	450000ef          	jal	167f0 <strlen>
   163a4:	000217b7          	lui	a5,0x21
   163a8:	03442703          	lw	a4,52(s0)
   163ac:	00100593          	li	a1,1
   163b0:	00150813          	addi	a6,a0,1
   163b4:	1d078793          	addi	a5,a5,464 # 211d0 <_getpid_r+0x98>
   163b8:	02010613          	addi	a2,sp,32
   163bc:	00200693          	li	a3,2
   163c0:	02b12623          	sw	a1,44(sp)
   163c4:	02912023          	sw	s1,32(sp)
   163c8:	02a12223          	sw	a0,36(sp)
   163cc:	01012e23          	sw	a6,28(sp)
   163d0:	02f12423          	sw	a5,40(sp)
   163d4:	00c12a23          	sw	a2,20(sp)
   163d8:	00d12c23          	sw	a3,24(sp)
   163dc:	00842583          	lw	a1,8(s0)
   163e0:	06070463          	beqz	a4,16448 <_puts_r+0xc4>
   163e4:	00c59783          	lh	a5,12(a1)
   163e8:	0645a703          	lw	a4,100(a1)
   163ec:	00002637          	lui	a2,0x2
   163f0:	01279693          	slli	a3,a5,0x12
   163f4:	0406c263          	bltz	a3,16438 <_puts_r+0xb4>
   163f8:	ffffe6b7          	lui	a3,0xffffe
   163fc:	fff68693          	addi	a3,a3,-1 # ffffdfff <__global_pointer$+0xfffdb147>
   16400:	00c7e7b3          	or	a5,a5,a2
   16404:	00d77733          	and	a4,a4,a3
   16408:	00f59623          	sh	a5,12(a1)
   1640c:	06e5a223          	sw	a4,100(a1)
   16410:	00040513          	mv	a0,s0
   16414:	01410613          	addi	a2,sp,20
   16418:	10d040ef          	jal	1ad24 <__sfvwrite_r>
   1641c:	02051263          	bnez	a0,16440 <_puts_r+0xbc>
   16420:	00a00513          	li	a0,10
   16424:	03c12083          	lw	ra,60(sp)
   16428:	03812403          	lw	s0,56(sp)
   1642c:	03412483          	lw	s1,52(sp)
   16430:	04010113          	addi	sp,sp,64
   16434:	00008067          	ret
   16438:	01271793          	slli	a5,a4,0x12
   1643c:	fc07dae3          	bgez	a5,16410 <_puts_r+0x8c>
   16440:	fff00513          	li	a0,-1
   16444:	fe1ff06f          	j	16424 <_puts_r+0xa0>
   16448:	00040513          	mv	a0,s0
   1644c:	00b12623          	sw	a1,12(sp)
   16450:	e09ff0ef          	jal	16258 <__sinit>
   16454:	00c12583          	lw	a1,12(sp)
   16458:	f8dff06f          	j	163e4 <_puts_r+0x60>

0001645c <puts>:
   1645c:	00050593          	mv	a1,a0
   16460:	8601a503          	lw	a0,-1952(gp) # 22718 <_impure_ptr>
   16464:	f21ff06f          	j	16384 <_puts_r>

00016468 <__sread>:
   16468:	ff010113          	addi	sp,sp,-16
   1646c:	00812423          	sw	s0,8(sp)
   16470:	00058413          	mv	s0,a1
   16474:	00e59583          	lh	a1,14(a1)
   16478:	00112623          	sw	ra,12(sp)
   1647c:	200000ef          	jal	1667c <_read_r>
   16480:	02054063          	bltz	a0,164a0 <__sread+0x38>
   16484:	05042783          	lw	a5,80(s0)
   16488:	00c12083          	lw	ra,12(sp)
   1648c:	00a787b3          	add	a5,a5,a0
   16490:	04f42823          	sw	a5,80(s0)
   16494:	00812403          	lw	s0,8(sp)
   16498:	01010113          	addi	sp,sp,16
   1649c:	00008067          	ret
   164a0:	00c45783          	lhu	a5,12(s0)
   164a4:	fffff737          	lui	a4,0xfffff
   164a8:	fff70713          	addi	a4,a4,-1 # ffffefff <__global_pointer$+0xfffdc147>
   164ac:	00e7f7b3          	and	a5,a5,a4
   164b0:	00c12083          	lw	ra,12(sp)
   164b4:	00f41623          	sh	a5,12(s0)
   164b8:	00812403          	lw	s0,8(sp)
   164bc:	01010113          	addi	sp,sp,16
   164c0:	00008067          	ret

000164c4 <__swrite>:
   164c4:	00c59783          	lh	a5,12(a1)
   164c8:	fe010113          	addi	sp,sp,-32
   164cc:	00812c23          	sw	s0,24(sp)
   164d0:	00912a23          	sw	s1,20(sp)
   164d4:	01212823          	sw	s2,16(sp)
   164d8:	01312623          	sw	s3,12(sp)
   164dc:	00112e23          	sw	ra,28(sp)
   164e0:	1007f713          	andi	a4,a5,256
   164e4:	00058413          	mv	s0,a1
   164e8:	00060913          	mv	s2,a2
   164ec:	00068993          	mv	s3,a3
   164f0:	00050493          	mv	s1,a0
   164f4:	04071063          	bnez	a4,16534 <__swrite+0x70>
   164f8:	fffff737          	lui	a4,0xfffff
   164fc:	fff70713          	addi	a4,a4,-1 # ffffefff <__global_pointer$+0xfffdc147>
   16500:	00e7f7b3          	and	a5,a5,a4
   16504:	00e41583          	lh	a1,14(s0)
   16508:	00f41623          	sh	a5,12(s0)
   1650c:	01812403          	lw	s0,24(sp)
   16510:	01c12083          	lw	ra,28(sp)
   16514:	00098693          	mv	a3,s3
   16518:	00090613          	mv	a2,s2
   1651c:	00c12983          	lw	s3,12(sp)
   16520:	01012903          	lw	s2,16(sp)
   16524:	00048513          	mv	a0,s1
   16528:	01412483          	lw	s1,20(sp)
   1652c:	02010113          	addi	sp,sp,32
   16530:	1b40006f          	j	166e4 <_write_r>
   16534:	00e59583          	lh	a1,14(a1)
   16538:	00200693          	li	a3,2
   1653c:	00000613          	li	a2,0
   16540:	0d4000ef          	jal	16614 <_lseek_r>
   16544:	00c41783          	lh	a5,12(s0)
   16548:	fb1ff06f          	j	164f8 <__swrite+0x34>

0001654c <__sseek>:
   1654c:	ff010113          	addi	sp,sp,-16
   16550:	00812423          	sw	s0,8(sp)
   16554:	00058413          	mv	s0,a1
   16558:	00e59583          	lh	a1,14(a1)
   1655c:	00112623          	sw	ra,12(sp)
   16560:	0b4000ef          	jal	16614 <_lseek_r>
   16564:	fff00713          	li	a4,-1
   16568:	00c41783          	lh	a5,12(s0)
   1656c:	02e50263          	beq	a0,a4,16590 <__sseek+0x44>
   16570:	00001737          	lui	a4,0x1
   16574:	00e7e7b3          	or	a5,a5,a4
   16578:	00c12083          	lw	ra,12(sp)
   1657c:	04a42823          	sw	a0,80(s0)
   16580:	00f41623          	sh	a5,12(s0)
   16584:	00812403          	lw	s0,8(sp)
   16588:	01010113          	addi	sp,sp,16
   1658c:	00008067          	ret
   16590:	fffff737          	lui	a4,0xfffff
   16594:	fff70713          	addi	a4,a4,-1 # ffffefff <__global_pointer$+0xfffdc147>
   16598:	00e7f7b3          	and	a5,a5,a4
   1659c:	00c12083          	lw	ra,12(sp)
   165a0:	00f41623          	sh	a5,12(s0)
   165a4:	00812403          	lw	s0,8(sp)
   165a8:	01010113          	addi	sp,sp,16
   165ac:	00008067          	ret

000165b0 <__sclose>:
   165b0:	00e59583          	lh	a1,14(a1)
   165b4:	0040006f          	j	165b8 <_close_r>

000165b8 <_close_r>:
   165b8:	ff010113          	addi	sp,sp,-16
   165bc:	00812423          	sw	s0,8(sp)
   165c0:	00912223          	sw	s1,4(sp)
   165c4:	00050413          	mv	s0,a0
   165c8:	00058513          	mv	a0,a1
   165cc:	00112623          	sw	ra,12(sp)
   165d0:	8601aa23          	sw	zero,-1932(gp) # 2272c <errno>
   165d4:	b3df90ef          	jal	10110 <_close>
   165d8:	fff00793          	li	a5,-1
   165dc:	00f50c63          	beq	a0,a5,165f4 <_close_r+0x3c>
   165e0:	00c12083          	lw	ra,12(sp)
   165e4:	00812403          	lw	s0,8(sp)
   165e8:	00412483          	lw	s1,4(sp)
   165ec:	01010113          	addi	sp,sp,16
   165f0:	00008067          	ret
   165f4:	8741a783          	lw	a5,-1932(gp) # 2272c <errno>
   165f8:	fe0784e3          	beqz	a5,165e0 <_close_r+0x28>
   165fc:	00c12083          	lw	ra,12(sp)
   16600:	00f42023          	sw	a5,0(s0)
   16604:	00812403          	lw	s0,8(sp)
   16608:	00412483          	lw	s1,4(sp)
   1660c:	01010113          	addi	sp,sp,16
   16610:	00008067          	ret

00016614 <_lseek_r>:
   16614:	ff010113          	addi	sp,sp,-16
   16618:	00058713          	mv	a4,a1
   1661c:	00812423          	sw	s0,8(sp)
   16620:	00912223          	sw	s1,4(sp)
   16624:	00060593          	mv	a1,a2
   16628:	00050413          	mv	s0,a0
   1662c:	00068613          	mv	a2,a3
   16630:	00070513          	mv	a0,a4
   16634:	00112623          	sw	ra,12(sp)
   16638:	8601aa23          	sw	zero,-1932(gp) # 2272c <errno>
   1663c:	a81f90ef          	jal	100bc <_access>
   16640:	fff00793          	li	a5,-1
   16644:	00f50c63          	beq	a0,a5,1665c <_lseek_r+0x48>
   16648:	00c12083          	lw	ra,12(sp)
   1664c:	00812403          	lw	s0,8(sp)
   16650:	00412483          	lw	s1,4(sp)
   16654:	01010113          	addi	sp,sp,16
   16658:	00008067          	ret
   1665c:	8741a783          	lw	a5,-1932(gp) # 2272c <errno>
   16660:	fe0784e3          	beqz	a5,16648 <_lseek_r+0x34>
   16664:	00c12083          	lw	ra,12(sp)
   16668:	00f42023          	sw	a5,0(s0)
   1666c:	00812403          	lw	s0,8(sp)
   16670:	00412483          	lw	s1,4(sp)
   16674:	01010113          	addi	sp,sp,16
   16678:	00008067          	ret

0001667c <_read_r>:
   1667c:	ff010113          	addi	sp,sp,-16
   16680:	00058713          	mv	a4,a1
   16684:	00812423          	sw	s0,8(sp)
   16688:	00912223          	sw	s1,4(sp)
   1668c:	00060593          	mv	a1,a2
   16690:	00050413          	mv	s0,a0
   16694:	00068613          	mv	a2,a3
   16698:	00070513          	mv	a0,a4
   1669c:	00112623          	sw	ra,12(sp)
   166a0:	8601aa23          	sw	zero,-1932(gp) # 2272c <errno>
   166a4:	a41f90ef          	jal	100e4 <_read>
   166a8:	fff00793          	li	a5,-1
   166ac:	00f50c63          	beq	a0,a5,166c4 <_read_r+0x48>
   166b0:	00c12083          	lw	ra,12(sp)
   166b4:	00812403          	lw	s0,8(sp)
   166b8:	00412483          	lw	s1,4(sp)
   166bc:	01010113          	addi	sp,sp,16
   166c0:	00008067          	ret
   166c4:	8741a783          	lw	a5,-1932(gp) # 2272c <errno>
   166c8:	fe0784e3          	beqz	a5,166b0 <_read_r+0x34>
   166cc:	00c12083          	lw	ra,12(sp)
   166d0:	00f42023          	sw	a5,0(s0)
   166d4:	00812403          	lw	s0,8(sp)
   166d8:	00412483          	lw	s1,4(sp)
   166dc:	01010113          	addi	sp,sp,16
   166e0:	00008067          	ret

000166e4 <_write_r>:
   166e4:	ff010113          	addi	sp,sp,-16
   166e8:	00058713          	mv	a4,a1
   166ec:	00812423          	sw	s0,8(sp)
   166f0:	00912223          	sw	s1,4(sp)
   166f4:	00060593          	mv	a1,a2
   166f8:	00050413          	mv	s0,a0
   166fc:	00068613          	mv	a2,a3
   16700:	00070513          	mv	a0,a4
   16704:	00112623          	sw	ra,12(sp)
   16708:	8601aa23          	sw	zero,-1932(gp) # 2272c <errno>
   1670c:	9e1f90ef          	jal	100ec <_write>
   16710:	fff00793          	li	a5,-1
   16714:	00f50c63          	beq	a0,a5,1672c <_write_r+0x48>
   16718:	00c12083          	lw	ra,12(sp)
   1671c:	00812403          	lw	s0,8(sp)
   16720:	00412483          	lw	s1,4(sp)
   16724:	01010113          	addi	sp,sp,16
   16728:	00008067          	ret
   1672c:	8741a783          	lw	a5,-1932(gp) # 2272c <errno>
   16730:	fe0784e3          	beqz	a5,16718 <_write_r+0x34>
   16734:	00c12083          	lw	ra,12(sp)
   16738:	00f42023          	sw	a5,0(s0)
   1673c:	00812403          	lw	s0,8(sp)
   16740:	00412483          	lw	s1,4(sp)
   16744:	01010113          	addi	sp,sp,16
   16748:	00008067          	ret

0001674c <__errno>:
   1674c:	8601a503          	lw	a0,-1952(gp) # 22718 <_impure_ptr>
   16750:	00008067          	ret

00016754 <__libc_init_array>:
   16754:	ff010113          	addi	sp,sp,-16
   16758:	00812423          	sw	s0,8(sp)
   1675c:	000227b7          	lui	a5,0x22
   16760:	00022437          	lui	s0,0x22
   16764:	01212023          	sw	s2,0(sp)
   16768:	00078793          	mv	a5,a5
   1676c:	00040713          	mv	a4,s0
   16770:	00112623          	sw	ra,12(sp)
   16774:	00912223          	sw	s1,4(sp)
   16778:	40e78933          	sub	s2,a5,a4
   1677c:	02e78263          	beq	a5,a4,167a0 <__libc_init_array+0x4c>
   16780:	40295913          	srai	s2,s2,0x2
   16784:	00040413          	mv	s0,s0
   16788:	00000493          	li	s1,0
   1678c:	00042783          	lw	a5,0(s0) # 22000 <__init_array_start>
   16790:	00148493          	addi	s1,s1,1
   16794:	00440413          	addi	s0,s0,4
   16798:	000780e7          	jalr	a5 # 22000 <__init_array_start>
   1679c:	ff24e8e3          	bltu	s1,s2,1678c <__libc_init_array+0x38>
   167a0:	000227b7          	lui	a5,0x22
   167a4:	00022437          	lui	s0,0x22
   167a8:	00878793          	addi	a5,a5,8 # 22008 <__do_global_dtors_aux_fini_array_entry>
   167ac:	00040713          	mv	a4,s0
   167b0:	40e78933          	sub	s2,a5,a4
   167b4:	40295913          	srai	s2,s2,0x2
   167b8:	02e78063          	beq	a5,a4,167d8 <__libc_init_array+0x84>
   167bc:	00040413          	mv	s0,s0
   167c0:	00000493          	li	s1,0
   167c4:	00042783          	lw	a5,0(s0) # 22000 <__init_array_start>
   167c8:	00148493          	addi	s1,s1,1
   167cc:	00440413          	addi	s0,s0,4
   167d0:	000780e7          	jalr	a5
   167d4:	ff24e8e3          	bltu	s1,s2,167c4 <__libc_init_array+0x70>
   167d8:	00c12083          	lw	ra,12(sp)
   167dc:	00812403          	lw	s0,8(sp)
   167e0:	00412483          	lw	s1,4(sp)
   167e4:	00012903          	lw	s2,0(sp)
   167e8:	01010113          	addi	sp,sp,16
   167ec:	00008067          	ret

000167f0 <strlen>:
   167f0:	00357793          	andi	a5,a0,3
   167f4:	00050713          	mv	a4,a0
   167f8:	04079c63          	bnez	a5,16850 <strlen+0x60>
   167fc:	7f7f86b7          	lui	a3,0x7f7f8
   16800:	f7f68693          	addi	a3,a3,-129 # 7f7f7f7f <__global_pointer$+0x7f7d50c7>
   16804:	fff00593          	li	a1,-1
   16808:	00072603          	lw	a2,0(a4)
   1680c:	00470713          	addi	a4,a4,4
   16810:	00d677b3          	and	a5,a2,a3
   16814:	00d787b3          	add	a5,a5,a3
   16818:	00c7e7b3          	or	a5,a5,a2
   1681c:	00d7e7b3          	or	a5,a5,a3
   16820:	feb784e3          	beq	a5,a1,16808 <strlen+0x18>
   16824:	ffc74683          	lbu	a3,-4(a4)
   16828:	40a707b3          	sub	a5,a4,a0
   1682c:	04068463          	beqz	a3,16874 <strlen+0x84>
   16830:	ffd74683          	lbu	a3,-3(a4)
   16834:	02068c63          	beqz	a3,1686c <strlen+0x7c>
   16838:	ffe74503          	lbu	a0,-2(a4)
   1683c:	00a03533          	snez	a0,a0
   16840:	00f50533          	add	a0,a0,a5
   16844:	ffe50513          	addi	a0,a0,-2
   16848:	00008067          	ret
   1684c:	fa0688e3          	beqz	a3,167fc <strlen+0xc>
   16850:	00074783          	lbu	a5,0(a4)
   16854:	00170713          	addi	a4,a4,1
   16858:	00377693          	andi	a3,a4,3
   1685c:	fe0798e3          	bnez	a5,1684c <strlen+0x5c>
   16860:	40a70733          	sub	a4,a4,a0
   16864:	fff70513          	addi	a0,a4,-1
   16868:	00008067          	ret
   1686c:	ffd78513          	addi	a0,a5,-3
   16870:	00008067          	ret
   16874:	ffc78513          	addi	a0,a5,-4
   16878:	00008067          	ret

0001687c <__call_exitprocs>:
   1687c:	fd010113          	addi	sp,sp,-48
   16880:	01412c23          	sw	s4,24(sp)
   16884:	03212023          	sw	s2,32(sp)
   16888:	8781a903          	lw	s2,-1928(gp) # 22730 <__atexit>
   1688c:	02112623          	sw	ra,44(sp)
   16890:	06090c63          	beqz	s2,16908 <__call_exitprocs+0x8c>
   16894:	01312e23          	sw	s3,28(sp)
   16898:	01512a23          	sw	s5,20(sp)
   1689c:	01612823          	sw	s6,16(sp)
   168a0:	01712623          	sw	s7,12(sp)
   168a4:	02812423          	sw	s0,40(sp)
   168a8:	02912223          	sw	s1,36(sp)
   168ac:	01812423          	sw	s8,8(sp)
   168b0:	00050b13          	mv	s6,a0
   168b4:	00058b93          	mv	s7,a1
   168b8:	fff00993          	li	s3,-1
   168bc:	00100a93          	li	s5,1
   168c0:	00492483          	lw	s1,4(s2)
   168c4:	fff48413          	addi	s0,s1,-1
   168c8:	02044263          	bltz	s0,168ec <__call_exitprocs+0x70>
   168cc:	00249493          	slli	s1,s1,0x2
   168d0:	009904b3          	add	s1,s2,s1
   168d4:	040b8463          	beqz	s7,1691c <__call_exitprocs+0xa0>
   168d8:	1044a783          	lw	a5,260(s1)
   168dc:	05778063          	beq	a5,s7,1691c <__call_exitprocs+0xa0>
   168e0:	fff40413          	addi	s0,s0,-1
   168e4:	ffc48493          	addi	s1,s1,-4
   168e8:	ff3418e3          	bne	s0,s3,168d8 <__call_exitprocs+0x5c>
   168ec:	02812403          	lw	s0,40(sp)
   168f0:	02412483          	lw	s1,36(sp)
   168f4:	01c12983          	lw	s3,28(sp)
   168f8:	01412a83          	lw	s5,20(sp)
   168fc:	01012b03          	lw	s6,16(sp)
   16900:	00c12b83          	lw	s7,12(sp)
   16904:	00812c03          	lw	s8,8(sp)
   16908:	02c12083          	lw	ra,44(sp)
   1690c:	02012903          	lw	s2,32(sp)
   16910:	01812a03          	lw	s4,24(sp)
   16914:	03010113          	addi	sp,sp,48
   16918:	00008067          	ret
   1691c:	00492783          	lw	a5,4(s2)
   16920:	0044a683          	lw	a3,4(s1)
   16924:	fff78793          	addi	a5,a5,-1
   16928:	06878a63          	beq	a5,s0,1699c <__call_exitprocs+0x120>
   1692c:	0004a223          	sw	zero,4(s1)
   16930:	02068663          	beqz	a3,1695c <__call_exitprocs+0xe0>
   16934:	18892783          	lw	a5,392(s2)
   16938:	008a9733          	sll	a4,s5,s0
   1693c:	00492c03          	lw	s8,4(s2)
   16940:	00f777b3          	and	a5,a4,a5
   16944:	02079463          	bnez	a5,1696c <__call_exitprocs+0xf0>
   16948:	000680e7          	jalr	a3
   1694c:	00492703          	lw	a4,4(s2)
   16950:	8781a783          	lw	a5,-1928(gp) # 22730 <__atexit>
   16954:	03871e63          	bne	a4,s8,16990 <__call_exitprocs+0x114>
   16958:	03279c63          	bne	a5,s2,16990 <__call_exitprocs+0x114>
   1695c:	fff40413          	addi	s0,s0,-1
   16960:	ffc48493          	addi	s1,s1,-4
   16964:	f73418e3          	bne	s0,s3,168d4 <__call_exitprocs+0x58>
   16968:	f85ff06f          	j	168ec <__call_exitprocs+0x70>
   1696c:	18c92783          	lw	a5,396(s2)
   16970:	0844a583          	lw	a1,132(s1)
   16974:	00f77733          	and	a4,a4,a5
   16978:	02071663          	bnez	a4,169a4 <__call_exitprocs+0x128>
   1697c:	000b0513          	mv	a0,s6
   16980:	000680e7          	jalr	a3
   16984:	00492703          	lw	a4,4(s2)
   16988:	8781a783          	lw	a5,-1928(gp) # 22730 <__atexit>
   1698c:	fd8706e3          	beq	a4,s8,16958 <__call_exitprocs+0xdc>
   16990:	f4078ee3          	beqz	a5,168ec <__call_exitprocs+0x70>
   16994:	00078913          	mv	s2,a5
   16998:	f29ff06f          	j	168c0 <__call_exitprocs+0x44>
   1699c:	00892223          	sw	s0,4(s2)
   169a0:	f91ff06f          	j	16930 <__call_exitprocs+0xb4>
   169a4:	00058513          	mv	a0,a1
   169a8:	000680e7          	jalr	a3
   169ac:	fa1ff06f          	j	1694c <__call_exitprocs+0xd0>

000169b0 <atexit>:
   169b0:	00050593          	mv	a1,a0
   169b4:	00000693          	li	a3,0
   169b8:	00000613          	li	a2,0
   169bc:	00000513          	li	a0,0
   169c0:	7f90406f          	j	1b9b8 <__register_exitproc>

000169c4 <_malloc_trim_r>:
   169c4:	fe010113          	addi	sp,sp,-32
   169c8:	01312623          	sw	s3,12(sp)
   169cc:	000229b7          	lui	s3,0x22
   169d0:	00812c23          	sw	s0,24(sp)
   169d4:	00912a23          	sw	s1,20(sp)
   169d8:	01212823          	sw	s2,16(sp)
   169dc:	01412423          	sw	s4,8(sp)
   169e0:	00112e23          	sw	ra,28(sp)
   169e4:	00058a13          	mv	s4,a1
   169e8:	00050913          	mv	s2,a0
   169ec:	14098993          	addi	s3,s3,320 # 22140 <__malloc_av_>
   169f0:	405000ef          	jal	175f4 <__malloc_lock>
   169f4:	0089a783          	lw	a5,8(s3)
   169f8:	00001437          	lui	s0,0x1
   169fc:	fef40413          	addi	s0,s0,-17 # fef <_start-0xf011>
   16a00:	0047a483          	lw	s1,4(a5)
   16a04:	000017b7          	lui	a5,0x1
   16a08:	ffc4f493          	andi	s1,s1,-4
   16a0c:	00848433          	add	s0,s1,s0
   16a10:	41440433          	sub	s0,s0,s4
   16a14:	00c45413          	srli	s0,s0,0xc
   16a18:	fff40413          	addi	s0,s0,-1
   16a1c:	00c41413          	slli	s0,s0,0xc
   16a20:	00f44e63          	blt	s0,a5,16a3c <_malloc_trim_r+0x78>
   16a24:	00000593          	li	a1,0
   16a28:	00090513          	mv	a0,s2
   16a2c:	301040ef          	jal	1b52c <_sbrk_r>
   16a30:	0089a783          	lw	a5,8(s3)
   16a34:	009787b3          	add	a5,a5,s1
   16a38:	02f50863          	beq	a0,a5,16a68 <_malloc_trim_r+0xa4>
   16a3c:	00090513          	mv	a0,s2
   16a40:	3b9000ef          	jal	175f8 <__malloc_unlock>
   16a44:	01c12083          	lw	ra,28(sp)
   16a48:	01812403          	lw	s0,24(sp)
   16a4c:	01412483          	lw	s1,20(sp)
   16a50:	01012903          	lw	s2,16(sp)
   16a54:	00c12983          	lw	s3,12(sp)
   16a58:	00812a03          	lw	s4,8(sp)
   16a5c:	00000513          	li	a0,0
   16a60:	02010113          	addi	sp,sp,32
   16a64:	00008067          	ret
   16a68:	408005b3          	neg	a1,s0
   16a6c:	00090513          	mv	a0,s2
   16a70:	2bd040ef          	jal	1b52c <_sbrk_r>
   16a74:	fff00793          	li	a5,-1
   16a78:	04f50863          	beq	a0,a5,16ac8 <_malloc_trim_r+0x104>
   16a7c:	9dc18793          	addi	a5,gp,-1572 # 22894 <__malloc_current_mallinfo>
   16a80:	0089a683          	lw	a3,8(s3)
   16a84:	0007a703          	lw	a4,0(a5) # 1000 <_start-0xf000>
   16a88:	408484b3          	sub	s1,s1,s0
   16a8c:	0014e493          	ori	s1,s1,1
   16a90:	00090513          	mv	a0,s2
   16a94:	40870733          	sub	a4,a4,s0
   16a98:	0096a223          	sw	s1,4(a3)
   16a9c:	00e7a023          	sw	a4,0(a5)
   16aa0:	359000ef          	jal	175f8 <__malloc_unlock>
   16aa4:	01c12083          	lw	ra,28(sp)
   16aa8:	01812403          	lw	s0,24(sp)
   16aac:	01412483          	lw	s1,20(sp)
   16ab0:	01012903          	lw	s2,16(sp)
   16ab4:	00c12983          	lw	s3,12(sp)
   16ab8:	00812a03          	lw	s4,8(sp)
   16abc:	00100513          	li	a0,1
   16ac0:	02010113          	addi	sp,sp,32
   16ac4:	00008067          	ret
   16ac8:	00000593          	li	a1,0
   16acc:	00090513          	mv	a0,s2
   16ad0:	25d040ef          	jal	1b52c <_sbrk_r>
   16ad4:	0089a703          	lw	a4,8(s3)
   16ad8:	00f00693          	li	a3,15
   16adc:	40e507b3          	sub	a5,a0,a4
   16ae0:	f4f6dee3          	bge	a3,a5,16a3c <_malloc_trim_r+0x78>
   16ae4:	8641a603          	lw	a2,-1948(gp) # 2271c <__malloc_sbrk_base>
   16ae8:	0017e793          	ori	a5,a5,1
   16aec:	40c50533          	sub	a0,a0,a2
   16af0:	00f72223          	sw	a5,4(a4)
   16af4:	9ca1ae23          	sw	a0,-1572(gp) # 22894 <__malloc_current_mallinfo>
   16af8:	f45ff06f          	j	16a3c <_malloc_trim_r+0x78>

00016afc <_free_r>:
   16afc:	12058663          	beqz	a1,16c28 <_free_r+0x12c>
   16b00:	ff010113          	addi	sp,sp,-16
   16b04:	00812423          	sw	s0,8(sp)
   16b08:	00912223          	sw	s1,4(sp)
   16b0c:	00058413          	mv	s0,a1
   16b10:	00050493          	mv	s1,a0
   16b14:	00112623          	sw	ra,12(sp)
   16b18:	2dd000ef          	jal	175f4 <__malloc_lock>
   16b1c:	ffc42503          	lw	a0,-4(s0)
   16b20:	ff840713          	addi	a4,s0,-8
   16b24:	000225b7          	lui	a1,0x22
   16b28:	ffe57793          	andi	a5,a0,-2
   16b2c:	00f70633          	add	a2,a4,a5
   16b30:	14058593          	addi	a1,a1,320 # 22140 <__malloc_av_>
   16b34:	00462683          	lw	a3,4(a2) # 2004 <_start-0xdffc>
   16b38:	0085a803          	lw	a6,8(a1)
   16b3c:	00157893          	andi	a7,a0,1
   16b40:	ffc6f693          	andi	a3,a3,-4
   16b44:	18c80c63          	beq	a6,a2,16cdc <_free_r+0x1e0>
   16b48:	00d62223          	sw	a3,4(a2)
   16b4c:	00d60833          	add	a6,a2,a3
   16b50:	00482803          	lw	a6,4(a6)
   16b54:	00187813          	andi	a6,a6,1
   16b58:	08089c63          	bnez	a7,16bf0 <_free_r+0xf4>
   16b5c:	ff842303          	lw	t1,-8(s0)
   16b60:	00022537          	lui	a0,0x22
   16b64:	14850513          	addi	a0,a0,328 # 22148 <__malloc_av_+0x8>
   16b68:	40670733          	sub	a4,a4,t1
   16b6c:	00872883          	lw	a7,8(a4)
   16b70:	006787b3          	add	a5,a5,t1
   16b74:	12a88e63          	beq	a7,a0,16cb0 <_free_r+0x1b4>
   16b78:	00c72303          	lw	t1,12(a4)
   16b7c:	0068a623          	sw	t1,12(a7)
   16b80:	01132423          	sw	a7,8(t1)
   16b84:	1a080063          	beqz	a6,16d24 <_free_r+0x228>
   16b88:	0017e693          	ori	a3,a5,1
   16b8c:	00d72223          	sw	a3,4(a4)
   16b90:	00f62023          	sw	a5,0(a2)
   16b94:	1ff00693          	li	a3,511
   16b98:	0af6e463          	bltu	a3,a5,16c40 <_free_r+0x144>
   16b9c:	ff87f693          	andi	a3,a5,-8
   16ba0:	00868693          	addi	a3,a3,8
   16ba4:	0045a503          	lw	a0,4(a1)
   16ba8:	00d586b3          	add	a3,a1,a3
   16bac:	0006a603          	lw	a2,0(a3)
   16bb0:	0057d813          	srli	a6,a5,0x5
   16bb4:	00100793          	li	a5,1
   16bb8:	010797b3          	sll	a5,a5,a6
   16bbc:	00a7e7b3          	or	a5,a5,a0
   16bc0:	ff868513          	addi	a0,a3,-8
   16bc4:	00c72423          	sw	a2,8(a4)
   16bc8:	00a72623          	sw	a0,12(a4)
   16bcc:	00f5a223          	sw	a5,4(a1)
   16bd0:	00e6a023          	sw	a4,0(a3)
   16bd4:	00e62623          	sw	a4,12(a2)
   16bd8:	00812403          	lw	s0,8(sp)
   16bdc:	00c12083          	lw	ra,12(sp)
   16be0:	00048513          	mv	a0,s1
   16be4:	00412483          	lw	s1,4(sp)
   16be8:	01010113          	addi	sp,sp,16
   16bec:	20d0006f          	j	175f8 <__malloc_unlock>
   16bf0:	02081e63          	bnez	a6,16c2c <_free_r+0x130>
   16bf4:	00022537          	lui	a0,0x22
   16bf8:	00d787b3          	add	a5,a5,a3
   16bfc:	14850513          	addi	a0,a0,328 # 22148 <__malloc_av_+0x8>
   16c00:	00862683          	lw	a3,8(a2)
   16c04:	0017e893          	ori	a7,a5,1
   16c08:	00f70833          	add	a6,a4,a5
   16c0c:	16a68263          	beq	a3,a0,16d70 <_free_r+0x274>
   16c10:	00c62603          	lw	a2,12(a2)
   16c14:	00c6a623          	sw	a2,12(a3)
   16c18:	00d62423          	sw	a3,8(a2)
   16c1c:	01172223          	sw	a7,4(a4)
   16c20:	00f82023          	sw	a5,0(a6)
   16c24:	f71ff06f          	j	16b94 <_free_r+0x98>
   16c28:	00008067          	ret
   16c2c:	00156513          	ori	a0,a0,1
   16c30:	fea42e23          	sw	a0,-4(s0)
   16c34:	00f62023          	sw	a5,0(a2)
   16c38:	1ff00693          	li	a3,511
   16c3c:	f6f6f0e3          	bgeu	a3,a5,16b9c <_free_r+0xa0>
   16c40:	0097d693          	srli	a3,a5,0x9
   16c44:	00400613          	li	a2,4
   16c48:	0ed66263          	bltu	a2,a3,16d2c <_free_r+0x230>
   16c4c:	0067d693          	srli	a3,a5,0x6
   16c50:	03968513          	addi	a0,a3,57
   16c54:	00351513          	slli	a0,a0,0x3
   16c58:	03868613          	addi	a2,a3,56
   16c5c:	00a58533          	add	a0,a1,a0
   16c60:	00052683          	lw	a3,0(a0)
   16c64:	ff850513          	addi	a0,a0,-8
   16c68:	00d51863          	bne	a0,a3,16c78 <_free_r+0x17c>
   16c6c:	1200006f          	j	16d8c <_free_r+0x290>
   16c70:	0086a683          	lw	a3,8(a3)
   16c74:	00d50863          	beq	a0,a3,16c84 <_free_r+0x188>
   16c78:	0046a603          	lw	a2,4(a3)
   16c7c:	ffc67613          	andi	a2,a2,-4
   16c80:	fec7e8e3          	bltu	a5,a2,16c70 <_free_r+0x174>
   16c84:	00c6a503          	lw	a0,12(a3)
   16c88:	00a72623          	sw	a0,12(a4)
   16c8c:	00d72423          	sw	a3,8(a4)
   16c90:	00812403          	lw	s0,8(sp)
   16c94:	00e52423          	sw	a4,8(a0)
   16c98:	00c12083          	lw	ra,12(sp)
   16c9c:	00048513          	mv	a0,s1
   16ca0:	00412483          	lw	s1,4(sp)
   16ca4:	00e6a623          	sw	a4,12(a3)
   16ca8:	01010113          	addi	sp,sp,16
   16cac:	14d0006f          	j	175f8 <__malloc_unlock>
   16cb0:	0a081063          	bnez	a6,16d50 <_free_r+0x254>
   16cb4:	00c62583          	lw	a1,12(a2)
   16cb8:	00862603          	lw	a2,8(a2)
   16cbc:	00f686b3          	add	a3,a3,a5
   16cc0:	0016e793          	ori	a5,a3,1
   16cc4:	00b62623          	sw	a1,12(a2)
   16cc8:	00c5a423          	sw	a2,8(a1)
   16ccc:	00f72223          	sw	a5,4(a4)
   16cd0:	00d70733          	add	a4,a4,a3
   16cd4:	00d72023          	sw	a3,0(a4)
   16cd8:	f01ff06f          	j	16bd8 <_free_r+0xdc>
   16cdc:	00d786b3          	add	a3,a5,a3
   16ce0:	02089063          	bnez	a7,16d00 <_free_r+0x204>
   16ce4:	ff842503          	lw	a0,-8(s0)
   16ce8:	40a70733          	sub	a4,a4,a0
   16cec:	00c72783          	lw	a5,12(a4)
   16cf0:	00872603          	lw	a2,8(a4)
   16cf4:	00a686b3          	add	a3,a3,a0
   16cf8:	00f62623          	sw	a5,12(a2)
   16cfc:	00c7a423          	sw	a2,8(a5)
   16d00:	0016e613          	ori	a2,a3,1
   16d04:	8681a783          	lw	a5,-1944(gp) # 22720 <__malloc_trim_threshold>
   16d08:	00c72223          	sw	a2,4(a4)
   16d0c:	00e5a423          	sw	a4,8(a1)
   16d10:	ecf6e4e3          	bltu	a3,a5,16bd8 <_free_r+0xdc>
   16d14:	8841a583          	lw	a1,-1916(gp) # 2273c <__malloc_top_pad>
   16d18:	00048513          	mv	a0,s1
   16d1c:	ca9ff0ef          	jal	169c4 <_malloc_trim_r>
   16d20:	eb9ff06f          	j	16bd8 <_free_r+0xdc>
   16d24:	00d787b3          	add	a5,a5,a3
   16d28:	ed9ff06f          	j	16c00 <_free_r+0x104>
   16d2c:	01400613          	li	a2,20
   16d30:	02d67863          	bgeu	a2,a3,16d60 <_free_r+0x264>
   16d34:	05400613          	li	a2,84
   16d38:	06d66863          	bltu	a2,a3,16da8 <_free_r+0x2ac>
   16d3c:	00c7d693          	srli	a3,a5,0xc
   16d40:	06f68513          	addi	a0,a3,111
   16d44:	00351513          	slli	a0,a0,0x3
   16d48:	06e68613          	addi	a2,a3,110
   16d4c:	f11ff06f          	j	16c5c <_free_r+0x160>
   16d50:	0017e693          	ori	a3,a5,1
   16d54:	00d72223          	sw	a3,4(a4)
   16d58:	00f62023          	sw	a5,0(a2)
   16d5c:	e7dff06f          	j	16bd8 <_free_r+0xdc>
   16d60:	05c68513          	addi	a0,a3,92
   16d64:	00351513          	slli	a0,a0,0x3
   16d68:	05b68613          	addi	a2,a3,91
   16d6c:	ef1ff06f          	j	16c5c <_free_r+0x160>
   16d70:	00e5aa23          	sw	a4,20(a1)
   16d74:	00e5a823          	sw	a4,16(a1)
   16d78:	00a72623          	sw	a0,12(a4)
   16d7c:	00a72423          	sw	a0,8(a4)
   16d80:	01172223          	sw	a7,4(a4)
   16d84:	00f82023          	sw	a5,0(a6)
   16d88:	e51ff06f          	j	16bd8 <_free_r+0xdc>
   16d8c:	0045a803          	lw	a6,4(a1)
   16d90:	40265613          	srai	a2,a2,0x2
   16d94:	00100793          	li	a5,1
   16d98:	00c797b3          	sll	a5,a5,a2
   16d9c:	0107e7b3          	or	a5,a5,a6
   16da0:	00f5a223          	sw	a5,4(a1)
   16da4:	ee5ff06f          	j	16c88 <_free_r+0x18c>
   16da8:	15400613          	li	a2,340
   16dac:	00d66c63          	bltu	a2,a3,16dc4 <_free_r+0x2c8>
   16db0:	00f7d693          	srli	a3,a5,0xf
   16db4:	07868513          	addi	a0,a3,120
   16db8:	00351513          	slli	a0,a0,0x3
   16dbc:	07768613          	addi	a2,a3,119
   16dc0:	e9dff06f          	j	16c5c <_free_r+0x160>
   16dc4:	55400613          	li	a2,1364
   16dc8:	00d66c63          	bltu	a2,a3,16de0 <_free_r+0x2e4>
   16dcc:	0127d693          	srli	a3,a5,0x12
   16dd0:	07d68513          	addi	a0,a3,125
   16dd4:	00351513          	slli	a0,a0,0x3
   16dd8:	07c68613          	addi	a2,a3,124
   16ddc:	e81ff06f          	j	16c5c <_free_r+0x160>
   16de0:	3f800513          	li	a0,1016
   16de4:	07e00613          	li	a2,126
   16de8:	e75ff06f          	j	16c5c <_free_r+0x160>

00016dec <_malloc_r>:
   16dec:	fd010113          	addi	sp,sp,-48
   16df0:	01312e23          	sw	s3,28(sp)
   16df4:	02112623          	sw	ra,44(sp)
   16df8:	02812423          	sw	s0,40(sp)
   16dfc:	02912223          	sw	s1,36(sp)
   16e00:	03212023          	sw	s2,32(sp)
   16e04:	00b58793          	addi	a5,a1,11
   16e08:	01600713          	li	a4,22
   16e0c:	00050993          	mv	s3,a0
   16e10:	08f76063          	bltu	a4,a5,16e90 <_malloc_r+0xa4>
   16e14:	01000493          	li	s1,16
   16e18:	20b4e463          	bltu	s1,a1,17020 <_malloc_r+0x234>
   16e1c:	7d8000ef          	jal	175f4 <__malloc_lock>
   16e20:	01800793          	li	a5,24
   16e24:	00200593          	li	a1,2
   16e28:	00022937          	lui	s2,0x22
   16e2c:	14090913          	addi	s2,s2,320 # 22140 <__malloc_av_>
   16e30:	00f907b3          	add	a5,s2,a5
   16e34:	0047a403          	lw	s0,4(a5)
   16e38:	ff878713          	addi	a4,a5,-8
   16e3c:	44e40663          	beq	s0,a4,17288 <_malloc_r+0x49c>
   16e40:	00442783          	lw	a5,4(s0)
   16e44:	00c42683          	lw	a3,12(s0)
   16e48:	00842603          	lw	a2,8(s0)
   16e4c:	ffc7f793          	andi	a5,a5,-4
   16e50:	00f407b3          	add	a5,s0,a5
   16e54:	0047a703          	lw	a4,4(a5)
   16e58:	00d62623          	sw	a3,12(a2)
   16e5c:	00c6a423          	sw	a2,8(a3)
   16e60:	00176713          	ori	a4,a4,1
   16e64:	00098513          	mv	a0,s3
   16e68:	00e7a223          	sw	a4,4(a5)
   16e6c:	78c000ef          	jal	175f8 <__malloc_unlock>
   16e70:	02c12083          	lw	ra,44(sp)
   16e74:	00840513          	addi	a0,s0,8
   16e78:	02812403          	lw	s0,40(sp)
   16e7c:	02412483          	lw	s1,36(sp)
   16e80:	02012903          	lw	s2,32(sp)
   16e84:	01c12983          	lw	s3,28(sp)
   16e88:	03010113          	addi	sp,sp,48
   16e8c:	00008067          	ret
   16e90:	ff87f493          	andi	s1,a5,-8
   16e94:	1807c663          	bltz	a5,17020 <_malloc_r+0x234>
   16e98:	18b4e463          	bltu	s1,a1,17020 <_malloc_r+0x234>
   16e9c:	758000ef          	jal	175f4 <__malloc_lock>
   16ea0:	1f700793          	li	a5,503
   16ea4:	4e97fc63          	bgeu	a5,s1,1739c <_malloc_r+0x5b0>
   16ea8:	0094d793          	srli	a5,s1,0x9
   16eac:	18078e63          	beqz	a5,17048 <_malloc_r+0x25c>
   16eb0:	00400713          	li	a4,4
   16eb4:	44f76263          	bltu	a4,a5,172f8 <_malloc_r+0x50c>
   16eb8:	0064d793          	srli	a5,s1,0x6
   16ebc:	03978593          	addi	a1,a5,57
   16ec0:	03878813          	addi	a6,a5,56
   16ec4:	00359613          	slli	a2,a1,0x3
   16ec8:	00022937          	lui	s2,0x22
   16ecc:	14090913          	addi	s2,s2,320 # 22140 <__malloc_av_>
   16ed0:	00c90633          	add	a2,s2,a2
   16ed4:	00462403          	lw	s0,4(a2)
   16ed8:	ff860613          	addi	a2,a2,-8
   16edc:	02860863          	beq	a2,s0,16f0c <_malloc_r+0x120>
   16ee0:	00f00513          	li	a0,15
   16ee4:	0140006f          	j	16ef8 <_malloc_r+0x10c>
   16ee8:	00c42683          	lw	a3,12(s0)
   16eec:	34075c63          	bgez	a4,17244 <_malloc_r+0x458>
   16ef0:	00d60e63          	beq	a2,a3,16f0c <_malloc_r+0x120>
   16ef4:	00068413          	mv	s0,a3
   16ef8:	00442783          	lw	a5,4(s0)
   16efc:	ffc7f793          	andi	a5,a5,-4
   16f00:	40978733          	sub	a4,a5,s1
   16f04:	fee552e3          	bge	a0,a4,16ee8 <_malloc_r+0xfc>
   16f08:	00080593          	mv	a1,a6
   16f0c:	01092403          	lw	s0,16(s2)
   16f10:	00022837          	lui	a6,0x22
   16f14:	14880813          	addi	a6,a6,328 # 22148 <__malloc_av_+0x8>
   16f18:	2b040663          	beq	s0,a6,171c4 <_malloc_r+0x3d8>
   16f1c:	00442783          	lw	a5,4(s0)
   16f20:	00f00693          	li	a3,15
   16f24:	ffc7f793          	andi	a5,a5,-4
   16f28:	40978733          	sub	a4,a5,s1
   16f2c:	46e6ce63          	blt	a3,a4,173a8 <_malloc_r+0x5bc>
   16f30:	01092a23          	sw	a6,20(s2)
   16f34:	01092823          	sw	a6,16(s2)
   16f38:	44075263          	bgez	a4,1737c <_malloc_r+0x590>
   16f3c:	1ff00713          	li	a4,511
   16f40:	00492503          	lw	a0,4(s2)
   16f44:	34f76a63          	bltu	a4,a5,17298 <_malloc_r+0x4ac>
   16f48:	ff87f713          	andi	a4,a5,-8
   16f4c:	00870713          	addi	a4,a4,8
   16f50:	00e90733          	add	a4,s2,a4
   16f54:	00072683          	lw	a3,0(a4)
   16f58:	0057d613          	srli	a2,a5,0x5
   16f5c:	00100793          	li	a5,1
   16f60:	00c797b3          	sll	a5,a5,a2
   16f64:	00f56533          	or	a0,a0,a5
   16f68:	ff870793          	addi	a5,a4,-8
   16f6c:	00d42423          	sw	a3,8(s0)
   16f70:	00f42623          	sw	a5,12(s0)
   16f74:	00a92223          	sw	a0,4(s2)
   16f78:	00872023          	sw	s0,0(a4)
   16f7c:	0086a623          	sw	s0,12(a3)
   16f80:	4025d793          	srai	a5,a1,0x2
   16f84:	00100613          	li	a2,1
   16f88:	00f61633          	sll	a2,a2,a5
   16f8c:	0cc56663          	bltu	a0,a2,17058 <_malloc_r+0x26c>
   16f90:	00a677b3          	and	a5,a2,a0
   16f94:	02079463          	bnez	a5,16fbc <_malloc_r+0x1d0>
   16f98:	00161613          	slli	a2,a2,0x1
   16f9c:	ffc5f593          	andi	a1,a1,-4
   16fa0:	00a677b3          	and	a5,a2,a0
   16fa4:	00458593          	addi	a1,a1,4
   16fa8:	00079a63          	bnez	a5,16fbc <_malloc_r+0x1d0>
   16fac:	00161613          	slli	a2,a2,0x1
   16fb0:	00a677b3          	and	a5,a2,a0
   16fb4:	00458593          	addi	a1,a1,4
   16fb8:	fe078ae3          	beqz	a5,16fac <_malloc_r+0x1c0>
   16fbc:	00f00893          	li	a7,15
   16fc0:	00359313          	slli	t1,a1,0x3
   16fc4:	00690333          	add	t1,s2,t1
   16fc8:	00030513          	mv	a0,t1
   16fcc:	00c52783          	lw	a5,12(a0)
   16fd0:	00058e13          	mv	t3,a1
   16fd4:	34f50463          	beq	a0,a5,1731c <_malloc_r+0x530>
   16fd8:	0047a703          	lw	a4,4(a5)
   16fdc:	00078413          	mv	s0,a5
   16fe0:	00c7a783          	lw	a5,12(a5)
   16fe4:	ffc77713          	andi	a4,a4,-4
   16fe8:	409706b3          	sub	a3,a4,s1
   16fec:	34d8c463          	blt	a7,a3,17334 <_malloc_r+0x548>
   16ff0:	fe06c2e3          	bltz	a3,16fd4 <_malloc_r+0x1e8>
   16ff4:	00e40733          	add	a4,s0,a4
   16ff8:	00472683          	lw	a3,4(a4)
   16ffc:	00842603          	lw	a2,8(s0)
   17000:	00098513          	mv	a0,s3
   17004:	0016e693          	ori	a3,a3,1
   17008:	00d72223          	sw	a3,4(a4)
   1700c:	00f62623          	sw	a5,12(a2)
   17010:	00c7a423          	sw	a2,8(a5)
   17014:	5e4000ef          	jal	175f8 <__malloc_unlock>
   17018:	00840513          	addi	a0,s0,8
   1701c:	0100006f          	j	1702c <_malloc_r+0x240>
   17020:	00c00793          	li	a5,12
   17024:	00f9a023          	sw	a5,0(s3)
   17028:	00000513          	li	a0,0
   1702c:	02c12083          	lw	ra,44(sp)
   17030:	02812403          	lw	s0,40(sp)
   17034:	02412483          	lw	s1,36(sp)
   17038:	02012903          	lw	s2,32(sp)
   1703c:	01c12983          	lw	s3,28(sp)
   17040:	03010113          	addi	sp,sp,48
   17044:	00008067          	ret
   17048:	20000613          	li	a2,512
   1704c:	04000593          	li	a1,64
   17050:	03f00813          	li	a6,63
   17054:	e75ff06f          	j	16ec8 <_malloc_r+0xdc>
   17058:	00892403          	lw	s0,8(s2)
   1705c:	01612823          	sw	s6,16(sp)
   17060:	00442783          	lw	a5,4(s0)
   17064:	ffc7fb13          	andi	s6,a5,-4
   17068:	009b6863          	bltu	s6,s1,17078 <_malloc_r+0x28c>
   1706c:	409b0733          	sub	a4,s6,s1
   17070:	00f00793          	li	a5,15
   17074:	18e7c663          	blt	a5,a4,17200 <_malloc_r+0x414>
   17078:	01912223          	sw	s9,4(sp)
   1707c:	01512a23          	sw	s5,20(sp)
   17080:	8641a703          	lw	a4,-1948(gp) # 2271c <__malloc_sbrk_base>
   17084:	8841aa83          	lw	s5,-1916(gp) # 2273c <__malloc_top_pad>
   17088:	01412c23          	sw	s4,24(sp)
   1708c:	01712623          	sw	s7,12(sp)
   17090:	fff00793          	li	a5,-1
   17094:	01548ab3          	add	s5,s1,s5
   17098:	01640a33          	add	s4,s0,s6
   1709c:	3cf70c63          	beq	a4,a5,17474 <_malloc_r+0x688>
   170a0:	000017b7          	lui	a5,0x1
   170a4:	00f78793          	addi	a5,a5,15 # 100f <_start-0xeff1>
   170a8:	00fa8ab3          	add	s5,s5,a5
   170ac:	fffff7b7          	lui	a5,0xfffff
   170b0:	00fafab3          	and	s5,s5,a5
   170b4:	000a8593          	mv	a1,s5
   170b8:	00098513          	mv	a0,s3
   170bc:	470040ef          	jal	1b52c <_sbrk_r>
   170c0:	fff00793          	li	a5,-1
   170c4:	00050b93          	mv	s7,a0
   170c8:	46f50863          	beq	a0,a5,17538 <_malloc_r+0x74c>
   170cc:	01812423          	sw	s8,8(sp)
   170d0:	0f456e63          	bltu	a0,s4,171cc <_malloc_r+0x3e0>
   170d4:	9dc18c13          	addi	s8,gp,-1572 # 22894 <__malloc_current_mallinfo>
   170d8:	000c2583          	lw	a1,0(s8)
   170dc:	00ba85b3          	add	a1,s5,a1
   170e0:	00bc2023          	sw	a1,0(s8)
   170e4:	00058713          	mv	a4,a1
   170e8:	44aa0e63          	beq	s4,a0,17544 <_malloc_r+0x758>
   170ec:	8641a683          	lw	a3,-1948(gp) # 2271c <__malloc_sbrk_base>
   170f0:	fff00793          	li	a5,-1
   170f4:	46f68663          	beq	a3,a5,17560 <_malloc_r+0x774>
   170f8:	414b87b3          	sub	a5,s7,s4
   170fc:	00e787b3          	add	a5,a5,a4
   17100:	00fc2023          	sw	a5,0(s8)
   17104:	007bfc93          	andi	s9,s7,7
   17108:	380c8663          	beqz	s9,17494 <_malloc_r+0x6a8>
   1710c:	419b8bb3          	sub	s7,s7,s9
   17110:	000015b7          	lui	a1,0x1
   17114:	008b8b93          	addi	s7,s7,8
   17118:	00858593          	addi	a1,a1,8 # 1008 <_start-0xeff8>
   1711c:	015b8ab3          	add	s5,s7,s5
   17120:	419585b3          	sub	a1,a1,s9
   17124:	415585b3          	sub	a1,a1,s5
   17128:	01459593          	slli	a1,a1,0x14
   1712c:	0145da13          	srli	s4,a1,0x14
   17130:	000a0593          	mv	a1,s4
   17134:	00098513          	mv	a0,s3
   17138:	3f4040ef          	jal	1b52c <_sbrk_r>
   1713c:	fff00793          	li	a5,-1
   17140:	46f50063          	beq	a0,a5,175a0 <_malloc_r+0x7b4>
   17144:	41750533          	sub	a0,a0,s7
   17148:	01450ab3          	add	s5,a0,s4
   1714c:	000c2703          	lw	a4,0(s8)
   17150:	01792423          	sw	s7,8(s2)
   17154:	001ae793          	ori	a5,s5,1
   17158:	00ea05b3          	add	a1,s4,a4
   1715c:	00fba223          	sw	a5,4(s7)
   17160:	00bc2023          	sw	a1,0(s8)
   17164:	03240e63          	beq	s0,s2,171a0 <_malloc_r+0x3b4>
   17168:	00f00693          	li	a3,15
   1716c:	3566fa63          	bgeu	a3,s6,174c0 <_malloc_r+0x6d4>
   17170:	00442703          	lw	a4,4(s0)
   17174:	ff4b0793          	addi	a5,s6,-12
   17178:	ff87f793          	andi	a5,a5,-8
   1717c:	00177713          	andi	a4,a4,1
   17180:	00f76733          	or	a4,a4,a5
   17184:	00e42223          	sw	a4,4(s0)
   17188:	00500613          	li	a2,5
   1718c:	00f40733          	add	a4,s0,a5
   17190:	00c72223          	sw	a2,4(a4)
   17194:	00c72423          	sw	a2,8(a4)
   17198:	2cf6e263          	bltu	a3,a5,1745c <_malloc_r+0x670>
   1719c:	004ba783          	lw	a5,4(s7)
   171a0:	8801a683          	lw	a3,-1920(gp) # 22738 <__malloc_max_sbrked_mem>
   171a4:	00b6f463          	bgeu	a3,a1,171ac <_malloc_r+0x3c0>
   171a8:	88b1a023          	sw	a1,-1920(gp) # 22738 <__malloc_max_sbrked_mem>
   171ac:	87c1a683          	lw	a3,-1924(gp) # 22734 <__malloc_max_total_mem>
   171b0:	00b6f463          	bgeu	a3,a1,171b8 <_malloc_r+0x3cc>
   171b4:	86b1ae23          	sw	a1,-1924(gp) # 22734 <__malloc_max_total_mem>
   171b8:	00812c03          	lw	s8,8(sp)
   171bc:	000b8413          	mv	s0,s7
   171c0:	01c0006f          	j	171dc <_malloc_r+0x3f0>
   171c4:	00492503          	lw	a0,4(s2)
   171c8:	db9ff06f          	j	16f80 <_malloc_r+0x194>
   171cc:	35240c63          	beq	s0,s2,17524 <_malloc_r+0x738>
   171d0:	00892403          	lw	s0,8(s2)
   171d4:	00812c03          	lw	s8,8(sp)
   171d8:	00442783          	lw	a5,4(s0)
   171dc:	ffc7f793          	andi	a5,a5,-4
   171e0:	40978733          	sub	a4,a5,s1
   171e4:	2e97e463          	bltu	a5,s1,174cc <_malloc_r+0x6e0>
   171e8:	00f00793          	li	a5,15
   171ec:	2ee7d063          	bge	a5,a4,174cc <_malloc_r+0x6e0>
   171f0:	01812a03          	lw	s4,24(sp)
   171f4:	01412a83          	lw	s5,20(sp)
   171f8:	00c12b83          	lw	s7,12(sp)
   171fc:	00412c83          	lw	s9,4(sp)
   17200:	0014e793          	ori	a5,s1,1
   17204:	00f42223          	sw	a5,4(s0)
   17208:	009404b3          	add	s1,s0,s1
   1720c:	00992423          	sw	s1,8(s2)
   17210:	00176713          	ori	a4,a4,1
   17214:	00098513          	mv	a0,s3
   17218:	00e4a223          	sw	a4,4(s1)
   1721c:	3dc000ef          	jal	175f8 <__malloc_unlock>
   17220:	02c12083          	lw	ra,44(sp)
   17224:	00840513          	addi	a0,s0,8
   17228:	02812403          	lw	s0,40(sp)
   1722c:	01012b03          	lw	s6,16(sp)
   17230:	02412483          	lw	s1,36(sp)
   17234:	02012903          	lw	s2,32(sp)
   17238:	01c12983          	lw	s3,28(sp)
   1723c:	03010113          	addi	sp,sp,48
   17240:	00008067          	ret
   17244:	00842603          	lw	a2,8(s0)
   17248:	00f407b3          	add	a5,s0,a5
   1724c:	0047a703          	lw	a4,4(a5) # fffff004 <__global_pointer$+0xfffdc14c>
   17250:	00d62623          	sw	a3,12(a2)
   17254:	00c6a423          	sw	a2,8(a3)
   17258:	00176713          	ori	a4,a4,1
   1725c:	00098513          	mv	a0,s3
   17260:	00e7a223          	sw	a4,4(a5)
   17264:	394000ef          	jal	175f8 <__malloc_unlock>
   17268:	02c12083          	lw	ra,44(sp)
   1726c:	00840513          	addi	a0,s0,8
   17270:	02812403          	lw	s0,40(sp)
   17274:	02412483          	lw	s1,36(sp)
   17278:	02012903          	lw	s2,32(sp)
   1727c:	01c12983          	lw	s3,28(sp)
   17280:	03010113          	addi	sp,sp,48
   17284:	00008067          	ret
   17288:	00c7a403          	lw	s0,12(a5)
   1728c:	00258593          	addi	a1,a1,2
   17290:	c6878ee3          	beq	a5,s0,16f0c <_malloc_r+0x120>
   17294:	badff06f          	j	16e40 <_malloc_r+0x54>
   17298:	0097d713          	srli	a4,a5,0x9
   1729c:	00400693          	li	a3,4
   172a0:	14e6f263          	bgeu	a3,a4,173e4 <_malloc_r+0x5f8>
   172a4:	01400693          	li	a3,20
   172a8:	24e6e263          	bltu	a3,a4,174ec <_malloc_r+0x700>
   172ac:	05c70613          	addi	a2,a4,92
   172b0:	00361613          	slli	a2,a2,0x3
   172b4:	05b70693          	addi	a3,a4,91
   172b8:	00c90633          	add	a2,s2,a2
   172bc:	00062703          	lw	a4,0(a2)
   172c0:	ff860613          	addi	a2,a2,-8
   172c4:	00e61863          	bne	a2,a4,172d4 <_malloc_r+0x4e8>
   172c8:	1b40006f          	j	1747c <_malloc_r+0x690>
   172cc:	00872703          	lw	a4,8(a4)
   172d0:	00e60863          	beq	a2,a4,172e0 <_malloc_r+0x4f4>
   172d4:	00472683          	lw	a3,4(a4)
   172d8:	ffc6f693          	andi	a3,a3,-4
   172dc:	fed7e8e3          	bltu	a5,a3,172cc <_malloc_r+0x4e0>
   172e0:	00c72603          	lw	a2,12(a4)
   172e4:	00c42623          	sw	a2,12(s0)
   172e8:	00e42423          	sw	a4,8(s0)
   172ec:	00862423          	sw	s0,8(a2)
   172f0:	00872623          	sw	s0,12(a4)
   172f4:	c8dff06f          	j	16f80 <_malloc_r+0x194>
   172f8:	01400713          	li	a4,20
   172fc:	0ef77e63          	bgeu	a4,a5,173f8 <_malloc_r+0x60c>
   17300:	05400713          	li	a4,84
   17304:	20f76263          	bltu	a4,a5,17508 <_malloc_r+0x71c>
   17308:	00c4d793          	srli	a5,s1,0xc
   1730c:	06f78593          	addi	a1,a5,111
   17310:	06e78813          	addi	a6,a5,110
   17314:	00359613          	slli	a2,a1,0x3
   17318:	bb1ff06f          	j	16ec8 <_malloc_r+0xdc>
   1731c:	001e0e13          	addi	t3,t3,1
   17320:	003e7793          	andi	a5,t3,3
   17324:	00850513          	addi	a0,a0,8
   17328:	0e078663          	beqz	a5,17414 <_malloc_r+0x628>
   1732c:	00c52783          	lw	a5,12(a0)
   17330:	ca5ff06f          	j	16fd4 <_malloc_r+0x1e8>
   17334:	00842603          	lw	a2,8(s0)
   17338:	0014e593          	ori	a1,s1,1
   1733c:	00b42223          	sw	a1,4(s0)
   17340:	00f62623          	sw	a5,12(a2)
   17344:	00c7a423          	sw	a2,8(a5)
   17348:	009404b3          	add	s1,s0,s1
   1734c:	00992a23          	sw	s1,20(s2)
   17350:	00992823          	sw	s1,16(s2)
   17354:	0016e793          	ori	a5,a3,1
   17358:	00e40733          	add	a4,s0,a4
   1735c:	0104a623          	sw	a6,12(s1)
   17360:	0104a423          	sw	a6,8(s1)
   17364:	00f4a223          	sw	a5,4(s1)
   17368:	00098513          	mv	a0,s3
   1736c:	00d72023          	sw	a3,0(a4)
   17370:	288000ef          	jal	175f8 <__malloc_unlock>
   17374:	00840513          	addi	a0,s0,8
   17378:	cb5ff06f          	j	1702c <_malloc_r+0x240>
   1737c:	00f407b3          	add	a5,s0,a5
   17380:	0047a703          	lw	a4,4(a5)
   17384:	00098513          	mv	a0,s3
   17388:	00176713          	ori	a4,a4,1
   1738c:	00e7a223          	sw	a4,4(a5)
   17390:	268000ef          	jal	175f8 <__malloc_unlock>
   17394:	00840513          	addi	a0,s0,8
   17398:	c95ff06f          	j	1702c <_malloc_r+0x240>
   1739c:	0034d593          	srli	a1,s1,0x3
   173a0:	00848793          	addi	a5,s1,8
   173a4:	a85ff06f          	j	16e28 <_malloc_r+0x3c>
   173a8:	0014e693          	ori	a3,s1,1
   173ac:	00d42223          	sw	a3,4(s0)
   173b0:	009404b3          	add	s1,s0,s1
   173b4:	00992a23          	sw	s1,20(s2)
   173b8:	00992823          	sw	s1,16(s2)
   173bc:	00176693          	ori	a3,a4,1
   173c0:	00f407b3          	add	a5,s0,a5
   173c4:	0104a623          	sw	a6,12(s1)
   173c8:	0104a423          	sw	a6,8(s1)
   173cc:	00d4a223          	sw	a3,4(s1)
   173d0:	00098513          	mv	a0,s3
   173d4:	00e7a023          	sw	a4,0(a5)
   173d8:	220000ef          	jal	175f8 <__malloc_unlock>
   173dc:	00840513          	addi	a0,s0,8
   173e0:	c4dff06f          	j	1702c <_malloc_r+0x240>
   173e4:	0067d713          	srli	a4,a5,0x6
   173e8:	03970613          	addi	a2,a4,57
   173ec:	00361613          	slli	a2,a2,0x3
   173f0:	03870693          	addi	a3,a4,56
   173f4:	ec5ff06f          	j	172b8 <_malloc_r+0x4cc>
   173f8:	05c78593          	addi	a1,a5,92
   173fc:	05b78813          	addi	a6,a5,91
   17400:	00359613          	slli	a2,a1,0x3
   17404:	ac5ff06f          	j	16ec8 <_malloc_r+0xdc>
   17408:	00832783          	lw	a5,8(t1)
   1740c:	fff58593          	addi	a1,a1,-1
   17410:	1c679e63          	bne	a5,t1,175ec <_malloc_r+0x800>
   17414:	0035f793          	andi	a5,a1,3
   17418:	ff830313          	addi	t1,t1,-8
   1741c:	fe0796e3          	bnez	a5,17408 <_malloc_r+0x61c>
   17420:	00492703          	lw	a4,4(s2)
   17424:	fff64793          	not	a5,a2
   17428:	00e7f7b3          	and	a5,a5,a4
   1742c:	00f92223          	sw	a5,4(s2)
   17430:	00161613          	slli	a2,a2,0x1
   17434:	c2c7e2e3          	bltu	a5,a2,17058 <_malloc_r+0x26c>
   17438:	c20600e3          	beqz	a2,17058 <_malloc_r+0x26c>
   1743c:	00f67733          	and	a4,a2,a5
   17440:	00071a63          	bnez	a4,17454 <_malloc_r+0x668>
   17444:	00161613          	slli	a2,a2,0x1
   17448:	00f67733          	and	a4,a2,a5
   1744c:	004e0e13          	addi	t3,t3,4
   17450:	fe070ae3          	beqz	a4,17444 <_malloc_r+0x658>
   17454:	000e0593          	mv	a1,t3
   17458:	b69ff06f          	j	16fc0 <_malloc_r+0x1d4>
   1745c:	00840593          	addi	a1,s0,8
   17460:	00098513          	mv	a0,s3
   17464:	e98ff0ef          	jal	16afc <_free_r>
   17468:	000c2583          	lw	a1,0(s8)
   1746c:	00892b83          	lw	s7,8(s2)
   17470:	d2dff06f          	j	1719c <_malloc_r+0x3b0>
   17474:	010a8a93          	addi	s5,s5,16
   17478:	c3dff06f          	j	170b4 <_malloc_r+0x2c8>
   1747c:	4026d693          	srai	a3,a3,0x2
   17480:	00100793          	li	a5,1
   17484:	00d797b3          	sll	a5,a5,a3
   17488:	00f56533          	or	a0,a0,a5
   1748c:	00a92223          	sw	a0,4(s2)
   17490:	e55ff06f          	j	172e4 <_malloc_r+0x4f8>
   17494:	015b85b3          	add	a1,s7,s5
   17498:	40b005b3          	neg	a1,a1
   1749c:	01459593          	slli	a1,a1,0x14
   174a0:	0145da13          	srli	s4,a1,0x14
   174a4:	000a0593          	mv	a1,s4
   174a8:	00098513          	mv	a0,s3
   174ac:	080040ef          	jal	1b52c <_sbrk_r>
   174b0:	fff00793          	li	a5,-1
   174b4:	c8f518e3          	bne	a0,a5,17144 <_malloc_r+0x358>
   174b8:	00000a13          	li	s4,0
   174bc:	c91ff06f          	j	1714c <_malloc_r+0x360>
   174c0:	00812c03          	lw	s8,8(sp)
   174c4:	00100793          	li	a5,1
   174c8:	00fba223          	sw	a5,4(s7)
   174cc:	00098513          	mv	a0,s3
   174d0:	128000ef          	jal	175f8 <__malloc_unlock>
   174d4:	01812a03          	lw	s4,24(sp)
   174d8:	01412a83          	lw	s5,20(sp)
   174dc:	01012b03          	lw	s6,16(sp)
   174e0:	00c12b83          	lw	s7,12(sp)
   174e4:	00412c83          	lw	s9,4(sp)
   174e8:	b41ff06f          	j	17028 <_malloc_r+0x23c>
   174ec:	05400693          	li	a3,84
   174f0:	06e6ec63          	bltu	a3,a4,17568 <_malloc_r+0x77c>
   174f4:	00c7d713          	srli	a4,a5,0xc
   174f8:	06f70613          	addi	a2,a4,111
   174fc:	00361613          	slli	a2,a2,0x3
   17500:	06e70693          	addi	a3,a4,110
   17504:	db5ff06f          	j	172b8 <_malloc_r+0x4cc>
   17508:	15400713          	li	a4,340
   1750c:	06f76c63          	bltu	a4,a5,17584 <_malloc_r+0x798>
   17510:	00f4d793          	srli	a5,s1,0xf
   17514:	07878593          	addi	a1,a5,120
   17518:	07778813          	addi	a6,a5,119
   1751c:	00359613          	slli	a2,a1,0x3
   17520:	9a9ff06f          	j	16ec8 <_malloc_r+0xdc>
   17524:	9dc18c13          	addi	s8,gp,-1572 # 22894 <__malloc_current_mallinfo>
   17528:	000c2703          	lw	a4,0(s8)
   1752c:	00ea8733          	add	a4,s5,a4
   17530:	00ec2023          	sw	a4,0(s8)
   17534:	bb9ff06f          	j	170ec <_malloc_r+0x300>
   17538:	00892403          	lw	s0,8(s2)
   1753c:	00442783          	lw	a5,4(s0)
   17540:	c9dff06f          	j	171dc <_malloc_r+0x3f0>
   17544:	01451793          	slli	a5,a0,0x14
   17548:	ba0792e3          	bnez	a5,170ec <_malloc_r+0x300>
   1754c:	00892b83          	lw	s7,8(s2)
   17550:	015b07b3          	add	a5,s6,s5
   17554:	0017e793          	ori	a5,a5,1
   17558:	00fba223          	sw	a5,4(s7)
   1755c:	c45ff06f          	j	171a0 <_malloc_r+0x3b4>
   17560:	8771a223          	sw	s7,-1948(gp) # 2271c <__malloc_sbrk_base>
   17564:	ba1ff06f          	j	17104 <_malloc_r+0x318>
   17568:	15400693          	li	a3,340
   1756c:	04e6e463          	bltu	a3,a4,175b4 <_malloc_r+0x7c8>
   17570:	00f7d713          	srli	a4,a5,0xf
   17574:	07870613          	addi	a2,a4,120
   17578:	00361613          	slli	a2,a2,0x3
   1757c:	07770693          	addi	a3,a4,119
   17580:	d39ff06f          	j	172b8 <_malloc_r+0x4cc>
   17584:	55400713          	li	a4,1364
   17588:	04f76463          	bltu	a4,a5,175d0 <_malloc_r+0x7e4>
   1758c:	0124d793          	srli	a5,s1,0x12
   17590:	07d78593          	addi	a1,a5,125
   17594:	07c78813          	addi	a6,a5,124
   17598:	00359613          	slli	a2,a1,0x3
   1759c:	92dff06f          	j	16ec8 <_malloc_r+0xdc>
   175a0:	ff8c8c93          	addi	s9,s9,-8
   175a4:	019a8ab3          	add	s5,s5,s9
   175a8:	417a8ab3          	sub	s5,s5,s7
   175ac:	00000a13          	li	s4,0
   175b0:	b9dff06f          	j	1714c <_malloc_r+0x360>
   175b4:	55400693          	li	a3,1364
   175b8:	02e6e463          	bltu	a3,a4,175e0 <_malloc_r+0x7f4>
   175bc:	0127d713          	srli	a4,a5,0x12
   175c0:	07d70613          	addi	a2,a4,125
   175c4:	00361613          	slli	a2,a2,0x3
   175c8:	07c70693          	addi	a3,a4,124
   175cc:	cedff06f          	j	172b8 <_malloc_r+0x4cc>
   175d0:	3f800613          	li	a2,1016
   175d4:	07f00593          	li	a1,127
   175d8:	07e00813          	li	a6,126
   175dc:	8edff06f          	j	16ec8 <_malloc_r+0xdc>
   175e0:	3f800613          	li	a2,1016
   175e4:	07e00693          	li	a3,126
   175e8:	cd1ff06f          	j	172b8 <_malloc_r+0x4cc>
   175ec:	00492783          	lw	a5,4(s2)
   175f0:	e41ff06f          	j	17430 <_malloc_r+0x644>

000175f4 <__malloc_lock>:
   175f4:	00008067          	ret

000175f8 <__malloc_unlock>:
   175f8:	00008067          	ret

000175fc <_vfprintf_r>:
   175fc:	e2010113          	addi	sp,sp,-480
   17600:	1c112e23          	sw	ra,476(sp)
   17604:	1c812c23          	sw	s0,472(sp)
   17608:	1d312623          	sw	s3,460(sp)
   1760c:	1d412423          	sw	s4,456(sp)
   17610:	00058993          	mv	s3,a1
   17614:	00060a13          	mv	s4,a2
   17618:	00d12c23          	sw	a3,24(sp)
   1761c:	00050413          	mv	s0,a0
   17620:	00a12623          	sw	a0,12(sp)
   17624:	6fd030ef          	jal	1b520 <_localeconv_r>
   17628:	00052703          	lw	a4,0(a0)
   1762c:	00070513          	mv	a0,a4
   17630:	02e12a23          	sw	a4,52(sp)
   17634:	9bcff0ef          	jal	167f0 <strlen>
   17638:	02a12623          	sw	a0,44(sp)
   1763c:	0e012023          	sw	zero,224(sp)
   17640:	0e012223          	sw	zero,228(sp)
   17644:	0e012423          	sw	zero,232(sp)
   17648:	0e012623          	sw	zero,236(sp)
   1764c:	00040863          	beqz	s0,1765c <_vfprintf_r+0x60>
   17650:	03442703          	lw	a4,52(s0)
   17654:	00071463          	bnez	a4,1765c <_vfprintf_r+0x60>
   17658:	6590106f          	j	194b0 <_vfprintf_r+0x1eb4>
   1765c:	00c99703          	lh	a4,12(s3)
   17660:	0649a683          	lw	a3,100(s3)
   17664:	000025b7          	lui	a1,0x2
   17668:	01271613          	slli	a2,a4,0x12
   1766c:	38064263          	bltz	a2,179f0 <_vfprintf_r+0x3f4>
   17670:	ffffe637          	lui	a2,0xffffe
   17674:	00b76733          	or	a4,a4,a1
   17678:	fff60613          	addi	a2,a2,-1 # ffffdfff <__global_pointer$+0xfffdb147>
   1767c:	00c6f6b3          	and	a3,a3,a2
   17680:	00e99623          	sh	a4,12(s3)
   17684:	01071713          	slli	a4,a4,0x10
   17688:	41075713          	srai	a4,a4,0x10
   1768c:	06d9a223          	sw	a3,100(s3)
   17690:	00877693          	andi	a3,a4,8
   17694:	2c068663          	beqz	a3,17960 <_vfprintf_r+0x364>
   17698:	0109a683          	lw	a3,16(s3)
   1769c:	2c068263          	beqz	a3,17960 <_vfprintf_r+0x364>
   176a0:	01a77713          	andi	a4,a4,26
   176a4:	00a00693          	li	a3,10
   176a8:	2cd70c63          	beq	a4,a3,17980 <_vfprintf_r+0x384>
   176ac:	1c912a23          	sw	s1,468(sp)
   176b0:	1d212823          	sw	s2,464(sp)
   176b4:	1d512223          	sw	s5,452(sp)
   176b8:	1d612023          	sw	s6,448(sp)
   176bc:	1b712e23          	sw	s7,444(sp)
   176c0:	1b812c23          	sw	s8,440(sp)
   176c4:	1b912a23          	sw	s9,436(sp)
   176c8:	1ba12823          	sw	s10,432(sp)
   176cc:	1bb12623          	sw	s11,428(sp)
   176d0:	000a0893          	mv	a7,s4
   176d4:	0008c703          	lbu	a4,0(a7)
   176d8:	0fc10a93          	addi	s5,sp,252
   176dc:	0c012e23          	sw	zero,220(sp)
   176e0:	0c012c23          	sw	zero,216(sp)
   176e4:	0d512a23          	sw	s5,212(sp)
   176e8:	02012023          	sw	zero,32(sp)
   176ec:	02012e23          	sw	zero,60(sp)
   176f0:	02012823          	sw	zero,48(sp)
   176f4:	04012823          	sw	zero,80(sp)
   176f8:	04012023          	sw	zero,64(sp)
   176fc:	00012a23          	sw	zero,20(sp)
   17700:	01312823          	sw	s3,16(sp)
   17704:	000a8413          	mv	s0,s5
   17708:	02500493          	li	s1,37
   1770c:	01000913          	li	s2,16
   17710:	22070863          	beqz	a4,17940 <_vfprintf_r+0x344>
   17714:	00088c13          	mv	s8,a7
   17718:	2a970063          	beq	a4,s1,179b8 <_vfprintf_r+0x3bc>
   1771c:	001c4703          	lbu	a4,1(s8)
   17720:	001c0c13          	addi	s8,s8,1
   17724:	fe071ae3          	bnez	a4,17718 <_vfprintf_r+0x11c>
   17728:	411c0cb3          	sub	s9,s8,a7
   1772c:	211c0a63          	beq	s8,a7,17940 <_vfprintf_r+0x344>
   17730:	0dc12703          	lw	a4,220(sp)
   17734:	0d812583          	lw	a1,216(sp)
   17738:	01142023          	sw	a7,0(s0)
   1773c:	01970733          	add	a4,a4,s9
   17740:	00158593          	addi	a1,a1,1 # 2001 <_start-0xdfff>
   17744:	01942223          	sw	s9,4(s0)
   17748:	0ce12e23          	sw	a4,220(sp)
   1774c:	0cb12c23          	sw	a1,216(sp)
   17750:	00700713          	li	a4,7
   17754:	00840413          	addi	s0,s0,8
   17758:	26b74863          	blt	a4,a1,179c8 <_vfprintf_r+0x3cc>
   1775c:	01412783          	lw	a5,20(sp)
   17760:	000c4703          	lbu	a4,0(s8)
   17764:	019787b3          	add	a5,a5,s9
   17768:	00f12a23          	sw	a5,20(sp)
   1776c:	1c070a63          	beqz	a4,17940 <_vfprintf_r+0x344>
   17770:	001c0e13          	addi	t3,s8,1
   17774:	00000313          	li	t1,0
   17778:	001c4d83          	lbu	s11,1(s8)
   1777c:	0a010ba3          	sb	zero,183(sp)
   17780:	fff00c93          	li	s9,-1
   17784:	00000b93          	li	s7,0
   17788:	05a00c13          	li	s8,90
   1778c:	000e0993          	mv	s3,t3
   17790:	00030a13          	mv	s4,t1
   17794:	00088b13          	mv	s6,a7
   17798:	00198993          	addi	s3,s3,1
   1779c:	fe0d8793          	addi	a5,s11,-32
   177a0:	04fc6863          	bltu	s8,a5,177f0 <_vfprintf_r+0x1f4>
   177a4:	00021737          	lui	a4,0x21
   177a8:	00279793          	slli	a5,a5,0x2
   177ac:	38470713          	addi	a4,a4,900 # 21384 <_getpid_r+0x24c>
   177b0:	00e787b3          	add	a5,a5,a4
   177b4:	0007a783          	lw	a5,0(a5)
   177b8:	00078067          	jr	a5
   177bc:	fd0d8793          	addi	a5,s11,-48
   177c0:	00000b93          	li	s7,0
   177c4:	00900693          	li	a3,9
   177c8:	002b9713          	slli	a4,s7,0x2
   177cc:	0009cd83          	lbu	s11,0(s3)
   177d0:	01770bb3          	add	s7,a4,s7
   177d4:	001b9b93          	slli	s7,s7,0x1
   177d8:	01778bb3          	add	s7,a5,s7
   177dc:	fd0d8793          	addi	a5,s11,-48
   177e0:	00198993          	addi	s3,s3,1
   177e4:	fef6f2e3          	bgeu	a3,a5,177c8 <_vfprintf_r+0x1cc>
   177e8:	fe0d8793          	addi	a5,s11,-32
   177ec:	fafc7ce3          	bgeu	s8,a5,177a4 <_vfprintf_r+0x1a8>
   177f0:	00098e13          	mv	t3,s3
   177f4:	000a0313          	mv	t1,s4
   177f8:	140d8463          	beqz	s11,17940 <_vfprintf_r+0x344>
   177fc:	00100d13          	li	s10,1
   17800:	13b10e23          	sb	s11,316(sp)
   17804:	0a010ba3          	sb	zero,183(sp)
   17808:	000d0c13          	mv	s8,s10
   1780c:	00012e23          	sw	zero,28(sp)
   17810:	00000c93          	li	s9,0
   17814:	02012423          	sw	zero,40(sp)
   17818:	02012223          	sw	zero,36(sp)
   1781c:	00000993          	li	s3,0
   17820:	13c10893          	addi	a7,sp,316
   17824:	0dc12603          	lw	a2,220(sp)
   17828:	08437f13          	andi	t5,t1,132
   1782c:	00060513          	mv	a0,a2
   17830:	480f0a63          	beqz	t5,17cc4 <_vfprintf_r+0x6c8>
   17834:	0b714703          	lbu	a4,183(sp)
   17838:	06070663          	beqz	a4,178a4 <_vfprintf_r+0x2a8>
   1783c:	0d812f83          	lw	t6,216(sp)
   17840:	00000713          	li	a4,0
   17844:	00100593          	li	a1,1
   17848:	00160613          	addi	a2,a2,1
   1784c:	001f8f93          	addi	t6,t6,1
   17850:	0b710513          	addi	a0,sp,183
   17854:	00b42223          	sw	a1,4(s0)
   17858:	00a42023          	sw	a0,0(s0)
   1785c:	0cc12e23          	sw	a2,220(sp)
   17860:	0df12c23          	sw	t6,216(sp)
   17864:	00700593          	li	a1,7
   17868:	00840413          	addi	s0,s0,8
   1786c:	2ff5c063          	blt	a1,t6,17b4c <_vfprintf_r+0x550>
   17870:	02070a63          	beqz	a4,178a4 <_vfprintf_r+0x2a8>
   17874:	0d812f83          	lw	t6,216(sp)
   17878:	00200713          	li	a4,2
   1787c:	00260613          	addi	a2,a2,2
   17880:	001f8f93          	addi	t6,t6,1
   17884:	0b810593          	addi	a1,sp,184
   17888:	00e42223          	sw	a4,4(s0)
   1788c:	00b42023          	sw	a1,0(s0)
   17890:	0cc12e23          	sw	a2,220(sp)
   17894:	0df12c23          	sw	t6,216(sp)
   17898:	00700713          	li	a4,7
   1789c:	00840413          	addi	s0,s0,8
   178a0:	6df744e3          	blt	a4,t6,18768 <_vfprintf_r+0x116c>
   178a4:	08000713          	li	a4,128
   178a8:	3eef02e3          	beq	t5,a4,1848c <_vfprintf_r+0xe90>
   178ac:	41ac8cb3          	sub	s9,s9,s10
   178b0:	43904663          	bgtz	s9,17cdc <_vfprintf_r+0x6e0>
   178b4:	10037713          	andi	a4,t1,256
   178b8:	52071063          	bnez	a4,17dd8 <_vfprintf_r+0x7dc>
   178bc:	0d812703          	lw	a4,216(sp)
   178c0:	01a60633          	add	a2,a2,s10
   178c4:	0cc12e23          	sw	a2,220(sp)
   178c8:	00170713          	addi	a4,a4,1
   178cc:	01142023          	sw	a7,0(s0)
   178d0:	01a42223          	sw	s10,4(s0)
   178d4:	0ce12c23          	sw	a4,216(sp)
   178d8:	00700793          	li	a5,7
   178dc:	30e7cc63          	blt	a5,a4,17bf4 <_vfprintf_r+0x5f8>
   178e0:	00840413          	addi	s0,s0,8
   178e4:	00437313          	andi	t1,t1,4
   178e8:	00030663          	beqz	t1,178f4 <_vfprintf_r+0x2f8>
   178ec:	418b8cb3          	sub	s9,s7,s8
   178f0:	6b904ce3          	bgtz	s9,187a8 <_vfprintf_r+0x11ac>
   178f4:	000b8893          	mv	a7,s7
   178f8:	018bd463          	bge	s7,s8,17900 <_vfprintf_r+0x304>
   178fc:	000c0893          	mv	a7,s8
   17900:	01412783          	lw	a5,20(sp)
   17904:	011787b3          	add	a5,a5,a7
   17908:	00f12a23          	sw	a5,20(sp)
   1790c:	48061ce3          	bnez	a2,185a4 <_vfprintf_r+0xfa8>
   17910:	01c12783          	lw	a5,28(sp)
   17914:	0c012c23          	sw	zero,216(sp)
   17918:	00078c63          	beqz	a5,17930 <_vfprintf_r+0x334>
   1791c:	01c12583          	lw	a1,28(sp)
   17920:	00c12503          	lw	a0,12(sp)
   17924:	03c12223          	sw	t3,36(sp)
   17928:	9d4ff0ef          	jal	16afc <_free_r>
   1792c:	02412e03          	lw	t3,36(sp)
   17930:	000a8413          	mv	s0,s5
   17934:	000e0893          	mv	a7,t3
   17938:	0008c703          	lbu	a4,0(a7)
   1793c:	dc071ce3          	bnez	a4,17714 <_vfprintf_r+0x118>
   17940:	0dc12783          	lw	a5,220(sp)
   17944:	01012983          	lw	s3,16(sp)
   17948:	480786e3          	beqz	a5,185d4 <_vfprintf_r+0xfd8>
   1794c:	00c12503          	lw	a0,12(sp)
   17950:	0d410613          	addi	a2,sp,212
   17954:	00098593          	mv	a1,s3
   17958:	7c5020ef          	jal	1a91c <__sprint_r>
   1795c:	4790006f          	j	185d4 <_vfprintf_r+0xfd8>
   17960:	00c12503          	lw	a0,12(sp)
   17964:	00098593          	mv	a1,s3
   17968:	0a5030ef          	jal	1b20c <__swsetup_r>
   1796c:	08051663          	bnez	a0,179f8 <_vfprintf_r+0x3fc>
   17970:	00c99703          	lh	a4,12(s3)
   17974:	00a00693          	li	a3,10
   17978:	01a77713          	andi	a4,a4,26
   1797c:	d2d718e3          	bne	a4,a3,176ac <_vfprintf_r+0xb0>
   17980:	00e99703          	lh	a4,14(s3)
   17984:	d20744e3          	bltz	a4,176ac <_vfprintf_r+0xb0>
   17988:	01812683          	lw	a3,24(sp)
   1798c:	00c12503          	lw	a0,12(sp)
   17990:	000a0613          	mv	a2,s4
   17994:	00098593          	mv	a1,s3
   17998:	6c5020ef          	jal	1a85c <__sbprintf>
   1799c:	00a12a23          	sw	a0,20(sp)
   179a0:	4650006f          	j	18604 <_vfprintf_r+0x1008>
   179a4:	0009cd83          	lbu	s11,0(s3)
   179a8:	df1ff06f          	j	17798 <_vfprintf_r+0x19c>
   179ac:	0009cd83          	lbu	s11,0(s3)
   179b0:	020a6a13          	ori	s4,s4,32
   179b4:	de5ff06f          	j	17798 <_vfprintf_r+0x19c>
   179b8:	411c0cb3          	sub	s9,s8,a7
   179bc:	d71c1ae3          	bne	s8,a7,17730 <_vfprintf_r+0x134>
   179c0:	000c4703          	lbu	a4,0(s8)
   179c4:	da9ff06f          	j	1776c <_vfprintf_r+0x170>
   179c8:	01012583          	lw	a1,16(sp)
   179cc:	00c12503          	lw	a0,12(sp)
   179d0:	0d410613          	addi	a2,sp,212
   179d4:	01112e23          	sw	a7,28(sp)
   179d8:	745020ef          	jal	1a91c <__sprint_r>
   179dc:	00050463          	beqz	a0,179e4 <_vfprintf_r+0x3e8>
   179e0:	4810206f          	j	1a660 <_vfprintf_r+0x3064>
   179e4:	01c12883          	lw	a7,28(sp)
   179e8:	000a8413          	mv	s0,s5
   179ec:	d71ff06f          	j	1775c <_vfprintf_r+0x160>
   179f0:	01269613          	slli	a2,a3,0x12
   179f4:	c8065ee3          	bgez	a2,17690 <_vfprintf_r+0x94>
   179f8:	fff00793          	li	a5,-1
   179fc:	00f12a23          	sw	a5,20(sp)
   17a00:	4050006f          	j	18604 <_vfprintf_r+0x1008>
   17a04:	008a7713          	andi	a4,s4,8
   17a08:	00098e13          	mv	t3,s3
   17a0c:	000a0313          	mv	t1,s4
   17a10:	000b0893          	mv	a7,s6
   17a14:	00070463          	beqz	a4,17a1c <_vfprintf_r+0x420>
   17a18:	1fc0106f          	j	18c14 <_vfprintf_r+0x1618>
   17a1c:	01812783          	lw	a5,24(sp)
   17a20:	0a010513          	addi	a0,sp,160
   17a24:	03612423          	sw	s6,40(sp)
   17a28:	00778793          	addi	a5,a5,7
   17a2c:	ff87f793          	andi	a5,a5,-8
   17a30:	0007a583          	lw	a1,0(a5)
   17a34:	0047a603          	lw	a2,4(a5)
   17a38:	00878793          	addi	a5,a5,8
   17a3c:	03412223          	sw	s4,36(sp)
   17a40:	01312e23          	sw	s3,28(sp)
   17a44:	00f12c23          	sw	a5,24(sp)
   17a48:	a58fe0ef          	jal	15ca0 <__extenddftf2>
   17a4c:	0a012583          	lw	a1,160(sp)
   17a50:	0a412603          	lw	a2,164(sp)
   17a54:	0a812683          	lw	a3,168(sp)
   17a58:	0ac12703          	lw	a4,172(sp)
   17a5c:	02812883          	lw	a7,40(sp)
   17a60:	02412303          	lw	t1,36(sp)
   17a64:	01c12e03          	lw	t3,28(sp)
   17a68:	0e010513          	addi	a0,sp,224
   17a6c:	03112423          	sw	a7,40(sp)
   17a70:	02612223          	sw	t1,36(sp)
   17a74:	01c12e23          	sw	t3,28(sp)
   17a78:	0ee12623          	sw	a4,236(sp)
   17a7c:	0eb12023          	sw	a1,224(sp)
   17a80:	0ec12223          	sw	a2,228(sp)
   17a84:	0ed12423          	sw	a3,232(sp)
   17a88:	26c040ef          	jal	1bcf4 <_ldcheck>
   17a8c:	0aa12e23          	sw	a0,188(sp)
   17a90:	00200713          	li	a4,2
   17a94:	01c12e03          	lw	t3,28(sp)
   17a98:	02412303          	lw	t1,36(sp)
   17a9c:	02812883          	lw	a7,40(sp)
   17aa0:	00e51463          	bne	a0,a4,17aa8 <_vfprintf_r+0x4ac>
   17aa4:	2910106f          	j	19534 <_vfprintf_r+0x1f38>
   17aa8:	00100713          	li	a4,1
   17aac:	00e51463          	bne	a0,a4,17ab4 <_vfprintf_r+0x4b8>
   17ab0:	3c50106f          	j	19674 <_vfprintf_r+0x2078>
   17ab4:	06100693          	li	a3,97
   17ab8:	00dd9463          	bne	s11,a3,17ac0 <_vfprintf_r+0x4c4>
   17abc:	65c0106f          	j	19118 <_vfprintf_r+0x1b1c>
   17ac0:	04100693          	li	a3,65
   17ac4:	05800793          	li	a5,88
   17ac8:	00dd9463          	bne	s11,a3,17ad0 <_vfprintf_r+0x4d4>
   17acc:	6500106f          	j	1911c <_vfprintf_r+0x1b20>
   17ad0:	fff00693          	li	a3,-1
   17ad4:	00dc9463          	bne	s9,a3,17adc <_vfprintf_r+0x4e0>
   17ad8:	3650206f          	j	1a63c <_vfprintf_r+0x3040>
   17adc:	fdfdf693          	andi	a3,s11,-33
   17ae0:	04700613          	li	a2,71
   17ae4:	00012e23          	sw	zero,28(sp)
   17ae8:	00c69663          	bne	a3,a2,17af4 <_vfprintf_r+0x4f8>
   17aec:	000c9463          	bnez	s9,17af4 <_vfprintf_r+0x4f8>
   17af0:	00070c93          	mv	s9,a4
   17af4:	0ec12e83          	lw	t4,236(sp)
   17af8:	10036793          	ori	a5,t1,256
   17afc:	02012c23          	sw	zero,56(sp)
   17b00:	0e012283          	lw	t0,224(sp)
   17b04:	0e412f83          	lw	t6,228(sp)
   17b08:	0e812f03          	lw	t5,232(sp)
   17b0c:	00078a13          	mv	s4,a5
   17b10:	000eda63          	bgez	t4,17b24 <_vfprintf_r+0x528>
   17b14:	80000737          	lui	a4,0x80000
   17b18:	02d00793          	li	a5,45
   17b1c:	00eeceb3          	xor	t4,t4,a4
   17b20:	02f12c23          	sw	a5,56(sp)
   17b24:	fbfd8713          	addi	a4,s11,-65
   17b28:	02500693          	li	a3,37
   17b2c:	00e6f463          	bgeu	a3,a4,17b34 <_vfprintf_r+0x538>
   17b30:	6400106f          	j	19170 <_vfprintf_r+0x1b74>
   17b34:	000216b7          	lui	a3,0x21
   17b38:	00271713          	slli	a4,a4,0x2
   17b3c:	4f068693          	addi	a3,a3,1264 # 214f0 <_getpid_r+0x3b8>
   17b40:	00d70733          	add	a4,a4,a3
   17b44:	00072703          	lw	a4,0(a4) # 80000000 <__global_pointer$+0x7ffdd148>
   17b48:	00070067          	jr	a4
   17b4c:	01012583          	lw	a1,16(sp)
   17b50:	00c12503          	lw	a0,12(sp)
   17b54:	0d410613          	addi	a2,sp,212
   17b58:	05112a23          	sw	a7,84(sp)
   17b5c:	04612623          	sw	t1,76(sp)
   17b60:	05e12423          	sw	t5,72(sp)
   17b64:	04e12223          	sw	a4,68(sp)
   17b68:	03c12c23          	sw	t3,56(sp)
   17b6c:	5b1020ef          	jal	1a91c <__sprint_r>
   17b70:	240518e3          	bnez	a0,185c0 <_vfprintf_r+0xfc4>
   17b74:	0dc12603          	lw	a2,220(sp)
   17b78:	05412883          	lw	a7,84(sp)
   17b7c:	04c12303          	lw	t1,76(sp)
   17b80:	04812f03          	lw	t5,72(sp)
   17b84:	04412703          	lw	a4,68(sp)
   17b88:	03812e03          	lw	t3,56(sp)
   17b8c:	000a8413          	mv	s0,s5
   17b90:	ce1ff06f          	j	17870 <_vfprintf_r+0x274>
   17b94:	0d812583          	lw	a1,216(sp)
   17b98:	02c12783          	lw	a5,44(sp)
   17b9c:	03412703          	lw	a4,52(sp)
   17ba0:	00158593          	addi	a1,a1,1
   17ba4:	00c78633          	add	a2,a5,a2
   17ba8:	00e42023          	sw	a4,0(s0)
   17bac:	00f42223          	sw	a5,4(s0)
   17bb0:	0cc12e23          	sw	a2,220(sp)
   17bb4:	0cb12c23          	sw	a1,216(sp)
   17bb8:	00700713          	li	a4,7
   17bbc:	00840413          	addi	s0,s0,8
   17bc0:	00b75463          	bge	a4,a1,17bc8 <_vfprintf_r+0x5cc>
   17bc4:	7d10106f          	j	19b94 <_vfprintf_r+0x2598>
   17bc8:	00055463          	bgez	a0,17bd0 <_vfprintf_r+0x5d4>
   17bcc:	1490206f          	j	1a514 <_vfprintf_r+0x2f18>
   17bd0:	02012783          	lw	a5,32(sp)
   17bd4:	00158593          	addi	a1,a1,1
   17bd8:	0cb12c23          	sw	a1,216(sp)
   17bdc:	00c78633          	add	a2,a5,a2
   17be0:	00f42223          	sw	a5,4(s0)
   17be4:	0cc12e23          	sw	a2,220(sp)
   17be8:	01142023          	sw	a7,0(s0)
   17bec:	00700793          	li	a5,7
   17bf0:	ceb7d8e3          	bge	a5,a1,178e0 <_vfprintf_r+0x2e4>
   17bf4:	01012583          	lw	a1,16(sp)
   17bf8:	00c12503          	lw	a0,12(sp)
   17bfc:	0d410613          	addi	a2,sp,212
   17c00:	02612423          	sw	t1,40(sp)
   17c04:	03c12223          	sw	t3,36(sp)
   17c08:	515020ef          	jal	1a91c <__sprint_r>
   17c0c:	1a051ae3          	bnez	a0,185c0 <_vfprintf_r+0xfc4>
   17c10:	0dc12603          	lw	a2,220(sp)
   17c14:	02412e03          	lw	t3,36(sp)
   17c18:	02812303          	lw	t1,40(sp)
   17c1c:	000a8413          	mv	s0,s5
   17c20:	cc5ff06f          	j	178e4 <_vfprintf_r+0x2e8>
   17c24:	01812783          	lw	a5,24(sp)
   17c28:	0a010ba3          	sb	zero,183(sp)
   17c2c:	00098e13          	mv	t3,s3
   17c30:	0007a883          	lw	a7,0(a5)
   17c34:	000a0313          	mv	t1,s4
   17c38:	00478993          	addi	s3,a5,4
   17c3c:	00089463          	bnez	a7,17c44 <_vfprintf_r+0x648>
   17c40:	3bc0106f          	j	18ffc <_vfprintf_r+0x1a00>
   17c44:	000cd463          	bgez	s9,17c4c <_vfprintf_r+0x650>
   17c48:	4700106f          	j	190b8 <_vfprintf_r+0x1abc>
   17c4c:	00088513          	mv	a0,a7
   17c50:	000c8613          	mv	a2,s9
   17c54:	00000593          	li	a1,0
   17c58:	03c12223          	sw	t3,36(sp)
   17c5c:	01112c23          	sw	a7,24(sp)
   17c60:	03412423          	sw	s4,40(sp)
   17c64:	74c030ef          	jal	1b3b0 <memchr>
   17c68:	00a12e23          	sw	a0,28(sp)
   17c6c:	0b714703          	lbu	a4,183(sp)
   17c70:	01812883          	lw	a7,24(sp)
   17c74:	02412e03          	lw	t3,36(sp)
   17c78:	02812303          	lw	t1,40(sp)
   17c7c:	00051463          	bnez	a0,17c84 <_vfprintf_r+0x688>
   17c80:	7440206f          	j	1a3c4 <_vfprintf_r+0x2dc8>
   17c84:	41150d33          	sub	s10,a0,a7
   17c88:	fffd4693          	not	a3,s10
   17c8c:	41f6d693          	srai	a3,a3,0x1f
   17c90:	00dd7c33          	and	s8,s10,a3
   17c94:	00070463          	beqz	a4,17c9c <_vfprintf_r+0x6a0>
   17c98:	45c0106f          	j	190f4 <_vfprintf_r+0x1af8>
   17c9c:	01312c23          	sw	s3,24(sp)
   17ca0:	0dc12603          	lw	a2,220(sp)
   17ca4:	00012e23          	sw	zero,28(sp)
   17ca8:	02012423          	sw	zero,40(sp)
   17cac:	02012223          	sw	zero,36(sp)
   17cb0:	08437f13          	andi	t5,t1,132
   17cb4:	00000c93          	li	s9,0
   17cb8:	00000993          	li	s3,0
   17cbc:	00060513          	mv	a0,a2
   17cc0:	b60f1ae3          	bnez	t5,17834 <_vfprintf_r+0x238>
   17cc4:	418b8733          	sub	a4,s7,s8
   17cc8:	58e04ce3          	bgtz	a4,18a60 <_vfprintf_r+0x1464>
   17ccc:	0b714703          	lbu	a4,183(sp)
   17cd0:	b60716e3          	bnez	a4,1783c <_vfprintf_r+0x240>
   17cd4:	41ac8cb3          	sub	s9,s9,s10
   17cd8:	bd905ee3          	blez	s9,178b4 <_vfprintf_r+0x2b8>
   17cdc:	00021737          	lui	a4,0x21
   17ce0:	0d812583          	lw	a1,216(sp)
   17ce4:	58870713          	addi	a4,a4,1416 # 21588 <zeroes.0>
   17ce8:	09995863          	bge	s2,s9,17d78 <_vfprintf_r+0x77c>
   17cec:	00040793          	mv	a5,s0
   17cf0:	000c8a13          	mv	s4,s9
   17cf4:	00700813          	li	a6,7
   17cf8:	000e0b13          	mv	s6,t3
   17cfc:	02612c23          	sw	t1,56(sp)
   17d00:	00088c93          	mv	s9,a7
   17d04:	00070413          	mv	s0,a4
   17d08:	00c0006f          	j	17d14 <_vfprintf_r+0x718>
   17d0c:	ff0a0a13          	addi	s4,s4,-16
   17d10:	05495863          	bge	s2,s4,17d60 <_vfprintf_r+0x764>
   17d14:	01060613          	addi	a2,a2,16
   17d18:	00158593          	addi	a1,a1,1
   17d1c:	0087a023          	sw	s0,0(a5)
   17d20:	0127a223          	sw	s2,4(a5)
   17d24:	0cc12e23          	sw	a2,220(sp)
   17d28:	0cb12c23          	sw	a1,216(sp)
   17d2c:	00878793          	addi	a5,a5,8
   17d30:	fcb85ee3          	bge	a6,a1,17d0c <_vfprintf_r+0x710>
   17d34:	01012583          	lw	a1,16(sp)
   17d38:	00c12503          	lw	a0,12(sp)
   17d3c:	0d410613          	addi	a2,sp,212
   17d40:	3dd020ef          	jal	1a91c <__sprint_r>
   17d44:	06051ee3          	bnez	a0,185c0 <_vfprintf_r+0xfc4>
   17d48:	ff0a0a13          	addi	s4,s4,-16
   17d4c:	0dc12603          	lw	a2,220(sp)
   17d50:	0d812583          	lw	a1,216(sp)
   17d54:	000a8793          	mv	a5,s5
   17d58:	00700813          	li	a6,7
   17d5c:	fb494ce3          	blt	s2,s4,17d14 <_vfprintf_r+0x718>
   17d60:	03812303          	lw	t1,56(sp)
   17d64:	000c8893          	mv	a7,s9
   17d68:	00040713          	mv	a4,s0
   17d6c:	000b0e13          	mv	t3,s6
   17d70:	000a0c93          	mv	s9,s4
   17d74:	00078413          	mv	s0,a5
   17d78:	01960633          	add	a2,a2,s9
   17d7c:	00158593          	addi	a1,a1,1
   17d80:	00e42023          	sw	a4,0(s0)
   17d84:	01942223          	sw	s9,4(s0)
   17d88:	0cc12e23          	sw	a2,220(sp)
   17d8c:	0cb12c23          	sw	a1,216(sp)
   17d90:	00700713          	li	a4,7
   17d94:	00840413          	addi	s0,s0,8
   17d98:	b0b75ee3          	bge	a4,a1,178b4 <_vfprintf_r+0x2b8>
   17d9c:	01012583          	lw	a1,16(sp)
   17da0:	00c12503          	lw	a0,12(sp)
   17da4:	0d410613          	addi	a2,sp,212
   17da8:	05112423          	sw	a7,72(sp)
   17dac:	04612223          	sw	t1,68(sp)
   17db0:	03c12c23          	sw	t3,56(sp)
   17db4:	369020ef          	jal	1a91c <__sprint_r>
   17db8:	000514e3          	bnez	a0,185c0 <_vfprintf_r+0xfc4>
   17dbc:	04412303          	lw	t1,68(sp)
   17dc0:	0dc12603          	lw	a2,220(sp)
   17dc4:	04812883          	lw	a7,72(sp)
   17dc8:	10037713          	andi	a4,t1,256
   17dcc:	03812e03          	lw	t3,56(sp)
   17dd0:	000a8413          	mv	s0,s5
   17dd4:	ae0704e3          	beqz	a4,178bc <_vfprintf_r+0x2c0>
   17dd8:	06500713          	li	a4,101
   17ddc:	05b752e3          	bge	a4,s11,18620 <_vfprintf_r+0x1024>
   17de0:	0e412503          	lw	a0,228(sp)
   17de4:	0e812583          	lw	a1,232(sp)
   17de8:	0e012803          	lw	a6,224(sp)
   17dec:	0ec12703          	lw	a4,236(sp)
   17df0:	0aa12223          	sw	a0,164(sp)
   17df4:	0ab12423          	sw	a1,168(sp)
   17df8:	0a010513          	addi	a0,sp,160
   17dfc:	09010593          	addi	a1,sp,144
   17e00:	05112623          	sw	a7,76(sp)
   17e04:	04c12423          	sw	a2,72(sp)
   17e08:	04612223          	sw	t1,68(sp)
   17e0c:	03c12c23          	sw	t3,56(sp)
   17e10:	08012823          	sw	zero,144(sp)
   17e14:	08012a23          	sw	zero,148(sp)
   17e18:	08012c23          	sw	zero,152(sp)
   17e1c:	08012e23          	sw	zero,156(sp)
   17e20:	0b012023          	sw	a6,160(sp)
   17e24:	0ae12623          	sw	a4,172(sp)
   17e28:	90cfb0ef          	jal	12f34 <__eqtf2>
   17e2c:	03812e03          	lw	t3,56(sp)
   17e30:	04412303          	lw	t1,68(sp)
   17e34:	04812603          	lw	a2,72(sp)
   17e38:	04c12883          	lw	a7,76(sp)
   17e3c:	22051ee3          	bnez	a0,18878 <_vfprintf_r+0x127c>
   17e40:	0d812783          	lw	a5,216(sp)
   17e44:	00021737          	lui	a4,0x21
   17e48:	21470713          	addi	a4,a4,532 # 21214 <_getpid_r+0xdc>
   17e4c:	00160613          	addi	a2,a2,1
   17e50:	00178793          	addi	a5,a5,1
   17e54:	00100593          	li	a1,1
   17e58:	00e42023          	sw	a4,0(s0)
   17e5c:	00b42223          	sw	a1,4(s0)
   17e60:	0cc12e23          	sw	a2,220(sp)
   17e64:	0cf12c23          	sw	a5,216(sp)
   17e68:	00700713          	li	a4,7
   17e6c:	00840413          	addi	s0,s0,8
   17e70:	00f75463          	bge	a4,a5,17e78 <_vfprintf_r+0x87c>
   17e74:	6480106f          	j	194bc <_vfprintf_r+0x1ec0>
   17e78:	0bc12783          	lw	a5,188(sp)
   17e7c:	02012703          	lw	a4,32(sp)
   17e80:	56e7d6e3          	bge	a5,a4,18bec <_vfprintf_r+0x15f0>
   17e84:	02c12703          	lw	a4,44(sp)
   17e88:	0d812783          	lw	a5,216(sp)
   17e8c:	03412683          	lw	a3,52(sp)
   17e90:	00e60633          	add	a2,a2,a4
   17e94:	00178793          	addi	a5,a5,1
   17e98:	00e42223          	sw	a4,4(s0)
   17e9c:	00d42023          	sw	a3,0(s0)
   17ea0:	0cc12e23          	sw	a2,220(sp)
   17ea4:	0cf12c23          	sw	a5,216(sp)
   17ea8:	00700713          	li	a4,7
   17eac:	00840413          	addi	s0,s0,8
   17eb0:	00f75463          	bge	a4,a5,17eb8 <_vfprintf_r+0x8bc>
   17eb4:	1180106f          	j	18fcc <_vfprintf_r+0x19d0>
   17eb8:	02012783          	lw	a5,32(sp)
   17ebc:	fff78c93          	addi	s9,a5,-1
   17ec0:	a39052e3          	blez	s9,178e4 <_vfprintf_r+0x2e8>
   17ec4:	00021737          	lui	a4,0x21
   17ec8:	01000d13          	li	s10,16
   17ecc:	0d812783          	lw	a5,216(sp)
   17ed0:	58870713          	addi	a4,a4,1416 # 21588 <zeroes.0>
   17ed4:	019d4463          	blt	s10,s9,17edc <_vfprintf_r+0x8e0>
   17ed8:	6340106f          	j	1950c <_vfprintf_r+0x1f10>
   17edc:	00040693          	mv	a3,s0
   17ee0:	000c8993          	mv	s3,s9
   17ee4:	000d0b13          	mv	s6,s10
   17ee8:	000c0c93          	mv	s9,s8
   17eec:	00700d93          	li	s11,7
   17ef0:	000e0413          	mv	s0,t3
   17ef4:	00030c13          	mv	s8,t1
   17ef8:	00070a13          	mv	s4,a4
   17efc:	0100006f          	j	17f0c <_vfprintf_r+0x910>
   17f00:	ff098993          	addi	s3,s3,-16
   17f04:	013b4463          	blt	s6,s3,17f0c <_vfprintf_r+0x910>
   17f08:	5ec0106f          	j	194f4 <_vfprintf_r+0x1ef8>
   17f0c:	01060613          	addi	a2,a2,16
   17f10:	00178793          	addi	a5,a5,1
   17f14:	0146a023          	sw	s4,0(a3)
   17f18:	01a6a223          	sw	s10,4(a3)
   17f1c:	0cc12e23          	sw	a2,220(sp)
   17f20:	0cf12c23          	sw	a5,216(sp)
   17f24:	00868693          	addi	a3,a3,8
   17f28:	fcfddce3          	bge	s11,a5,17f00 <_vfprintf_r+0x904>
   17f2c:	01012583          	lw	a1,16(sp)
   17f30:	00c12503          	lw	a0,12(sp)
   17f34:	0d410613          	addi	a2,sp,212
   17f38:	1e5020ef          	jal	1a91c <__sprint_r>
   17f3c:	68051263          	bnez	a0,185c0 <_vfprintf_r+0xfc4>
   17f40:	0dc12603          	lw	a2,220(sp)
   17f44:	0d812783          	lw	a5,216(sp)
   17f48:	000a8693          	mv	a3,s5
   17f4c:	fb5ff06f          	j	17f00 <_vfprintf_r+0x904>
   17f50:	020a7793          	andi	a5,s4,32
   17f54:	00098e13          	mv	t3,s3
   17f58:	000a0313          	mv	t1,s4
   17f5c:	08079a63          	bnez	a5,17ff0 <_vfprintf_r+0x9f4>
   17f60:	01812783          	lw	a5,24(sp)
   17f64:	010a7713          	andi	a4,s4,16
   17f68:	0007a803          	lw	a6,0(a5)
   17f6c:	00478793          	addi	a5,a5,4
   17f70:	4e0716e3          	bnez	a4,18c5c <_vfprintf_r+0x1660>
   17f74:	040a7713          	andi	a4,s4,64
   17f78:	00071463          	bnez	a4,17f80 <_vfprintf_r+0x984>
   17f7c:	6880106f          	j	19604 <_vfprintf_r+0x2008>
   17f80:	01081d13          	slli	s10,a6,0x10
   17f84:	410d5d13          	srai	s10,s10,0x10
   17f88:	41fd5713          	srai	a4,s10,0x1f
   17f8c:	00f12c23          	sw	a5,24(sp)
   17f90:	00070693          	mv	a3,a4
   17f94:	0806c063          	bltz	a3,18014 <_vfprintf_r+0xa18>
   17f98:	080cce63          	bltz	s9,18034 <_vfprintf_r+0xa38>
   17f9c:	00ed67b3          	or	a5,s10,a4
   17fa0:	f7f37313          	andi	t1,t1,-129
   17fa4:	08079863          	bnez	a5,18034 <_vfprintf_r+0xa38>
   17fa8:	000c9463          	bnez	s9,17fb0 <_vfprintf_r+0x9b4>
   17fac:	2810106f          	j	19a2c <_vfprintf_r+0x2430>
   17fb0:	03000793          	li	a5,48
   17fb4:	0940006f          	j	18048 <_vfprintf_r+0xa4c>
   17fb8:	01812703          	lw	a4,24(sp)
   17fbc:	00098e13          	mv	t3,s3
   17fc0:	000a0313          	mv	t1,s4
   17fc4:	00072783          	lw	a5,0(a4)
   17fc8:	00100d13          	li	s10,1
   17fcc:	0a010ba3          	sb	zero,183(sp)
   17fd0:	12f10e23          	sb	a5,316(sp)
   17fd4:	00470793          	addi	a5,a4,4
   17fd8:	00f12c23          	sw	a5,24(sp)
   17fdc:	82dff06f          	j	17808 <_vfprintf_r+0x20c>
   17fe0:	020a7793          	andi	a5,s4,32
   17fe4:	00098e13          	mv	t3,s3
   17fe8:	010a6313          	ori	t1,s4,16
   17fec:	460784e3          	beqz	a5,18c54 <_vfprintf_r+0x1658>
   17ff0:	01812783          	lw	a5,24(sp)
   17ff4:	00778793          	addi	a5,a5,7
   17ff8:	ff87f793          	andi	a5,a5,-8
   17ffc:	0047a683          	lw	a3,4(a5)
   18000:	00878713          	addi	a4,a5,8
   18004:	00e12c23          	sw	a4,24(sp)
   18008:	0007ad03          	lw	s10,0(a5)
   1800c:	00068713          	mv	a4,a3
   18010:	f806d4e3          	bgez	a3,17f98 <_vfprintf_r+0x99c>
   18014:	02d00693          	li	a3,45
   18018:	01a037b3          	snez	a5,s10
   1801c:	40e00733          	neg	a4,a4
   18020:	0ad10ba3          	sb	a3,183(sp)
   18024:	40f70733          	sub	a4,a4,a5
   18028:	41a00d33          	neg	s10,s10
   1802c:	000cc463          	bltz	s9,18034 <_vfprintf_r+0xa38>
   18030:	f7f37313          	andi	t1,t1,-129
   18034:	46071ee3          	bnez	a4,18cb0 <_vfprintf_r+0x16b4>
   18038:	00900793          	li	a5,9
   1803c:	47a7eae3          	bltu	a5,s10,18cb0 <_vfprintf_r+0x16b4>
   18040:	030d0793          	addi	a5,s10,48
   18044:	0ff7f793          	zext.b	a5,a5
   18048:	18f10fa3          	sb	a5,415(sp)
   1804c:	000c8c13          	mv	s8,s9
   18050:	01904463          	bgtz	s9,18058 <_vfprintf_r+0xa5c>
   18054:	00100c13          	li	s8,1
   18058:	0b714703          	lbu	a4,183(sp)
   1805c:	00100d13          	li	s10,1
   18060:	19f10893          	addi	a7,sp,415
   18064:	0c070c63          	beqz	a4,1813c <_vfprintf_r+0xb40>
   18068:	001c0c13          	addi	s8,s8,1
   1806c:	00012e23          	sw	zero,28(sp)
   18070:	02012423          	sw	zero,40(sp)
   18074:	02012223          	sw	zero,36(sp)
   18078:	00000993          	li	s3,0
   1807c:	fa8ff06f          	j	17824 <_vfprintf_r+0x228>
   18080:	01812783          	lw	a5,24(sp)
   18084:	0007ab83          	lw	s7,0(a5)
   18088:	00478793          	addi	a5,a5,4
   1808c:	360bd8e3          	bgez	s7,18bfc <_vfprintf_r+0x1600>
   18090:	41700bb3          	neg	s7,s7
   18094:	00f12c23          	sw	a5,24(sp)
   18098:	0009cd83          	lbu	s11,0(s3)
   1809c:	004a6a13          	ori	s4,s4,4
   180a0:	ef8ff06f          	j	17798 <_vfprintf_r+0x19c>
   180a4:	020a7793          	andi	a5,s4,32
   180a8:	00098e13          	mv	t3,s3
   180ac:	010a6313          	ori	t1,s4,16
   180b0:	04079663          	bnez	a5,180fc <_vfprintf_r+0xb00>
   180b4:	01812783          	lw	a5,24(sp)
   180b8:	00478793          	addi	a5,a5,4
   180bc:	01812703          	lw	a4,24(sp)
   180c0:	0a010ba3          	sb	zero,183(sp)
   180c4:	00072d03          	lw	s10,0(a4)
   180c8:	00000713          	li	a4,0
   180cc:	3c0ccce3          	bltz	s9,18ca4 <_vfprintf_r+0x16a8>
   180d0:	f7f37313          	andi	t1,t1,-129
   180d4:	3c0d18e3          	bnez	s10,18ca4 <_vfprintf_r+0x16a8>
   180d8:	00f12c23          	sw	a5,24(sp)
   180dc:	000c9463          	bnez	s9,180e4 <_vfprintf_r+0xae8>
   180e0:	01c0106f          	j	190fc <_vfprintf_r+0x1b00>
   180e4:	00000d13          	li	s10,0
   180e8:	f59ff06f          	j	18040 <_vfprintf_r+0xa44>
   180ec:	020a7793          	andi	a5,s4,32
   180f0:	00098e13          	mv	t3,s3
   180f4:	000a0313          	mv	t1,s4
   180f8:	36078ee3          	beqz	a5,18c74 <_vfprintf_r+0x1678>
   180fc:	01812783          	lw	a5,24(sp)
   18100:	0a010ba3          	sb	zero,183(sp)
   18104:	00778793          	addi	a5,a5,7
   18108:	ff87f793          	andi	a5,a5,-8
   1810c:	00878713          	addi	a4,a5,8
   18110:	00e12c23          	sw	a4,24(sp)
   18114:	0007ad03          	lw	s10,0(a5)
   18118:	0047a703          	lw	a4,4(a5)
   1811c:	f00ccce3          	bltz	s9,18034 <_vfprintf_r+0xa38>
   18120:	00ed67b3          	or	a5,s10,a4
   18124:	f7f37313          	andi	t1,t1,-129
   18128:	f00796e3          	bnez	a5,18034 <_vfprintf_r+0xa38>
   1812c:	fa0c9ce3          	bnez	s9,180e4 <_vfprintf_r+0xae8>
   18130:	00000d13          	li	s10,0
   18134:	00000c13          	li	s8,0
   18138:	1a010893          	addi	a7,sp,416
   1813c:	00012e23          	sw	zero,28(sp)
   18140:	02012423          	sw	zero,40(sp)
   18144:	02012223          	sw	zero,36(sp)
   18148:	00000993          	li	s3,0
   1814c:	ed8ff06f          	j	17824 <_vfprintf_r+0x228>
   18150:	0009cd83          	lbu	s11,0(s3)
   18154:	008a6a13          	ori	s4,s4,8
   18158:	e40ff06f          	j	17798 <_vfprintf_r+0x19c>
   1815c:	020a7793          	andi	a5,s4,32
   18160:	00098e13          	mv	t3,s3
   18164:	010a6e93          	ori	t4,s4,16
   18168:	2c0788e3          	beqz	a5,18c38 <_vfprintf_r+0x163c>
   1816c:	01812783          	lw	a5,24(sp)
   18170:	00778793          	addi	a5,a5,7
   18174:	ff87f793          	andi	a5,a5,-8
   18178:	00878713          	addi	a4,a5,8
   1817c:	00e12c23          	sw	a4,24(sp)
   18180:	0047a583          	lw	a1,4(a5)
   18184:	0007a703          	lw	a4,0(a5)
   18188:	0a010ba3          	sb	zero,183(sp)
   1818c:	bffef313          	andi	t1,t4,-1025
   18190:	040cc063          	bltz	s9,181d0 <_vfprintf_r+0xbd4>
   18194:	00b767b3          	or	a5,a4,a1
   18198:	b7fef313          	andi	t1,t4,-1153
   1819c:	02079a63          	bnez	a5,181d0 <_vfprintf_r+0xbd4>
   181a0:	020c9863          	bnez	s9,181d0 <_vfprintf_r+0xbd4>
   181a4:	001efd13          	andi	s10,t4,1
   181a8:	740d0ae3          	beqz	s10,190fc <_vfprintf_r+0x1b00>
   181ac:	03000793          	li	a5,48
   181b0:	18f10fa3          	sb	a5,415(sp)
   181b4:	000d0c13          	mv	s8,s10
   181b8:	19f10893          	addi	a7,sp,415
   181bc:	00012e23          	sw	zero,28(sp)
   181c0:	02012423          	sw	zero,40(sp)
   181c4:	02012223          	sw	zero,36(sp)
   181c8:	00000993          	li	s3,0
   181cc:	e58ff06f          	j	17824 <_vfprintf_r+0x228>
   181d0:	1a010893          	addi	a7,sp,416
   181d4:	01d59793          	slli	a5,a1,0x1d
   181d8:	00777693          	andi	a3,a4,7
   181dc:	00375713          	srli	a4,a4,0x3
   181e0:	00088513          	mv	a0,a7
   181e4:	03068693          	addi	a3,a3,48
   181e8:	00e7e733          	or	a4,a5,a4
   181ec:	0035d593          	srli	a1,a1,0x3
   181f0:	00b767b3          	or	a5,a4,a1
   181f4:	fed88fa3          	sb	a3,-1(a7)
   181f8:	fff88893          	addi	a7,a7,-1
   181fc:	fc079ce3          	bnez	a5,181d4 <_vfprintf_r+0xbd8>
   18200:	00137713          	andi	a4,t1,1
   18204:	04070063          	beqz	a4,18244 <_vfprintf_r+0xc48>
   18208:	03000713          	li	a4,48
   1820c:	02e68c63          	beq	a3,a4,18244 <_vfprintf_r+0xc48>
   18210:	ffe50513          	addi	a0,a0,-2
   18214:	1a010793          	addi	a5,sp,416
   18218:	fee88fa3          	sb	a4,-1(a7)
   1821c:	40a78d33          	sub	s10,a5,a0
   18220:	000c8c13          	mv	s8,s9
   18224:	01acd463          	bge	s9,s10,1822c <_vfprintf_r+0xc30>
   18228:	000d0c13          	mv	s8,s10
   1822c:	00050893          	mv	a7,a0
   18230:	00012e23          	sw	zero,28(sp)
   18234:	02012423          	sw	zero,40(sp)
   18238:	02012223          	sw	zero,36(sp)
   1823c:	00000993          	li	s3,0
   18240:	de4ff06f          	j	17824 <_vfprintf_r+0x228>
   18244:	1a010793          	addi	a5,sp,416
   18248:	41178d33          	sub	s10,a5,a7
   1824c:	000c8c13          	mv	s8,s9
   18250:	efacd6e3          	bge	s9,s10,1813c <_vfprintf_r+0xb40>
   18254:	000d0c13          	mv	s8,s10
   18258:	00012e23          	sw	zero,28(sp)
   1825c:	02012423          	sw	zero,40(sp)
   18260:	02012223          	sw	zero,36(sp)
   18264:	00000993          	li	s3,0
   18268:	dbcff06f          	j	17824 <_vfprintf_r+0x228>
   1826c:	0009cd83          	lbu	s11,0(s3)
   18270:	06800793          	li	a5,104
   18274:	52fd8ae3          	beq	s11,a5,18fa8 <_vfprintf_r+0x19ac>
   18278:	040a6a13          	ori	s4,s4,64
   1827c:	d1cff06f          	j	17798 <_vfprintf_r+0x19c>
   18280:	01812683          	lw	a3,24(sp)
   18284:	020a7793          	andi	a5,s4,32
   18288:	00098e13          	mv	t3,s3
   1828c:	00468713          	addi	a4,a3,4
   18290:	300792e3          	bnez	a5,18d94 <_vfprintf_r+0x1798>
   18294:	010a7793          	andi	a5,s4,16
   18298:	00078463          	beqz	a5,182a0 <_vfprintf_r+0xca4>
   1829c:	3100106f          	j	195ac <_vfprintf_r+0x1fb0>
   182a0:	040a7793          	andi	a5,s4,64
   182a4:	00078463          	beqz	a5,182ac <_vfprintf_r+0xcb0>
   182a8:	0510106f          	j	19af8 <_vfprintf_r+0x24fc>
   182ac:	200a7313          	andi	t1,s4,512
   182b0:	00031463          	bnez	t1,182b8 <_vfprintf_r+0xcbc>
   182b4:	2f80106f          	j	195ac <_vfprintf_r+0x1fb0>
   182b8:	01812783          	lw	a5,24(sp)
   182bc:	01412683          	lw	a3,20(sp)
   182c0:	00e12c23          	sw	a4,24(sp)
   182c4:	0007a783          	lw	a5,0(a5)
   182c8:	00d78023          	sb	a3,0(a5)
   182cc:	000e0893          	mv	a7,t3
   182d0:	e68ff06f          	j	17938 <_vfprintf_r+0x33c>
   182d4:	0009cd83          	lbu	s11,0(s3)
   182d8:	06c00793          	li	a5,108
   182dc:	4afd8ee3          	beq	s11,a5,18f98 <_vfprintf_r+0x199c>
   182e0:	010a6a13          	ori	s4,s4,16
   182e4:	cb4ff06f          	j	17798 <_vfprintf_r+0x19c>
   182e8:	01812703          	lw	a4,24(sp)
   182ec:	000087b7          	lui	a5,0x8
   182f0:	83078793          	addi	a5,a5,-2000 # 7830 <_start-0x87d0>
   182f4:	0af11c23          	sh	a5,184(sp)
   182f8:	0a010ba3          	sb	zero,183(sp)
   182fc:	00072683          	lw	a3,0(a4)
   18300:	00098e13          	mv	t3,s3
   18304:	00470793          	addi	a5,a4,4
   18308:	00000613          	li	a2,0
   1830c:	2a0cc6e3          	bltz	s9,18db8 <_vfprintf_r+0x17bc>
   18310:	f7fa7713          	andi	a4,s4,-129
   18314:	00276713          	ori	a4,a4,2
   18318:	00068463          	beqz	a3,18320 <_vfprintf_r+0xd24>
   1831c:	2a80106f          	j	195c4 <_vfprintf_r+0x1fc8>
   18320:	000c9463          	bnez	s9,18328 <_vfprintf_r+0xd2c>
   18324:	7600106f          	j	19a84 <_vfprintf_r+0x2488>
   18328:	03000693          	li	a3,48
   1832c:	00f12c23          	sw	a5,24(sp)
   18330:	00070313          	mv	t1,a4
   18334:	18d10fa3          	sb	a3,415(sp)
   18338:	000c8c13          	mv	s8,s9
   1833c:	00012e23          	sw	zero,28(sp)
   18340:	00100d13          	li	s10,1
   18344:	02012423          	sw	zero,40(sp)
   18348:	02012223          	sw	zero,36(sp)
   1834c:	00000993          	li	s3,0
   18350:	07800d93          	li	s11,120
   18354:	19f10893          	addi	a7,sp,415
   18358:	00000813          	li	a6,0
   1835c:	2f90006f          	j	18e54 <_vfprintf_r+0x1858>
   18360:	020a7793          	andi	a5,s4,32
   18364:	00098e13          	mv	t3,s3
   18368:	240794e3          	bnez	a5,18db0 <_vfprintf_r+0x17b4>
   1836c:	01812783          	lw	a5,24(sp)
   18370:	010a7693          	andi	a3,s4,16
   18374:	0007a703          	lw	a4,0(a5)
   18378:	00478793          	addi	a5,a5,4
   1837c:	00068463          	beqz	a3,18384 <_vfprintf_r+0xd88>
   18380:	1600206f          	j	1a4e0 <_vfprintf_r+0x2ee4>
   18384:	040a7693          	andi	a3,s4,64
   18388:	00069463          	bnez	a3,18390 <_vfprintf_r+0xd94>
   1838c:	2cc0106f          	j	19658 <_vfprintf_r+0x205c>
   18390:	01071713          	slli	a4,a4,0x10
   18394:	01075713          	srli	a4,a4,0x10
   18398:	00f12c23          	sw	a5,24(sp)
   1839c:	000a0e93          	mv	t4,s4
   183a0:	00000593          	li	a1,0
   183a4:	de5ff06f          	j	18188 <_vfprintf_r+0xb8c>
   183a8:	00c12d03          	lw	s10,12(sp)
   183ac:	000d0513          	mv	a0,s10
   183b0:	170030ef          	jal	1b520 <_localeconv_r>
   183b4:	00452783          	lw	a5,4(a0)
   183b8:	00078513          	mv	a0,a5
   183bc:	04f12023          	sw	a5,64(sp)
   183c0:	c30fe0ef          	jal	167f0 <strlen>
   183c4:	00050793          	mv	a5,a0
   183c8:	000d0513          	mv	a0,s10
   183cc:	04f12823          	sw	a5,80(sp)
   183d0:	00078d13          	mv	s10,a5
   183d4:	14c030ef          	jal	1b520 <_localeconv_r>
   183d8:	00852703          	lw	a4,8(a0)
   183dc:	0009cd83          	lbu	s11,0(s3)
   183e0:	02e12823          	sw	a4,48(sp)
   183e4:	ba0d0a63          	beqz	s10,17798 <_vfprintf_r+0x19c>
   183e8:	ba070863          	beqz	a4,17798 <_vfprintf_r+0x19c>
   183ec:	00074783          	lbu	a5,0(a4)
   183f0:	ba078463          	beqz	a5,17798 <_vfprintf_r+0x19c>
   183f4:	400a6a13          	ori	s4,s4,1024
   183f8:	ba0ff06f          	j	17798 <_vfprintf_r+0x19c>
   183fc:	0009cd83          	lbu	s11,0(s3)
   18400:	001a6a13          	ori	s4,s4,1
   18404:	b94ff06f          	j	17798 <_vfprintf_r+0x19c>
   18408:	0b714783          	lbu	a5,183(sp)
   1840c:	0009cd83          	lbu	s11,0(s3)
   18410:	b8079463          	bnez	a5,17798 <_vfprintf_r+0x19c>
   18414:	02000793          	li	a5,32
   18418:	0af10ba3          	sb	a5,183(sp)
   1841c:	b7cff06f          	j	17798 <_vfprintf_r+0x19c>
   18420:	0009cd83          	lbu	s11,0(s3)
   18424:	080a6a13          	ori	s4,s4,128
   18428:	b70ff06f          	j	17798 <_vfprintf_r+0x19c>
   1842c:	02b00793          	li	a5,43
   18430:	0009cd83          	lbu	s11,0(s3)
   18434:	0af10ba3          	sb	a5,183(sp)
   18438:	b60ff06f          	j	17798 <_vfprintf_r+0x19c>
   1843c:	0009cd83          	lbu	s11,0(s3)
   18440:	02a00793          	li	a5,42
   18444:	00198693          	addi	a3,s3,1
   18448:	00fd9463          	bne	s11,a5,18450 <_vfprintf_r+0xe54>
   1844c:	3380206f          	j	1a784 <_vfprintf_r+0x3188>
   18450:	00900613          	li	a2,9
   18454:	fd0d8793          	addi	a5,s11,-48
   18458:	00000c93          	li	s9,0
   1845c:	02f66463          	bltu	a2,a5,18484 <_vfprintf_r+0xe88>
   18460:	002c9713          	slli	a4,s9,0x2
   18464:	0006cd83          	lbu	s11,0(a3)
   18468:	01970cb3          	add	s9,a4,s9
   1846c:	001c9c93          	slli	s9,s9,0x1
   18470:	00fc8cb3          	add	s9,s9,a5
   18474:	fd0d8793          	addi	a5,s11,-48
   18478:	00168693          	addi	a3,a3,1
   1847c:	fef672e3          	bgeu	a2,a5,18460 <_vfprintf_r+0xe64>
   18480:	260ccce3          	bltz	s9,18ef8 <_vfprintf_r+0x18fc>
   18484:	00068993          	mv	s3,a3
   18488:	b14ff06f          	j	1779c <_vfprintf_r+0x1a0>
   1848c:	418b8833          	sub	a6,s7,s8
   18490:	c1005e63          	blez	a6,178ac <_vfprintf_r+0x2b0>
   18494:	00021737          	lui	a4,0x21
   18498:	01000f13          	li	t5,16
   1849c:	0d812583          	lw	a1,216(sp)
   184a0:	58870713          	addi	a4,a4,1416 # 21588 <zeroes.0>
   184a4:	0b0f5263          	bge	t5,a6,18548 <_vfprintf_r+0xf4c>
   184a8:	00040793          	mv	a5,s0
   184ac:	03312c23          	sw	s3,56(sp)
   184b0:	000f0293          	mv	t0,t5
   184b4:	00700f93          	li	t6,7
   184b8:	000e0a13          	mv	s4,t3
   184bc:	00080413          	mv	s0,a6
   184c0:	00030b13          	mv	s6,t1
   184c4:	05112223          	sw	a7,68(sp)
   184c8:	00070993          	mv	s3,a4
   184cc:	00c0006f          	j	184d8 <_vfprintf_r+0xedc>
   184d0:	ff040413          	addi	s0,s0,-16
   184d4:	0482dc63          	bge	t0,s0,1852c <_vfprintf_r+0xf30>
   184d8:	01060613          	addi	a2,a2,16
   184dc:	00158593          	addi	a1,a1,1
   184e0:	0137a023          	sw	s3,0(a5)
   184e4:	01e7a223          	sw	t5,4(a5)
   184e8:	0cc12e23          	sw	a2,220(sp)
   184ec:	0cb12c23          	sw	a1,216(sp)
   184f0:	00878793          	addi	a5,a5,8
   184f4:	fcbfdee3          	bge	t6,a1,184d0 <_vfprintf_r+0xed4>
   184f8:	01012583          	lw	a1,16(sp)
   184fc:	00c12503          	lw	a0,12(sp)
   18500:	0d410613          	addi	a2,sp,212
   18504:	418020ef          	jal	1a91c <__sprint_r>
   18508:	0a051c63          	bnez	a0,185c0 <_vfprintf_r+0xfc4>
   1850c:	01000293          	li	t0,16
   18510:	ff040413          	addi	s0,s0,-16
   18514:	0dc12603          	lw	a2,220(sp)
   18518:	0d812583          	lw	a1,216(sp)
   1851c:	000a8793          	mv	a5,s5
   18520:	00700f93          	li	t6,7
   18524:	00028f13          	mv	t5,t0
   18528:	fa82c8e3          	blt	t0,s0,184d8 <_vfprintf_r+0xedc>
   1852c:	00098713          	mv	a4,s3
   18530:	04412883          	lw	a7,68(sp)
   18534:	03812983          	lw	s3,56(sp)
   18538:	00040813          	mv	a6,s0
   1853c:	000a0e13          	mv	t3,s4
   18540:	00078413          	mv	s0,a5
   18544:	000b0313          	mv	t1,s6
   18548:	01060633          	add	a2,a2,a6
   1854c:	00158593          	addi	a1,a1,1
   18550:	00e42023          	sw	a4,0(s0)
   18554:	01042223          	sw	a6,4(s0)
   18558:	0cc12e23          	sw	a2,220(sp)
   1855c:	0cb12c23          	sw	a1,216(sp)
   18560:	00700713          	li	a4,7
   18564:	00840413          	addi	s0,s0,8
   18568:	b4b75263          	bge	a4,a1,178ac <_vfprintf_r+0x2b0>
   1856c:	01012583          	lw	a1,16(sp)
   18570:	00c12503          	lw	a0,12(sp)
   18574:	0d410613          	addi	a2,sp,212
   18578:	05112423          	sw	a7,72(sp)
   1857c:	04612223          	sw	t1,68(sp)
   18580:	03c12c23          	sw	t3,56(sp)
   18584:	398020ef          	jal	1a91c <__sprint_r>
   18588:	02051c63          	bnez	a0,185c0 <_vfprintf_r+0xfc4>
   1858c:	0dc12603          	lw	a2,220(sp)
   18590:	03812e03          	lw	t3,56(sp)
   18594:	04412303          	lw	t1,68(sp)
   18598:	04812883          	lw	a7,72(sp)
   1859c:	000a8413          	mv	s0,s5
   185a0:	b0cff06f          	j	178ac <_vfprintf_r+0x2b0>
   185a4:	01012583          	lw	a1,16(sp)
   185a8:	00c12503          	lw	a0,12(sp)
   185ac:	0d410613          	addi	a2,sp,212
   185b0:	03c12223          	sw	t3,36(sp)
   185b4:	368020ef          	jal	1a91c <__sprint_r>
   185b8:	02412e03          	lw	t3,36(sp)
   185bc:	b4050a63          	beqz	a0,17910 <_vfprintf_r+0x314>
   185c0:	01012983          	lw	s3,16(sp)
   185c4:	01c12583          	lw	a1,28(sp)
   185c8:	00058663          	beqz	a1,185d4 <_vfprintf_r+0xfd8>
   185cc:	00c12503          	lw	a0,12(sp)
   185d0:	d2cfe0ef          	jal	16afc <_free_r>
   185d4:	00c9d783          	lhu	a5,12(s3)
   185d8:	1d412483          	lw	s1,468(sp)
   185dc:	1d012903          	lw	s2,464(sp)
   185e0:	0407f793          	andi	a5,a5,64
   185e4:	1c412a83          	lw	s5,452(sp)
   185e8:	1c012b03          	lw	s6,448(sp)
   185ec:	1bc12b83          	lw	s7,444(sp)
   185f0:	1b812c03          	lw	s8,440(sp)
   185f4:	1b412c83          	lw	s9,436(sp)
   185f8:	1b012d03          	lw	s10,432(sp)
   185fc:	1ac12d83          	lw	s11,428(sp)
   18600:	be079c63          	bnez	a5,179f8 <_vfprintf_r+0x3fc>
   18604:	1dc12083          	lw	ra,476(sp)
   18608:	1d812403          	lw	s0,472(sp)
   1860c:	01412503          	lw	a0,20(sp)
   18610:	1cc12983          	lw	s3,460(sp)
   18614:	1c812a03          	lw	s4,456(sp)
   18618:	1e010113          	addi	sp,sp,480
   1861c:	00008067          	ret
   18620:	0d812d03          	lw	s10,216(sp)
   18624:	02012783          	lw	a5,32(sp)
   18628:	00100713          	li	a4,1
   1862c:	00e60cb3          	add	s9,a2,a4
   18630:	00ed0d33          	add	s10,s10,a4
   18634:	00840d93          	addi	s11,s0,8
   18638:	3cf75a63          	bge	a4,a5,18a0c <_vfprintf_r+0x1410>
   1863c:	00100713          	li	a4,1
   18640:	00e42223          	sw	a4,4(s0)
   18644:	01142023          	sw	a7,0(s0)
   18648:	0d912e23          	sw	s9,220(sp)
   1864c:	0da12c23          	sw	s10,216(sp)
   18650:	00700713          	li	a4,7
   18654:	4da748e3          	blt	a4,s10,19324 <_vfprintf_r+0x1d28>
   18658:	02c12783          	lw	a5,44(sp)
   1865c:	03412703          	lw	a4,52(sp)
   18660:	001d0d13          	addi	s10,s10,1
   18664:	00fc8cb3          	add	s9,s9,a5
   18668:	00eda023          	sw	a4,0(s11)
   1866c:	00fda223          	sw	a5,4(s11)
   18670:	0d912e23          	sw	s9,220(sp)
   18674:	0da12c23          	sw	s10,216(sp)
   18678:	00700713          	li	a4,7
   1867c:	008d8d93          	addi	s11,s11,8
   18680:	4fa740e3          	blt	a4,s10,19360 <_vfprintf_r+0x1d64>
   18684:	0e012503          	lw	a0,224(sp)
   18688:	0e412583          	lw	a1,228(sp)
   1868c:	0e812603          	lw	a2,232(sp)
   18690:	0ec12703          	lw	a4,236(sp)
   18694:	02012783          	lw	a5,32(sp)
   18698:	0aa12023          	sw	a0,160(sp)
   1869c:	0ab12223          	sw	a1,164(sp)
   186a0:	0a010513          	addi	a0,sp,160
   186a4:	09010593          	addi	a1,sp,144
   186a8:	02612423          	sw	t1,40(sp)
   186ac:	03c12223          	sw	t3,36(sp)
   186b0:	03112c23          	sw	a7,56(sp)
   186b4:	08012823          	sw	zero,144(sp)
   186b8:	08012a23          	sw	zero,148(sp)
   186bc:	08012c23          	sw	zero,152(sp)
   186c0:	08012e23          	sw	zero,156(sp)
   186c4:	0ac12423          	sw	a2,168(sp)
   186c8:	0ae12623          	sw	a4,172(sp)
   186cc:	fff78413          	addi	s0,a5,-1
   186d0:	865fa0ef          	jal	12f34 <__eqtf2>
   186d4:	02412e03          	lw	t3,36(sp)
   186d8:	02812303          	lw	t1,40(sp)
   186dc:	46050e63          	beqz	a0,18b58 <_vfprintf_r+0x155c>
   186e0:	03812883          	lw	a7,56(sp)
   186e4:	001d0d13          	addi	s10,s10,1
   186e8:	008c8cb3          	add	s9,s9,s0
   186ec:	00188793          	addi	a5,a7,1
   186f0:	0da12c23          	sw	s10,216(sp)
   186f4:	0d912e23          	sw	s9,220(sp)
   186f8:	00fda023          	sw	a5,0(s11)
   186fc:	008da223          	sw	s0,4(s11)
   18700:	00700793          	li	a5,7
   18704:	7da7c063          	blt	a5,s10,18ec4 <_vfprintf_r+0x18c8>
   18708:	008d8d93          	addi	s11,s11,8
   1870c:	03c12683          	lw	a3,60(sp)
   18710:	0c410713          	addi	a4,sp,196
   18714:	001d0793          	addi	a5,s10,1
   18718:	01968633          	add	a2,a3,s9
   1871c:	00eda023          	sw	a4,0(s11)
   18720:	0cc12e23          	sw	a2,220(sp)
   18724:	0cf12c23          	sw	a5,216(sp)
   18728:	00dda223          	sw	a3,4(s11)
   1872c:	00700713          	li	a4,7
   18730:	008d8413          	addi	s0,s11,8
   18734:	9af75863          	bge	a4,a5,178e4 <_vfprintf_r+0x2e8>
   18738:	01012583          	lw	a1,16(sp)
   1873c:	00c12503          	lw	a0,12(sp)
   18740:	0d410613          	addi	a2,sp,212
   18744:	02612423          	sw	t1,40(sp)
   18748:	03c12223          	sw	t3,36(sp)
   1874c:	1d0020ef          	jal	1a91c <__sprint_r>
   18750:	e60518e3          	bnez	a0,185c0 <_vfprintf_r+0xfc4>
   18754:	0dc12603          	lw	a2,220(sp)
   18758:	02812303          	lw	t1,40(sp)
   1875c:	02412e03          	lw	t3,36(sp)
   18760:	000a8413          	mv	s0,s5
   18764:	980ff06f          	j	178e4 <_vfprintf_r+0x2e8>
   18768:	01012583          	lw	a1,16(sp)
   1876c:	00c12503          	lw	a0,12(sp)
   18770:	0d410613          	addi	a2,sp,212
   18774:	05112623          	sw	a7,76(sp)
   18778:	04612423          	sw	t1,72(sp)
   1877c:	05e12223          	sw	t5,68(sp)
   18780:	03c12c23          	sw	t3,56(sp)
   18784:	198020ef          	jal	1a91c <__sprint_r>
   18788:	e2051ce3          	bnez	a0,185c0 <_vfprintf_r+0xfc4>
   1878c:	0dc12603          	lw	a2,220(sp)
   18790:	04c12883          	lw	a7,76(sp)
   18794:	04812303          	lw	t1,72(sp)
   18798:	04412f03          	lw	t5,68(sp)
   1879c:	03812e03          	lw	t3,56(sp)
   187a0:	000a8413          	mv	s0,s5
   187a4:	900ff06f          	j	178a4 <_vfprintf_r+0x2a8>
   187a8:	00021837          	lui	a6,0x21
   187ac:	01000993          	li	s3,16
   187b0:	0d812783          	lw	a5,216(sp)
   187b4:	59880813          	addi	a6,a6,1432 # 21598 <blanks.1>
   187b8:	0799de63          	bge	s3,s9,18834 <_vfprintf_r+0x1238>
   187bc:	00040713          	mv	a4,s0
   187c0:	01012b03          	lw	s6,16(sp)
   187c4:	00098d93          	mv	s11,s3
   187c8:	00700d13          	li	s10,7
   187cc:	000e0413          	mv	s0,t3
   187d0:	00080a13          	mv	s4,a6
   187d4:	00c0006f          	j	187e0 <_vfprintf_r+0x11e4>
   187d8:	ff0c8c93          	addi	s9,s9,-16
   187dc:	059dd663          	bge	s11,s9,18828 <_vfprintf_r+0x122c>
   187e0:	01060613          	addi	a2,a2,16
   187e4:	00178793          	addi	a5,a5,1
   187e8:	01472023          	sw	s4,0(a4)
   187ec:	01372223          	sw	s3,4(a4)
   187f0:	0cc12e23          	sw	a2,220(sp)
   187f4:	0cf12c23          	sw	a5,216(sp)
   187f8:	00870713          	addi	a4,a4,8
   187fc:	fcfd5ee3          	bge	s10,a5,187d8 <_vfprintf_r+0x11dc>
   18800:	00c12503          	lw	a0,12(sp)
   18804:	0d410613          	addi	a2,sp,212
   18808:	000b0593          	mv	a1,s6
   1880c:	110020ef          	jal	1a91c <__sprint_r>
   18810:	4c051ee3          	bnez	a0,194ec <_vfprintf_r+0x1ef0>
   18814:	ff0c8c93          	addi	s9,s9,-16
   18818:	0dc12603          	lw	a2,220(sp)
   1881c:	0d812783          	lw	a5,216(sp)
   18820:	000a8713          	mv	a4,s5
   18824:	fb9dcee3          	blt	s11,s9,187e0 <_vfprintf_r+0x11e4>
   18828:	00040e13          	mv	t3,s0
   1882c:	000a0813          	mv	a6,s4
   18830:	00070413          	mv	s0,a4
   18834:	01960633          	add	a2,a2,s9
   18838:	00178793          	addi	a5,a5,1
   1883c:	0cc12e23          	sw	a2,220(sp)
   18840:	0cf12c23          	sw	a5,216(sp)
   18844:	01042023          	sw	a6,0(s0)
   18848:	01942223          	sw	s9,4(s0)
   1884c:	00700713          	li	a4,7
   18850:	8af75263          	bge	a4,a5,178f4 <_vfprintf_r+0x2f8>
   18854:	01012583          	lw	a1,16(sp)
   18858:	00c12503          	lw	a0,12(sp)
   1885c:	0d410613          	addi	a2,sp,212
   18860:	03c12223          	sw	t3,36(sp)
   18864:	0b8020ef          	jal	1a91c <__sprint_r>
   18868:	d4051ce3          	bnez	a0,185c0 <_vfprintf_r+0xfc4>
   1886c:	0dc12603          	lw	a2,220(sp)
   18870:	02412e03          	lw	t3,36(sp)
   18874:	880ff06f          	j	178f4 <_vfprintf_r+0x2f8>
   18878:	0bc12503          	lw	a0,188(sp)
   1887c:	34a056e3          	blez	a0,193c8 <_vfprintf_r+0x1dcc>
   18880:	02012783          	lw	a5,32(sp)
   18884:	00098c93          	mv	s9,s3
   18888:	5f37cc63          	blt	a5,s3,18e80 <_vfprintf_r+0x1884>
   1888c:	03905863          	blez	s9,188bc <_vfprintf_r+0x12c0>
   18890:	0d812703          	lw	a4,216(sp)
   18894:	01960633          	add	a2,a2,s9
   18898:	01142023          	sw	a7,0(s0)
   1889c:	00170713          	addi	a4,a4,1
   188a0:	01942223          	sw	s9,4(s0)
   188a4:	0cc12e23          	sw	a2,220(sp)
   188a8:	0ce12c23          	sw	a4,216(sp)
   188ac:	00700593          	li	a1,7
   188b0:	00840413          	addi	s0,s0,8
   188b4:	00e5d463          	bge	a1,a4,188bc <_vfprintf_r+0x12c0>
   188b8:	1880106f          	j	19a40 <_vfprintf_r+0x2444>
   188bc:	fffcc713          	not	a4,s9
   188c0:	41f75713          	srai	a4,a4,0x1f
   188c4:	00ecfcb3          	and	s9,s9,a4
   188c8:	41998cb3          	sub	s9,s3,s9
   188cc:	77904263          	bgtz	s9,19030 <_vfprintf_r+0x1a34>
   188d0:	40037713          	andi	a4,t1,1024
   188d4:	01388db3          	add	s11,a7,s3
   188d8:	6e0710e3          	bnez	a4,197b8 <_vfprintf_r+0x21bc>
   188dc:	0bc12c83          	lw	s9,188(sp)
   188e0:	02012783          	lw	a5,32(sp)
   188e4:	00fcc863          	blt	s9,a5,188f4 <_vfprintf_r+0x12f8>
   188e8:	00137713          	andi	a4,t1,1
   188ec:	00071463          	bnez	a4,188f4 <_vfprintf_r+0x12f8>
   188f0:	1e00106f          	j	19ad0 <_vfprintf_r+0x24d4>
   188f4:	0d812703          	lw	a4,216(sp)
   188f8:	02c12783          	lw	a5,44(sp)
   188fc:	03412683          	lw	a3,52(sp)
   18900:	00170713          	addi	a4,a4,1
   18904:	00f60633          	add	a2,a2,a5
   18908:	00d42023          	sw	a3,0(s0)
   1890c:	00f42223          	sw	a5,4(s0)
   18910:	0cc12e23          	sw	a2,220(sp)
   18914:	0ce12c23          	sw	a4,216(sp)
   18918:	00700593          	li	a1,7
   1891c:	00840413          	addi	s0,s0,8
   18920:	00e5d463          	bge	a1,a4,18928 <_vfprintf_r+0x132c>
   18924:	2350106f          	j	1a358 <_vfprintf_r+0x2d5c>
   18928:	02012703          	lw	a4,32(sp)
   1892c:	00e887b3          	add	a5,a7,a4
   18930:	41b78d33          	sub	s10,a5,s11
   18934:	41970cb3          	sub	s9,a4,s9
   18938:	01acd463          	bge	s9,s10,18940 <_vfprintf_r+0x1344>
   1893c:	000c8d13          	mv	s10,s9
   18940:	03a05863          	blez	s10,18970 <_vfprintf_r+0x1374>
   18944:	0d812783          	lw	a5,216(sp)
   18948:	01a60633          	add	a2,a2,s10
   1894c:	01b42023          	sw	s11,0(s0)
   18950:	00178793          	addi	a5,a5,1
   18954:	01a42223          	sw	s10,4(s0)
   18958:	0cc12e23          	sw	a2,220(sp)
   1895c:	0cf12c23          	sw	a5,216(sp)
   18960:	00700713          	li	a4,7
   18964:	00840413          	addi	s0,s0,8
   18968:	00f75463          	bge	a4,a5,18970 <_vfprintf_r+0x1374>
   1896c:	27d0106f          	j	1a3e8 <_vfprintf_r+0x2dec>
   18970:	fffd4793          	not	a5,s10
   18974:	41f7d793          	srai	a5,a5,0x1f
   18978:	00fd7d33          	and	s10,s10,a5
   1897c:	41ac8cb3          	sub	s9,s9,s10
   18980:	01904463          	bgtz	s9,18988 <_vfprintf_r+0x138c>
   18984:	f61fe06f          	j	178e4 <_vfprintf_r+0x2e8>
   18988:	00021737          	lui	a4,0x21
   1898c:	01000d13          	li	s10,16
   18990:	0d812783          	lw	a5,216(sp)
   18994:	58870713          	addi	a4,a4,1416 # 21588 <zeroes.0>
   18998:	379d5ae3          	bge	s10,s9,1950c <_vfprintf_r+0x1f10>
   1899c:	00040693          	mv	a3,s0
   189a0:	000c8993          	mv	s3,s9
   189a4:	000d0b13          	mv	s6,s10
   189a8:	000c0c93          	mv	s9,s8
   189ac:	00700d93          	li	s11,7
   189b0:	000e0413          	mv	s0,t3
   189b4:	00030c13          	mv	s8,t1
   189b8:	00070a13          	mv	s4,a4
   189bc:	00c0006f          	j	189c8 <_vfprintf_r+0x13cc>
   189c0:	ff098993          	addi	s3,s3,-16
   189c4:	333b58e3          	bge	s6,s3,194f4 <_vfprintf_r+0x1ef8>
   189c8:	01060613          	addi	a2,a2,16
   189cc:	00178793          	addi	a5,a5,1
   189d0:	0146a023          	sw	s4,0(a3)
   189d4:	01a6a223          	sw	s10,4(a3)
   189d8:	0cc12e23          	sw	a2,220(sp)
   189dc:	0cf12c23          	sw	a5,216(sp)
   189e0:	00868693          	addi	a3,a3,8
   189e4:	fcfddee3          	bge	s11,a5,189c0 <_vfprintf_r+0x13c4>
   189e8:	01012583          	lw	a1,16(sp)
   189ec:	00c12503          	lw	a0,12(sp)
   189f0:	0d410613          	addi	a2,sp,212
   189f4:	729010ef          	jal	1a91c <__sprint_r>
   189f8:	bc0514e3          	bnez	a0,185c0 <_vfprintf_r+0xfc4>
   189fc:	0dc12603          	lw	a2,220(sp)
   18a00:	0d812783          	lw	a5,216(sp)
   18a04:	000a8693          	mv	a3,s5
   18a08:	fb9ff06f          	j	189c0 <_vfprintf_r+0x13c4>
   18a0c:	00e37633          	and	a2,t1,a4
   18a10:	c20616e3          	bnez	a2,1863c <_vfprintf_r+0x1040>
   18a14:	01142023          	sw	a7,0(s0)
   18a18:	00e42223          	sw	a4,4(s0)
   18a1c:	0d912e23          	sw	s9,220(sp)
   18a20:	0da12c23          	sw	s10,216(sp)
   18a24:	00700793          	li	a5,7
   18a28:	cfa7d2e3          	bge	a5,s10,1870c <_vfprintf_r+0x1110>
   18a2c:	01012583          	lw	a1,16(sp)
   18a30:	00c12503          	lw	a0,12(sp)
   18a34:	0d410613          	addi	a2,sp,212
   18a38:	02612423          	sw	t1,40(sp)
   18a3c:	03c12223          	sw	t3,36(sp)
   18a40:	6dd010ef          	jal	1a91c <__sprint_r>
   18a44:	b6051ee3          	bnez	a0,185c0 <_vfprintf_r+0xfc4>
   18a48:	0dc12c83          	lw	s9,220(sp)
   18a4c:	0d812d03          	lw	s10,216(sp)
   18a50:	02812303          	lw	t1,40(sp)
   18a54:	02412e03          	lw	t3,36(sp)
   18a58:	000a8d93          	mv	s11,s5
   18a5c:	cb1ff06f          	j	1870c <_vfprintf_r+0x1110>
   18a60:	0d812583          	lw	a1,216(sp)
   18a64:	00021837          	lui	a6,0x21
   18a68:	01000f93          	li	t6,16
   18a6c:	59880813          	addi	a6,a6,1432 # 21598 <blanks.1>
   18a70:	0aefd663          	bge	t6,a4,18b1c <_vfprintf_r+0x1520>
   18a74:	00040793          	mv	a5,s0
   18a78:	05312223          	sw	s3,68(sp)
   18a7c:	000f8393          	mv	t2,t6
   18a80:	00700293          	li	t0,7
   18a84:	03c12c23          	sw	t3,56(sp)
   18a88:	00070413          	mv	s0,a4
   18a8c:	000f0a13          	mv	s4,t5
   18a90:	00030b13          	mv	s6,t1
   18a94:	05112423          	sw	a7,72(sp)
   18a98:	00080993          	mv	s3,a6
   18a9c:	00c0006f          	j	18aa8 <_vfprintf_r+0x14ac>
   18aa0:	ff040413          	addi	s0,s0,-16
   18aa4:	0483dc63          	bge	t2,s0,18afc <_vfprintf_r+0x1500>
   18aa8:	01050513          	addi	a0,a0,16
   18aac:	00158593          	addi	a1,a1,1
   18ab0:	0137a023          	sw	s3,0(a5)
   18ab4:	01f7a223          	sw	t6,4(a5)
   18ab8:	0ca12e23          	sw	a0,220(sp)
   18abc:	0cb12c23          	sw	a1,216(sp)
   18ac0:	00878793          	addi	a5,a5,8
   18ac4:	fcb2dee3          	bge	t0,a1,18aa0 <_vfprintf_r+0x14a4>
   18ac8:	01012583          	lw	a1,16(sp)
   18acc:	00c12503          	lw	a0,12(sp)
   18ad0:	0d410613          	addi	a2,sp,212
   18ad4:	649010ef          	jal	1a91c <__sprint_r>
   18ad8:	ae0514e3          	bnez	a0,185c0 <_vfprintf_r+0xfc4>
   18adc:	01000393          	li	t2,16
   18ae0:	ff040413          	addi	s0,s0,-16
   18ae4:	0dc12503          	lw	a0,220(sp)
   18ae8:	0d812583          	lw	a1,216(sp)
   18aec:	000a8793          	mv	a5,s5
   18af0:	00700293          	li	t0,7
   18af4:	00038f93          	mv	t6,t2
   18af8:	fa83c8e3          	blt	t2,s0,18aa8 <_vfprintf_r+0x14ac>
   18afc:	00098813          	mv	a6,s3
   18b00:	03812e03          	lw	t3,56(sp)
   18b04:	04812883          	lw	a7,72(sp)
   18b08:	04412983          	lw	s3,68(sp)
   18b0c:	00040713          	mv	a4,s0
   18b10:	000a0f13          	mv	t5,s4
   18b14:	00078413          	mv	s0,a5
   18b18:	000b0313          	mv	t1,s6
   18b1c:	00a70633          	add	a2,a4,a0
   18b20:	00158f93          	addi	t6,a1,1
   18b24:	00e42223          	sw	a4,4(s0)
   18b28:	0cc12e23          	sw	a2,220(sp)
   18b2c:	0df12c23          	sw	t6,216(sp)
   18b30:	01042023          	sw	a6,0(s0)
   18b34:	00700713          	li	a4,7
   18b38:	11f74ae3          	blt	a4,t6,1944c <_vfprintf_r+0x1e50>
   18b3c:	0b714703          	lbu	a4,183(sp)
   18b40:	00840413          	addi	s0,s0,8
   18b44:	0c071263          	bnez	a4,18c08 <_vfprintf_r+0x160c>
   18b48:	000f1463          	bnez	t5,18b50 <_vfprintf_r+0x1554>
   18b4c:	d61fe06f          	j	178ac <_vfprintf_r+0x2b0>
   18b50:	00000f13          	li	t5,0
   18b54:	d25fe06f          	j	17878 <_vfprintf_r+0x27c>
   18b58:	02012703          	lw	a4,32(sp)
   18b5c:	00100793          	li	a5,1
   18b60:	bae7d6e3          	bge	a5,a4,1870c <_vfprintf_r+0x1110>
   18b64:	01100793          	li	a5,17
   18b68:	00e7c463          	blt	a5,a4,18b70 <_vfprintf_r+0x1574>
   18b6c:	40d0106f          	j	1a778 <_vfprintf_r+0x317c>
   18b70:	00021737          	lui	a4,0x21
   18b74:	58870713          	addi	a4,a4,1416 # 21588 <zeroes.0>
   18b78:	000c8693          	mv	a3,s9
   18b7c:	00040993          	mv	s3,s0
   18b80:	000c0c93          	mv	s9,s8
   18b84:	01000793          	li	a5,16
   18b88:	00700b13          	li	s6,7
   18b8c:	000e0413          	mv	s0,t3
   18b90:	00030c13          	mv	s8,t1
   18b94:	00070a13          	mv	s4,a4
   18b98:	00c0006f          	j	18ba4 <_vfprintf_r+0x15a8>
   18b9c:	ff098993          	addi	s3,s3,-16
   18ba0:	2f37d663          	bge	a5,s3,18e8c <_vfprintf_r+0x1890>
   18ba4:	01068693          	addi	a3,a3,16
   18ba8:	001d0d13          	addi	s10,s10,1
   18bac:	014da023          	sw	s4,0(s11)
   18bb0:	00fda223          	sw	a5,4(s11)
   18bb4:	0cd12e23          	sw	a3,220(sp)
   18bb8:	0da12c23          	sw	s10,216(sp)
   18bbc:	008d8d93          	addi	s11,s11,8
   18bc0:	fdab5ee3          	bge	s6,s10,18b9c <_vfprintf_r+0x15a0>
   18bc4:	01012583          	lw	a1,16(sp)
   18bc8:	00c12503          	lw	a0,12(sp)
   18bcc:	0d410613          	addi	a2,sp,212
   18bd0:	54d010ef          	jal	1a91c <__sprint_r>
   18bd4:	9e0516e3          	bnez	a0,185c0 <_vfprintf_r+0xfc4>
   18bd8:	0dc12683          	lw	a3,220(sp)
   18bdc:	0d812d03          	lw	s10,216(sp)
   18be0:	000a8d93          	mv	s11,s5
   18be4:	01000793          	li	a5,16
   18be8:	fb5ff06f          	j	18b9c <_vfprintf_r+0x15a0>
   18bec:	00137793          	andi	a5,t1,1
   18bf0:	00079463          	bnez	a5,18bf8 <_vfprintf_r+0x15fc>
   18bf4:	cf1fe06f          	j	178e4 <_vfprintf_r+0x2e8>
   18bf8:	a8cff06f          	j	17e84 <_vfprintf_r+0x888>
   18bfc:	0009cd83          	lbu	s11,0(s3)
   18c00:	00f12c23          	sw	a5,24(sp)
   18c04:	b95fe06f          	j	17798 <_vfprintf_r+0x19c>
   18c08:	000f0713          	mv	a4,t5
   18c0c:	00000f13          	li	t5,0
   18c10:	c35fe06f          	j	17844 <_vfprintf_r+0x248>
   18c14:	01812783          	lw	a5,24(sp)
   18c18:	0007a703          	lw	a4,0(a5)
   18c1c:	00478793          	addi	a5,a5,4
   18c20:	00f12c23          	sw	a5,24(sp)
   18c24:	00072583          	lw	a1,0(a4)
   18c28:	00472603          	lw	a2,4(a4)
   18c2c:	00872683          	lw	a3,8(a4)
   18c30:	00c72703          	lw	a4,12(a4)
   18c34:	e35fe06f          	j	17a68 <_vfprintf_r+0x46c>
   18c38:	01812783          	lw	a5,24(sp)
   18c3c:	00478793          	addi	a5,a5,4
   18c40:	01812703          	lw	a4,24(sp)
   18c44:	00000593          	li	a1,0
   18c48:	00f12c23          	sw	a5,24(sp)
   18c4c:	00072703          	lw	a4,0(a4)
   18c50:	d38ff06f          	j	18188 <_vfprintf_r+0xb8c>
   18c54:	01812783          	lw	a5,24(sp)
   18c58:	00478793          	addi	a5,a5,4
   18c5c:	01812703          	lw	a4,24(sp)
   18c60:	00f12c23          	sw	a5,24(sp)
   18c64:	00072d03          	lw	s10,0(a4)
   18c68:	41fd5713          	srai	a4,s10,0x1f
   18c6c:	00070693          	mv	a3,a4
   18c70:	b24ff06f          	j	17f94 <_vfprintf_r+0x998>
   18c74:	01812783          	lw	a5,24(sp)
   18c78:	010a7713          	andi	a4,s4,16
   18c7c:	0007a683          	lw	a3,0(a5)
   18c80:	00478793          	addi	a5,a5,4
   18c84:	c2071c63          	bnez	a4,180bc <_vfprintf_r+0xac0>
   18c88:	040a7713          	andi	a4,s4,64
   18c8c:	18070ce3          	beqz	a4,19624 <_vfprintf_r+0x2028>
   18c90:	01069d13          	slli	s10,a3,0x10
   18c94:	0a010ba3          	sb	zero,183(sp)
   18c98:	010d5d13          	srli	s10,s10,0x10
   18c9c:	00000713          	li	a4,0
   18ca0:	c20cd863          	bgez	s9,180d0 <_vfprintf_r+0xad4>
   18ca4:	00f12c23          	sw	a5,24(sp)
   18ca8:	00900793          	li	a5,9
   18cac:	b9a7fa63          	bgeu	a5,s10,18040 <_vfprintf_r+0xa44>
   18cb0:	1a010c13          	addi	s8,sp,416
   18cb4:	00000793          	li	a5,0
   18cb8:	03712223          	sw	s7,36(sp)
   18cbc:	02812423          	sw	s0,40(sp)
   18cc0:	40037993          	andi	s3,t1,1024
   18cc4:	000c0413          	mv	s0,s8
   18cc8:	03c12023          	sw	t3,32(sp)
   18ccc:	000d0c13          	mv	s8,s10
   18cd0:	02612c23          	sw	t1,56(sp)
   18cd4:	000c8d13          	mv	s10,s9
   18cd8:	00078b93          	mv	s7,a5
   18cdc:	00070c93          	mv	s9,a4
   18ce0:	0340006f          	j	18d14 <_vfprintf_r+0x1718>
   18ce4:	000c0513          	mv	a0,s8
   18ce8:	000c8593          	mv	a1,s9
   18cec:	00a00613          	li	a2,10
   18cf0:	00000693          	li	a3,0
   18cf4:	01812e23          	sw	s8,28(sp)
   18cf8:	000c8b13          	mv	s6,s9
   18cfc:	eb8f70ef          	jal	103b4 <__udivdi3>
   18d00:	000a0413          	mv	s0,s4
   18d04:	00050c13          	mv	s8,a0
   18d08:	00058c93          	mv	s9,a1
   18d0c:	000b1463          	bnez	s6,18d14 <_vfprintf_r+0x1718>
   18d10:	5600106f          	j	1a270 <_vfprintf_r+0x2c74>
   18d14:	00a00613          	li	a2,10
   18d18:	00000693          	li	a3,0
   18d1c:	000c0513          	mv	a0,s8
   18d20:	000c8593          	mv	a1,s9
   18d24:	c59f70ef          	jal	1097c <__umoddi3>
   18d28:	03050513          	addi	a0,a0,48
   18d2c:	fea40fa3          	sb	a0,-1(s0)
   18d30:	fff40a13          	addi	s4,s0,-1
   18d34:	001b8b93          	addi	s7,s7,1
   18d38:	fa0986e3          	beqz	s3,18ce4 <_vfprintf_r+0x16e8>
   18d3c:	03012783          	lw	a5,48(sp)
   18d40:	0007c783          	lbu	a5,0(a5)
   18d44:	fb7790e3          	bne	a5,s7,18ce4 <_vfprintf_r+0x16e8>
   18d48:	0ff00793          	li	a5,255
   18d4c:	f8fb8ce3          	beq	s7,a5,18ce4 <_vfprintf_r+0x16e8>
   18d50:	200c92e3          	bnez	s9,19754 <_vfprintf_r+0x2158>
   18d54:	00900793          	li	a5,9
   18d58:	1f87eee3          	bltu	a5,s8,19754 <_vfprintf_r+0x2158>
   18d5c:	1a010793          	addi	a5,sp,416
   18d60:	000d0c93          	mv	s9,s10
   18d64:	02012e03          	lw	t3,32(sp)
   18d68:	41478d33          	sub	s10,a5,s4
   18d6c:	03712023          	sw	s7,32(sp)
   18d70:	02812403          	lw	s0,40(sp)
   18d74:	03812303          	lw	t1,56(sp)
   18d78:	02412b83          	lw	s7,36(sp)
   18d7c:	000a0893          	mv	a7,s4
   18d80:	000c8c13          	mv	s8,s9
   18d84:	01acd463          	bge	s9,s10,18d8c <_vfprintf_r+0x1790>
   18d88:	000d0c13          	mv	s8,s10
   18d8c:	0b714703          	lbu	a4,183(sp)
   18d90:	ad4ff06f          	j	18064 <_vfprintf_r+0xa68>
   18d94:	01412603          	lw	a2,20(sp)
   18d98:	0006a783          	lw	a5,0(a3)
   18d9c:	00e12c23          	sw	a4,24(sp)
   18da0:	41f65693          	srai	a3,a2,0x1f
   18da4:	00c7a023          	sw	a2,0(a5)
   18da8:	00d7a223          	sw	a3,4(a5)
   18dac:	d20ff06f          	j	182cc <_vfprintf_r+0xcd0>
   18db0:	000a0e93          	mv	t4,s4
   18db4:	bb8ff06f          	j	1816c <_vfprintf_r+0xb70>
   18db8:	00021537          	lui	a0,0x21
   18dbc:	00f6f613          	andi	a2,a3,15
   18dc0:	1e450713          	addi	a4,a0,484 # 211e4 <_getpid_r+0xac>
   18dc4:	00c70733          	add	a4,a4,a2
   18dc8:	00074703          	lbu	a4,0(a4)
   18dcc:	0046d693          	srli	a3,a3,0x4
   18dd0:	002a6313          	ori	t1,s4,2
   18dd4:	18e10fa3          	sb	a4,415(sp)
   18dd8:	00000613          	li	a2,0
   18ddc:	00069463          	bnez	a3,18de4 <_vfprintf_r+0x17e8>
   18de0:	2290106f          	j	1a808 <_vfprintf_r+0x320c>
   18de4:	00f12c23          	sw	a5,24(sp)
   18de8:	1e450513          	addi	a0,a0,484
   18dec:	07800d93          	li	s11,120
   18df0:	00200593          	li	a1,2
   18df4:	19f10893          	addi	a7,sp,415
   18df8:	00f6f793          	andi	a5,a3,15
   18dfc:	00f507b3          	add	a5,a0,a5
   18e00:	0007c783          	lbu	a5,0(a5)
   18e04:	01c61713          	slli	a4,a2,0x1c
   18e08:	0046d693          	srli	a3,a3,0x4
   18e0c:	00d766b3          	or	a3,a4,a3
   18e10:	00465613          	srli	a2,a2,0x4
   18e14:	fef88fa3          	sb	a5,-1(a7)
   18e18:	00c6e7b3          	or	a5,a3,a2
   18e1c:	fff88893          	addi	a7,a7,-1
   18e20:	fc079ce3          	bnez	a5,18df8 <_vfprintf_r+0x17fc>
   18e24:	1a010793          	addi	a5,sp,416
   18e28:	41178d33          	sub	s10,a5,a7
   18e2c:	000c8c13          	mv	s8,s9
   18e30:	01acd463          	bge	s9,s10,18e38 <_vfprintf_r+0x183c>
   18e34:	000d0c13          	mv	s8,s10
   18e38:	00012e23          	sw	zero,28(sp)
   18e3c:	02012423          	sw	zero,40(sp)
   18e40:	02012223          	sw	zero,36(sp)
   18e44:	00000993          	li	s3,0
   18e48:	00000813          	li	a6,0
   18e4c:	00059463          	bnez	a1,18e54 <_vfprintf_r+0x1858>
   18e50:	9d5fe06f          	j	17824 <_vfprintf_r+0x228>
   18e54:	0dc12603          	lw	a2,220(sp)
   18e58:	0d812f83          	lw	t6,216(sp)
   18e5c:	08437f13          	andi	t5,t1,132
   18e60:	002c0c13          	addi	s8,s8,2
   18e64:	00060513          	mv	a0,a2
   18e68:	000f8593          	mv	a1,t6
   18e6c:	400f0e63          	beqz	t5,19288 <_vfprintf_r+0x1c8c>
   18e70:	00200713          	li	a4,2
   18e74:	00080463          	beqz	a6,18e7c <_vfprintf_r+0x1880>
   18e78:	9cdfe06f          	j	17844 <_vfprintf_r+0x248>
   18e7c:	9fdfe06f          	j	17878 <_vfprintf_r+0x27c>
   18e80:	00078c93          	mv	s9,a5
   18e84:	a19046e3          	bgtz	s9,18890 <_vfprintf_r+0x1294>
   18e88:	a35ff06f          	j	188bc <_vfprintf_r+0x12c0>
   18e8c:	00040e13          	mv	t3,s0
   18e90:	000c0313          	mv	t1,s8
   18e94:	00098413          	mv	s0,s3
   18e98:	000c8c13          	mv	s8,s9
   18e9c:	000a0713          	mv	a4,s4
   18ea0:	00068c93          	mv	s9,a3
   18ea4:	008c8cb3          	add	s9,s9,s0
   18ea8:	001d0d13          	addi	s10,s10,1
   18eac:	0d912e23          	sw	s9,220(sp)
   18eb0:	0da12c23          	sw	s10,216(sp)
   18eb4:	00eda023          	sw	a4,0(s11)
   18eb8:	008da223          	sw	s0,4(s11)
   18ebc:	00700793          	li	a5,7
   18ec0:	85a7d4e3          	bge	a5,s10,18708 <_vfprintf_r+0x110c>
   18ec4:	01012583          	lw	a1,16(sp)
   18ec8:	00c12503          	lw	a0,12(sp)
   18ecc:	0d410613          	addi	a2,sp,212
   18ed0:	02612423          	sw	t1,40(sp)
   18ed4:	03c12223          	sw	t3,36(sp)
   18ed8:	245010ef          	jal	1a91c <__sprint_r>
   18edc:	ee051263          	bnez	a0,185c0 <_vfprintf_r+0xfc4>
   18ee0:	0dc12c83          	lw	s9,220(sp)
   18ee4:	0d812d03          	lw	s10,216(sp)
   18ee8:	02412e03          	lw	t3,36(sp)
   18eec:	02812303          	lw	t1,40(sp)
   18ef0:	000a8d93          	mv	s11,s5
   18ef4:	819ff06f          	j	1870c <_vfprintf_r+0x1110>
   18ef8:	fff00c93          	li	s9,-1
   18efc:	00068993          	mv	s3,a3
   18f00:	89dfe06f          	j	1779c <_vfprintf_r+0x1a0>
   18f04:	00021537          	lui	a0,0x21
   18f08:	00098e13          	mv	t3,s3
   18f0c:	000a0313          	mv	t1,s4
   18f10:	1f850513          	addi	a0,a0,504 # 211f8 <_getpid_r+0xc0>
   18f14:	02037793          	andi	a5,t1,32
   18f18:	3c078e63          	beqz	a5,192f4 <_vfprintf_r+0x1cf8>
   18f1c:	01812783          	lw	a5,24(sp)
   18f20:	00778793          	addi	a5,a5,7
   18f24:	ff87f793          	andi	a5,a5,-8
   18f28:	0007a683          	lw	a3,0(a5)
   18f2c:	0047a603          	lw	a2,4(a5)
   18f30:	00878713          	addi	a4,a5,8
   18f34:	00e12c23          	sw	a4,24(sp)
   18f38:	00137793          	andi	a5,t1,1
   18f3c:	36078863          	beqz	a5,192ac <_vfprintf_r+0x1cb0>
   18f40:	00c6e7b3          	or	a5,a3,a2
   18f44:	54078e63          	beqz	a5,194a0 <_vfprintf_r+0x1ea4>
   18f48:	03000793          	li	a5,48
   18f4c:	0bb10ca3          	sb	s11,185(sp)
   18f50:	0a010ba3          	sb	zero,183(sp)
   18f54:	0af10c23          	sb	a5,184(sp)
   18f58:	440cca63          	bltz	s9,193ac <_vfprintf_r+0x1db0>
   18f5c:	b7f37313          	andi	t1,t1,-1153
   18f60:	00236313          	ori	t1,t1,2
   18f64:	00f6f793          	andi	a5,a3,15
   18f68:	00f507b3          	add	a5,a0,a5
   18f6c:	0007c783          	lbu	a5,0(a5)
   18f70:	00237593          	andi	a1,t1,2
   18f74:	01c61713          	slli	a4,a2,0x1c
   18f78:	0046d693          	srli	a3,a3,0x4
   18f7c:	00d766b3          	or	a3,a4,a3
   18f80:	00465613          	srli	a2,a2,0x4
   18f84:	18f10fa3          	sb	a5,415(sp)
   18f88:	00c6e7b3          	or	a5,a3,a2
   18f8c:	e60794e3          	bnez	a5,18df4 <_vfprintf_r+0x17f8>
   18f90:	19f10893          	addi	a7,sp,415
   18f94:	e91ff06f          	j	18e24 <_vfprintf_r+0x1828>
   18f98:	0019cd83          	lbu	s11,1(s3)
   18f9c:	020a6a13          	ori	s4,s4,32
   18fa0:	00198993          	addi	s3,s3,1
   18fa4:	ff4fe06f          	j	17798 <_vfprintf_r+0x19c>
   18fa8:	0019cd83          	lbu	s11,1(s3)
   18fac:	200a6a13          	ori	s4,s4,512
   18fb0:	00198993          	addi	s3,s3,1
   18fb4:	fe4fe06f          	j	17798 <_vfprintf_r+0x19c>
   18fb8:	00021537          	lui	a0,0x21
   18fbc:	00098e13          	mv	t3,s3
   18fc0:	000a0313          	mv	t1,s4
   18fc4:	1e450513          	addi	a0,a0,484 # 211e4 <_getpid_r+0xac>
   18fc8:	f4dff06f          	j	18f14 <_vfprintf_r+0x1918>
   18fcc:	01012583          	lw	a1,16(sp)
   18fd0:	00c12503          	lw	a0,12(sp)
   18fd4:	0d410613          	addi	a2,sp,212
   18fd8:	02612423          	sw	t1,40(sp)
   18fdc:	03c12223          	sw	t3,36(sp)
   18fe0:	13d010ef          	jal	1a91c <__sprint_r>
   18fe4:	dc051e63          	bnez	a0,185c0 <_vfprintf_r+0xfc4>
   18fe8:	0dc12603          	lw	a2,220(sp)
   18fec:	02812303          	lw	t1,40(sp)
   18ff0:	02412e03          	lw	t3,36(sp)
   18ff4:	000a8413          	mv	s0,s5
   18ff8:	ec1fe06f          	j	17eb8 <_vfprintf_r+0x8bc>
   18ffc:	00600793          	li	a5,6
   19000:	000c8c13          	mv	s8,s9
   19004:	2797ece3          	bltu	a5,s9,19a7c <_vfprintf_r+0x2480>
   19008:	000217b7          	lui	a5,0x21
   1900c:	01312c23          	sw	s3,24(sp)
   19010:	20c78893          	addi	a7,a5,524 # 2120c <_getpid_r+0xd4>
   19014:	00012e23          	sw	zero,28(sp)
   19018:	000c0d13          	mv	s10,s8
   1901c:	00000c93          	li	s9,0
   19020:	02012423          	sw	zero,40(sp)
   19024:	02012223          	sw	zero,36(sp)
   19028:	00000993          	li	s3,0
   1902c:	ff8fe06f          	j	17824 <_vfprintf_r+0x228>
   19030:	00021737          	lui	a4,0x21
   19034:	01000d93          	li	s11,16
   19038:	0d812583          	lw	a1,216(sp)
   1903c:	58870713          	addi	a4,a4,1416 # 21588 <zeroes.0>
   19040:	699dde63          	bge	s11,s9,196dc <_vfprintf_r+0x20e0>
   19044:	00040793          	mv	a5,s0
   19048:	000c8a13          	mv	s4,s9
   1904c:	000d8e93          	mv	t4,s11
   19050:	00700d13          	li	s10,7
   19054:	000e0b13          	mv	s6,t3
   19058:	02612c23          	sw	t1,56(sp)
   1905c:	00088c93          	mv	s9,a7
   19060:	00070413          	mv	s0,a4
   19064:	00c0006f          	j	19070 <_vfprintf_r+0x1a74>
   19068:	ff0a0a13          	addi	s4,s4,-16
   1906c:	654edc63          	bge	t4,s4,196c4 <_vfprintf_r+0x20c8>
   19070:	01060613          	addi	a2,a2,16
   19074:	00158593          	addi	a1,a1,1
   19078:	0087a023          	sw	s0,0(a5)
   1907c:	01b7a223          	sw	s11,4(a5)
   19080:	0cc12e23          	sw	a2,220(sp)
   19084:	0cb12c23          	sw	a1,216(sp)
   19088:	00878793          	addi	a5,a5,8
   1908c:	fcbd5ee3          	bge	s10,a1,19068 <_vfprintf_r+0x1a6c>
   19090:	01012583          	lw	a1,16(sp)
   19094:	00c12503          	lw	a0,12(sp)
   19098:	0d410613          	addi	a2,sp,212
   1909c:	081010ef          	jal	1a91c <__sprint_r>
   190a0:	d2051063          	bnez	a0,185c0 <_vfprintf_r+0xfc4>
   190a4:	0dc12603          	lw	a2,220(sp)
   190a8:	0d812583          	lw	a1,216(sp)
   190ac:	000a8793          	mv	a5,s5
   190b0:	01000e93          	li	t4,16
   190b4:	fb5ff06f          	j	19068 <_vfprintf_r+0x1a6c>
   190b8:	00088513          	mv	a0,a7
   190bc:	01c12e23          	sw	t3,28(sp)
   190c0:	01112c23          	sw	a7,24(sp)
   190c4:	03412223          	sw	s4,36(sp)
   190c8:	f28fd0ef          	jal	167f0 <strlen>
   190cc:	0b714703          	lbu	a4,183(sp)
   190d0:	fff54693          	not	a3,a0
   190d4:	41f6d693          	srai	a3,a3,0x1f
   190d8:	01812883          	lw	a7,24(sp)
   190dc:	01c12e03          	lw	t3,28(sp)
   190e0:	02412303          	lw	t1,36(sp)
   190e4:	00050d13          	mv	s10,a0
   190e8:	00d57c33          	and	s8,a0,a3
   190ec:	00071463          	bnez	a4,190f4 <_vfprintf_r+0x1af8>
   190f0:	badfe06f          	j	17c9c <_vfprintf_r+0x6a0>
   190f4:	001c0c13          	addi	s8,s8,1
   190f8:	ba5fe06f          	j	17c9c <_vfprintf_r+0x6a0>
   190fc:	00000c13          	li	s8,0
   19100:	1a010893          	addi	a7,sp,416
   19104:	00012e23          	sw	zero,28(sp)
   19108:	02012423          	sw	zero,40(sp)
   1910c:	02012223          	sw	zero,36(sp)
   19110:	00000993          	li	s3,0
   19114:	f10fe06f          	j	17824 <_vfprintf_r+0x228>
   19118:	07800793          	li	a5,120
   1911c:	03000713          	li	a4,48
   19120:	0ae10c23          	sb	a4,184(sp)
   19124:	0af10ca3          	sb	a5,185(sp)
   19128:	06300713          	li	a4,99
   1912c:	00012e23          	sw	zero,28(sp)
   19130:	00236313          	ori	t1,t1,2
   19134:	13c10893          	addi	a7,sp,316
   19138:	01974463          	blt	a4,s9,19140 <_vfprintf_r+0x1b44>
   1913c:	9b9fe06f          	j	17af4 <_vfprintf_r+0x4f8>
   19140:	00c12503          	lw	a0,12(sp)
   19144:	001c8593          	addi	a1,s9,1
   19148:	02612023          	sw	t1,32(sp)
   1914c:	01c12e23          	sw	t3,28(sp)
   19150:	c9dfd0ef          	jal	16dec <_malloc_r>
   19154:	01c12e03          	lw	t3,28(sp)
   19158:	02012303          	lw	t1,32(sp)
   1915c:	00050893          	mv	a7,a0
   19160:	00051463          	bnez	a0,19168 <_vfprintf_r+0x1b6c>
   19164:	6900106f          	j	1a7f4 <_vfprintf_r+0x31f8>
   19168:	00a12e23          	sw	a0,28(sp)
   1916c:	989fe06f          	j	17af4 <_vfprintf_r+0x4f8>
   19170:	00c12503          	lw	a0,12(sp)
   19174:	0a010d13          	addi	s10,sp,160
   19178:	0bc10713          	addi	a4,sp,188
   1917c:	000d0593          	mv	a1,s10
   19180:	0cc10813          	addi	a6,sp,204
   19184:	0c010793          	addi	a5,sp,192
   19188:	000c8693          	mv	a3,s9
   1918c:	00200613          	li	a2,2
   19190:	04612623          	sw	t1,76(sp)
   19194:	05c12423          	sw	t3,72(sp)
   19198:	0a512023          	sw	t0,160(sp)
   1919c:	04512223          	sw	t0,68(sp)
   191a0:	0bf12223          	sw	t6,164(sp)
   191a4:	03f12423          	sw	t6,40(sp)
   191a8:	0be12423          	sw	t5,168(sp)
   191ac:	03e12223          	sw	t5,36(sp)
   191b0:	0bd12623          	sw	t4,172(sp)
   191b4:	03d12023          	sw	t4,32(sp)
   191b8:	099020ef          	jal	1ba50 <_ldtoa_r>
   191bc:	04c12303          	lw	t1,76(sp)
   191c0:	02012e83          	lw	t4,32(sp)
   191c4:	02412f03          	lw	t5,36(sp)
   191c8:	00137713          	andi	a4,t1,1
   191cc:	02812f83          	lw	t6,40(sp)
   191d0:	04412283          	lw	t0,68(sp)
   191d4:	04812e03          	lw	t3,72(sp)
   191d8:	00050893          	mv	a7,a0
   191dc:	1e071ee3          	bnez	a4,19bd8 <_vfprintf_r+0x25dc>
   191e0:	0cc12783          	lw	a5,204(sp)
   191e4:	0bc12983          	lw	s3,188(sp)
   191e8:	ffd00713          	li	a4,-3
   191ec:	40a787b3          	sub	a5,a5,a0
   191f0:	02f12023          	sw	a5,32(sp)
   191f4:	00e9d463          	bge	s3,a4,191fc <_vfprintf_r+0x1c00>
   191f8:	1a00106f          	j	1a398 <_vfprintf_r+0x2d9c>
   191fc:	013cd463          	bge	s9,s3,19204 <_vfprintf_r+0x1c08>
   19200:	0d40106f          	j	1a2d4 <_vfprintf_r+0x2cd8>
   19204:	00f9d463          	bge	s3,a5,1920c <_vfprintf_r+0x1c10>
   19208:	2e00106f          	j	1a4e8 <_vfprintf_r+0x2eec>
   1920c:	00098d13          	mv	s10,s3
   19210:	40037313          	andi	t1,t1,1024
   19214:	00030663          	beqz	t1,19220 <_vfprintf_r+0x1c24>
   19218:	01305463          	blez	s3,19220 <_vfprintf_r+0x1c24>
   1921c:	44c0106f          	j	1a668 <_vfprintf_r+0x306c>
   19220:	fffd4693          	not	a3,s10
   19224:	41f6d693          	srai	a3,a3,0x1f
   19228:	00dd7c33          	and	s8,s10,a3
   1922c:	06700d93          	li	s11,103
   19230:	000a0313          	mv	t1,s4
   19234:	02012423          	sw	zero,40(sp)
   19238:	02012223          	sw	zero,36(sp)
   1923c:	03812783          	lw	a5,56(sp)
   19240:	00237593          	andi	a1,t1,2
   19244:	00079463          	bnez	a5,1924c <_vfprintf_r+0x1c50>
   19248:	0140106f          	j	1a25c <_vfprintf_r+0x2c60>
   1924c:	02d00813          	li	a6,45
   19250:	0b010ba3          	sb	a6,183(sp)
   19254:	001c0c13          	addi	s8,s8,1
   19258:	00000c93          	li	s9,0
   1925c:	bf1ff06f          	j	18e4c <_vfprintf_r+0x1850>
   19260:	00070313          	mv	t1,a4
   19264:	00f12c23          	sw	a5,24(sp)
   19268:	00000993          	li	s3,0
   1926c:	02012223          	sw	zero,36(sp)
   19270:	00000d13          	li	s10,0
   19274:	00012e23          	sw	zero,28(sp)
   19278:	1a010893          	addi	a7,sp,416
   1927c:	07800d93          	li	s11,120
   19280:	00000813          	li	a6,0
   19284:	00200c13          	li	s8,2
   19288:	418b8733          	sub	a4,s7,s8
   1928c:	00e04c63          	bgtz	a4,192a4 <_vfprintf_r+0x1ca8>
   19290:	00000f13          	li	t5,0
   19294:	00081463          	bnez	a6,1929c <_vfprintf_r+0x1ca0>
   19298:	de0fe06f          	j	17878 <_vfprintf_r+0x27c>
   1929c:	00200713          	li	a4,2
   192a0:	da4fe06f          	j	17844 <_vfprintf_r+0x248>
   192a4:	00200f13          	li	t5,2
   192a8:	fbcff06f          	j	18a64 <_vfprintf_r+0x1468>
   192ac:	0a010ba3          	sb	zero,183(sp)
   192b0:	100cc063          	bltz	s9,193b0 <_vfprintf_r+0x1db4>
   192b4:	00c6e7b3          	or	a5,a3,a2
   192b8:	b7f37313          	andi	t1,t1,-1153
   192bc:	ca0794e3          	bnez	a5,18f64 <_vfprintf_r+0x1968>
   192c0:	000c9463          	bnez	s9,192c8 <_vfprintf_r+0x1ccc>
   192c4:	e6dfe06f          	j	18130 <_vfprintf_r+0xb34>
   192c8:	00054783          	lbu	a5,0(a0)
   192cc:	000c8c13          	mv	s8,s9
   192d0:	18f10fa3          	sb	a5,415(sp)
   192d4:	099052e3          	blez	s9,19b58 <_vfprintf_r+0x255c>
   192d8:	00012e23          	sw	zero,28(sp)
   192dc:	00100d13          	li	s10,1
   192e0:	02012423          	sw	zero,40(sp)
   192e4:	02012223          	sw	zero,36(sp)
   192e8:	00000993          	li	s3,0
   192ec:	19f10893          	addi	a7,sp,415
   192f0:	d34fe06f          	j	17824 <_vfprintf_r+0x228>
   192f4:	01812703          	lw	a4,24(sp)
   192f8:	01037793          	andi	a5,t1,16
   192fc:	00072683          	lw	a3,0(a4)
   19300:	00470713          	addi	a4,a4,4
   19304:	00e12c23          	sw	a4,24(sp)
   19308:	08079e63          	bnez	a5,193a4 <_vfprintf_r+0x1da8>
   1930c:	04037793          	andi	a5,t1,64
   19310:	08078663          	beqz	a5,1939c <_vfprintf_r+0x1da0>
   19314:	01069693          	slli	a3,a3,0x10
   19318:	0106d693          	srli	a3,a3,0x10
   1931c:	00000613          	li	a2,0
   19320:	c19ff06f          	j	18f38 <_vfprintf_r+0x193c>
   19324:	01012583          	lw	a1,16(sp)
   19328:	00c12503          	lw	a0,12(sp)
   1932c:	0d410613          	addi	a2,sp,212
   19330:	03112c23          	sw	a7,56(sp)
   19334:	02612423          	sw	t1,40(sp)
   19338:	03c12223          	sw	t3,36(sp)
   1933c:	5e0010ef          	jal	1a91c <__sprint_r>
   19340:	a8051063          	bnez	a0,185c0 <_vfprintf_r+0xfc4>
   19344:	0dc12c83          	lw	s9,220(sp)
   19348:	0d812d03          	lw	s10,216(sp)
   1934c:	03812883          	lw	a7,56(sp)
   19350:	02812303          	lw	t1,40(sp)
   19354:	02412e03          	lw	t3,36(sp)
   19358:	000a8d93          	mv	s11,s5
   1935c:	afcff06f          	j	18658 <_vfprintf_r+0x105c>
   19360:	01012583          	lw	a1,16(sp)
   19364:	00c12503          	lw	a0,12(sp)
   19368:	0d410613          	addi	a2,sp,212
   1936c:	03112c23          	sw	a7,56(sp)
   19370:	02612423          	sw	t1,40(sp)
   19374:	03c12223          	sw	t3,36(sp)
   19378:	5a4010ef          	jal	1a91c <__sprint_r>
   1937c:	a4051263          	bnez	a0,185c0 <_vfprintf_r+0xfc4>
   19380:	0dc12c83          	lw	s9,220(sp)
   19384:	0d812d03          	lw	s10,216(sp)
   19388:	03812883          	lw	a7,56(sp)
   1938c:	02812303          	lw	t1,40(sp)
   19390:	02412e03          	lw	t3,36(sp)
   19394:	000a8d93          	mv	s11,s5
   19398:	aecff06f          	j	18684 <_vfprintf_r+0x1088>
   1939c:	20037793          	andi	a5,t1,512
   193a0:	76079863          	bnez	a5,19b10 <_vfprintf_r+0x2514>
   193a4:	00000613          	li	a2,0
   193a8:	b91ff06f          	j	18f38 <_vfprintf_r+0x193c>
   193ac:	00236313          	ori	t1,t1,2
   193b0:	00f6f793          	andi	a5,a3,15
   193b4:	00f507b3          	add	a5,a0,a5
   193b8:	00237593          	andi	a1,t1,2
   193bc:	0007c783          	lbu	a5,0(a5)
   193c0:	bff37313          	andi	t1,t1,-1025
   193c4:	bb1ff06f          	j	18f74 <_vfprintf_r+0x1978>
   193c8:	0d812703          	lw	a4,216(sp)
   193cc:	000215b7          	lui	a1,0x21
   193d0:	21458593          	addi	a1,a1,532 # 21214 <_getpid_r+0xdc>
   193d4:	00160613          	addi	a2,a2,1
   193d8:	00170713          	addi	a4,a4,1
   193dc:	00100813          	li	a6,1
   193e0:	00b42023          	sw	a1,0(s0)
   193e4:	01042223          	sw	a6,4(s0)
   193e8:	0cc12e23          	sw	a2,220(sp)
   193ec:	0ce12c23          	sw	a4,216(sp)
   193f0:	00700593          	li	a1,7
   193f4:	00840413          	addi	s0,s0,8
   193f8:	5ee5ca63          	blt	a1,a4,199ec <_vfprintf_r+0x23f0>
   193fc:	00050463          	beqz	a0,19404 <_vfprintf_r+0x1e08>
   19400:	f94fe06f          	j	17b94 <_vfprintf_r+0x598>
   19404:	02012783          	lw	a5,32(sp)
   19408:	00137713          	andi	a4,t1,1
   1940c:	00f76733          	or	a4,a4,a5
   19410:	00071463          	bnez	a4,19418 <_vfprintf_r+0x1e1c>
   19414:	cd0fe06f          	j	178e4 <_vfprintf_r+0x2e8>
   19418:	0d812583          	lw	a1,216(sp)
   1941c:	02c12783          	lw	a5,44(sp)
   19420:	03412703          	lw	a4,52(sp)
   19424:	00158593          	addi	a1,a1,1
   19428:	00c78633          	add	a2,a5,a2
   1942c:	00e42023          	sw	a4,0(s0)
   19430:	0cc12e23          	sw	a2,220(sp)
   19434:	00f42223          	sw	a5,4(s0)
   19438:	0cb12c23          	sw	a1,216(sp)
   1943c:	00700713          	li	a4,7
   19440:	74b74a63          	blt	a4,a1,19b94 <_vfprintf_r+0x2598>
   19444:	00840413          	addi	s0,s0,8
   19448:	f88fe06f          	j	17bd0 <_vfprintf_r+0x5d4>
   1944c:	01012583          	lw	a1,16(sp)
   19450:	00c12503          	lw	a0,12(sp)
   19454:	0d410613          	addi	a2,sp,212
   19458:	05112623          	sw	a7,76(sp)
   1945c:	04612423          	sw	t1,72(sp)
   19460:	05e12223          	sw	t5,68(sp)
   19464:	03c12c23          	sw	t3,56(sp)
   19468:	4b4010ef          	jal	1a91c <__sprint_r>
   1946c:	94051a63          	bnez	a0,185c0 <_vfprintf_r+0xfc4>
   19470:	0b714703          	lbu	a4,183(sp)
   19474:	0dc12603          	lw	a2,220(sp)
   19478:	03812e03          	lw	t3,56(sp)
   1947c:	04412f03          	lw	t5,68(sp)
   19480:	04812303          	lw	t1,72(sp)
   19484:	04c12883          	lw	a7,76(sp)
   19488:	16070463          	beqz	a4,195f0 <_vfprintf_r+0x1ff4>
   1948c:	000f0713          	mv	a4,t5
   19490:	0d812f83          	lw	t6,216(sp)
   19494:	00000f13          	li	t5,0
   19498:	000a8413          	mv	s0,s5
   1949c:	ba8fe06f          	j	17844 <_vfprintf_r+0x248>
   194a0:	0a010ba3          	sb	zero,183(sp)
   194a4:	280ccc63          	bltz	s9,1973c <_vfprintf_r+0x2140>
   194a8:	b7f37313          	andi	t1,t1,-1153
   194ac:	e15ff06f          	j	192c0 <_vfprintf_r+0x1cc4>
   194b0:	00c12503          	lw	a0,12(sp)
   194b4:	da5fc0ef          	jal	16258 <__sinit>
   194b8:	9a4fe06f          	j	1765c <_vfprintf_r+0x60>
   194bc:	01012583          	lw	a1,16(sp)
   194c0:	00c12503          	lw	a0,12(sp)
   194c4:	0d410613          	addi	a2,sp,212
   194c8:	02612423          	sw	t1,40(sp)
   194cc:	03c12223          	sw	t3,36(sp)
   194d0:	44c010ef          	jal	1a91c <__sprint_r>
   194d4:	8e051663          	bnez	a0,185c0 <_vfprintf_r+0xfc4>
   194d8:	0dc12603          	lw	a2,220(sp)
   194dc:	02812303          	lw	t1,40(sp)
   194e0:	02412e03          	lw	t3,36(sp)
   194e4:	000a8413          	mv	s0,s5
   194e8:	991fe06f          	j	17e78 <_vfprintf_r+0x87c>
   194ec:	000b0993          	mv	s3,s6
   194f0:	8d4ff06f          	j	185c4 <_vfprintf_r+0xfc8>
   194f4:	00040e13          	mv	t3,s0
   194f8:	000c0313          	mv	t1,s8
   194fc:	00068413          	mv	s0,a3
   19500:	000c8c13          	mv	s8,s9
   19504:	000a0713          	mv	a4,s4
   19508:	00098c93          	mv	s9,s3
   1950c:	01960633          	add	a2,a2,s9
   19510:	00178793          	addi	a5,a5,1
   19514:	0cc12e23          	sw	a2,220(sp)
   19518:	0cf12c23          	sw	a5,216(sp)
   1951c:	00e42023          	sw	a4,0(s0)
   19520:	01942223          	sw	s9,4(s0)
   19524:	00700713          	li	a4,7
   19528:	00f74463          	blt	a4,a5,19530 <_vfprintf_r+0x1f34>
   1952c:	bb4fe06f          	j	178e0 <_vfprintf_r+0x2e4>
   19530:	ec4fe06f          	j	17bf4 <_vfprintf_r+0x5f8>
   19534:	0e012603          	lw	a2,224(sp)
   19538:	0e412683          	lw	a3,228(sp)
   1953c:	0e812703          	lw	a4,232(sp)
   19540:	0ec12783          	lw	a5,236(sp)
   19544:	f7f37313          	andi	t1,t1,-129
   19548:	09010593          	addi	a1,sp,144
   1954c:	0a010513          	addi	a0,sp,160
   19550:	03c12223          	sw	t3,36(sp)
   19554:	00612e23          	sw	t1,28(sp)
   19558:	08012823          	sw	zero,144(sp)
   1955c:	08012a23          	sw	zero,148(sp)
   19560:	08012c23          	sw	zero,152(sp)
   19564:	08012e23          	sw	zero,156(sp)
   19568:	0ac12023          	sw	a2,160(sp)
   1956c:	0ad12223          	sw	a3,164(sp)
   19570:	0ae12423          	sw	a4,168(sp)
   19574:	0af12623          	sw	a5,172(sp)
   19578:	ba9f90ef          	jal	13120 <__letf2>
   1957c:	01c12303          	lw	t1,28(sp)
   19580:	02412e03          	lw	t3,36(sp)
   19584:	58054ee3          	bltz	a0,1a320 <_vfprintf_r+0x2d24>
   19588:	04700793          	li	a5,71
   1958c:	0b714703          	lbu	a4,183(sp)
   19590:	77b7d063          	bge	a5,s11,19cf0 <_vfprintf_r+0x26f4>
   19594:	000217b7          	lui	a5,0x21
   19598:	1d878893          	addi	a7,a5,472 # 211d8 <_getpid_r+0xa0>
   1959c:	10071463          	bnez	a4,196a4 <_vfprintf_r+0x20a8>
   195a0:	00300d13          	li	s10,3
   195a4:	000d0c13          	mv	s8,s10
   195a8:	ef8fe06f          	j	17ca0 <_vfprintf_r+0x6a4>
   195ac:	01812783          	lw	a5,24(sp)
   195b0:	01412683          	lw	a3,20(sp)
   195b4:	0007a783          	lw	a5,0(a5)
   195b8:	00d7a023          	sw	a3,0(a5)
   195bc:	00e12c23          	sw	a4,24(sp)
   195c0:	d0dfe06f          	j	182cc <_vfprintf_r+0xcd0>
   195c4:	00021537          	lui	a0,0x21
   195c8:	1e450813          	addi	a6,a0,484 # 211e4 <_getpid_r+0xac>
   195cc:	00f6f593          	andi	a1,a3,15
   195d0:	010585b3          	add	a1,a1,a6
   195d4:	00f12c23          	sw	a5,24(sp)
   195d8:	00070313          	mv	t1,a4
   195dc:	0005c783          	lbu	a5,0(a1)
   195e0:	1e450513          	addi	a0,a0,484
   195e4:	00200593          	li	a1,2
   195e8:	07800d93          	li	s11,120
   195ec:	989ff06f          	j	18f74 <_vfprintf_r+0x1978>
   195f0:	500f0063          	beqz	t5,19af0 <_vfprintf_r+0x24f4>
   195f4:	0d812f83          	lw	t6,216(sp)
   195f8:	00000f13          	li	t5,0
   195fc:	000a8413          	mv	s0,s5
   19600:	a78fe06f          	j	17878 <_vfprintf_r+0x27c>
   19604:	200a7713          	andi	a4,s4,512
   19608:	50070a63          	beqz	a4,19b1c <_vfprintf_r+0x2520>
   1960c:	01881d13          	slli	s10,a6,0x18
   19610:	418d5d13          	srai	s10,s10,0x18
   19614:	41fd5713          	srai	a4,s10,0x1f
   19618:	00f12c23          	sw	a5,24(sp)
   1961c:	00070693          	mv	a3,a4
   19620:	975fe06f          	j	17f94 <_vfprintf_r+0x998>
   19624:	200a7713          	andi	a4,s4,512
   19628:	0a010ba3          	sb	zero,183(sp)
   1962c:	50071a63          	bnez	a4,19b40 <_vfprintf_r+0x2544>
   19630:	00068d13          	mv	s10,a3
   19634:	00000713          	li	a4,0
   19638:	e60cc663          	bltz	s9,18ca4 <_vfprintf_r+0x16a8>
   1963c:	f7fa7313          	andi	t1,s4,-129
   19640:	e6069263          	bnez	a3,18ca4 <_vfprintf_r+0x16a8>
   19644:	00f12c23          	sw	a5,24(sp)
   19648:	000c9463          	bnez	s9,19650 <_vfprintf_r+0x2054>
   1964c:	ae5fe06f          	j	18130 <_vfprintf_r+0xb34>
   19650:	00000d13          	li	s10,0
   19654:	9edfe06f          	j	18040 <_vfprintf_r+0xa44>
   19658:	200a7693          	andi	a3,s4,512
   1965c:	4c068a63          	beqz	a3,19b30 <_vfprintf_r+0x2534>
   19660:	0ff77713          	zext.b	a4,a4
   19664:	00f12c23          	sw	a5,24(sp)
   19668:	000a0e93          	mv	t4,s4
   1966c:	00000593          	li	a1,0
   19670:	b19fe06f          	j	18188 <_vfprintf_r+0xb8c>
   19674:	0ec12d03          	lw	s10,236(sp)
   19678:	800007b7          	lui	a5,0x80000
   1967c:	f7f37313          	andi	t1,t1,-129
   19680:	00fd79b3          	and	s3,s10,a5
   19684:	4c098e63          	beqz	s3,19b60 <_vfprintf_r+0x2564>
   19688:	02d00793          	li	a5,45
   1968c:	0af10ba3          	sb	a5,183(sp)
   19690:	04700793          	li	a5,71
   19694:	01b7c463          	blt	a5,s11,1969c <_vfprintf_r+0x20a0>
   19698:	7b10006f          	j	1a648 <_vfprintf_r+0x304c>
   1969c:	000217b7          	lui	a5,0x21
   196a0:	1e078893          	addi	a7,a5,480 # 211e0 <_getpid_r+0xa8>
   196a4:	00012e23          	sw	zero,28(sp)
   196a8:	00300d13          	li	s10,3
   196ac:	00000c93          	li	s9,0
   196b0:	02012423          	sw	zero,40(sp)
   196b4:	02012223          	sw	zero,36(sp)
   196b8:	00000993          	li	s3,0
   196bc:	00400c13          	li	s8,4
   196c0:	964fe06f          	j	17824 <_vfprintf_r+0x228>
   196c4:	03812303          	lw	t1,56(sp)
   196c8:	000c8893          	mv	a7,s9
   196cc:	00040713          	mv	a4,s0
   196d0:	000b0e13          	mv	t3,s6
   196d4:	000a0c93          	mv	s9,s4
   196d8:	00078413          	mv	s0,a5
   196dc:	01960633          	add	a2,a2,s9
   196e0:	00158593          	addi	a1,a1,1
   196e4:	00e42023          	sw	a4,0(s0)
   196e8:	01942223          	sw	s9,4(s0)
   196ec:	0cc12e23          	sw	a2,220(sp)
   196f0:	0cb12c23          	sw	a1,216(sp)
   196f4:	00700713          	li	a4,7
   196f8:	00840413          	addi	s0,s0,8
   196fc:	9cb75a63          	bge	a4,a1,188d0 <_vfprintf_r+0x12d4>
   19700:	01012583          	lw	a1,16(sp)
   19704:	00c12503          	lw	a0,12(sp)
   19708:	0d410613          	addi	a2,sp,212
   1970c:	05112423          	sw	a7,72(sp)
   19710:	04612223          	sw	t1,68(sp)
   19714:	03c12c23          	sw	t3,56(sp)
   19718:	204010ef          	jal	1a91c <__sprint_r>
   1971c:	00050463          	beqz	a0,19724 <_vfprintf_r+0x2128>
   19720:	ea1fe06f          	j	185c0 <_vfprintf_r+0xfc4>
   19724:	0dc12603          	lw	a2,220(sp)
   19728:	04812883          	lw	a7,72(sp)
   1972c:	04412303          	lw	t1,68(sp)
   19730:	03812e03          	lw	t3,56(sp)
   19734:	000a8413          	mv	s0,s5
   19738:	998ff06f          	j	188d0 <_vfprintf_r+0x12d4>
   1973c:	00054783          	lbu	a5,0(a0)
   19740:	bff37313          	andi	t1,t1,-1025
   19744:	00000593          	li	a1,0
   19748:	18f10fa3          	sb	a5,415(sp)
   1974c:	19f10893          	addi	a7,sp,415
   19750:	ed4ff06f          	j	18e24 <_vfprintf_r+0x1828>
   19754:	05012603          	lw	a2,80(sp)
   19758:	04012583          	lw	a1,64(sp)
   1975c:	00100b93          	li	s7,1
   19760:	40ca0433          	sub	s0,s4,a2
   19764:	00040513          	mv	a0,s0
   19768:	515010ef          	jal	1b47c <strncpy>
   1976c:	03012703          	lw	a4,48(sp)
   19770:	000c0513          	mv	a0,s8
   19774:	000c8593          	mv	a1,s9
   19778:	00174783          	lbu	a5,1(a4)
   1977c:	00a00613          	li	a2,10
   19780:	00000693          	li	a3,0
   19784:	00f037b3          	snez	a5,a5
   19788:	00f707b3          	add	a5,a4,a5
   1978c:	02f12823          	sw	a5,48(sp)
   19790:	c25f60ef          	jal	103b4 <__udivdi3>
   19794:	00a00613          	li	a2,10
   19798:	00000693          	li	a3,0
   1979c:	00050c13          	mv	s8,a0
   197a0:	00058c93          	mv	s9,a1
   197a4:	9d8f70ef          	jal	1097c <__umoddi3>
   197a8:	03050793          	addi	a5,a0,48
   197ac:	fff40a13          	addi	s4,s0,-1
   197b0:	fef40fa3          	sb	a5,-1(s0)
   197b4:	d88ff06f          	j	18d3c <_vfprintf_r+0x1740>
   197b8:	02012783          	lw	a5,32(sp)
   197bc:	00040713          	mv	a4,s0
   197c0:	02412403          	lw	s0,36(sp)
   197c4:	00f88b33          	add	s6,a7,a5
   197c8:	02812983          	lw	s3,40(sp)
   197cc:	03612223          	sw	s6,36(sp)
   197d0:	03812423          	sw	s8,40(sp)
   197d4:	03c12c23          	sw	t3,56(sp)
   197d8:	05712223          	sw	s7,68(sp)
   197dc:	04612423          	sw	t1,72(sp)
   197e0:	05112623          	sw	a7,76(sp)
   197e4:	000d8c13          	mv	s8,s11
   197e8:	03012b03          	lw	s6,48(sp)
   197ec:	05012d83          	lw	s11,80(sp)
   197f0:	00700813          	li	a6,7
   197f4:	01000c93          	li	s9,16
   197f8:	00021a37          	lui	s4,0x21
   197fc:	08805863          	blez	s0,1988c <_vfprintf_r+0x2290>
   19800:	19305663          	blez	s3,1998c <_vfprintf_r+0x2390>
   19804:	fff98993          	addi	s3,s3,-1
   19808:	0d812783          	lw	a5,216(sp)
   1980c:	04012683          	lw	a3,64(sp)
   19810:	01b60633          	add	a2,a2,s11
   19814:	00178793          	addi	a5,a5,1
   19818:	00d72023          	sw	a3,0(a4)
   1981c:	01b72223          	sw	s11,4(a4)
   19820:	0cc12e23          	sw	a2,220(sp)
   19824:	0cf12c23          	sw	a5,216(sp)
   19828:	00870713          	addi	a4,a4,8
   1982c:	16f84663          	blt	a6,a5,19998 <_vfprintf_r+0x239c>
   19830:	02412783          	lw	a5,36(sp)
   19834:	000b4683          	lbu	a3,0(s6)
   19838:	41878bb3          	sub	s7,a5,s8
   1983c:	0176d463          	bge	a3,s7,19844 <_vfprintf_r+0x2248>
   19840:	00068b93          	mv	s7,a3
   19844:	03705663          	blez	s7,19870 <_vfprintf_r+0x2274>
   19848:	0d812683          	lw	a3,216(sp)
   1984c:	01760633          	add	a2,a2,s7
   19850:	0cc12e23          	sw	a2,220(sp)
   19854:	00168693          	addi	a3,a3,1
   19858:	01872023          	sw	s8,0(a4)
   1985c:	01772223          	sw	s7,4(a4)
   19860:	0cd12c23          	sw	a3,216(sp)
   19864:	14d84e63          	blt	a6,a3,199c0 <_vfprintf_r+0x23c4>
   19868:	000b4683          	lbu	a3,0(s6)
   1986c:	00870713          	addi	a4,a4,8
   19870:	fffbc593          	not	a1,s7
   19874:	41f5d593          	srai	a1,a1,0x1f
   19878:	00bbf7b3          	and	a5,s7,a1
   1987c:	40f68d33          	sub	s10,a3,a5
   19880:	05a04463          	bgtz	s10,198c8 <_vfprintf_r+0x22cc>
   19884:	00dc0c33          	add	s8,s8,a3
   19888:	f6804ce3          	bgtz	s0,19800 <_vfprintf_r+0x2204>
   1988c:	f7304ce3          	bgtz	s3,19804 <_vfprintf_r+0x2208>
   19890:	04c12883          	lw	a7,76(sp)
   19894:	02012783          	lw	a5,32(sp)
   19898:	000c0d93          	mv	s11,s8
   1989c:	00070413          	mv	s0,a4
   198a0:	03612823          	sw	s6,48(sp)
   198a4:	00f88733          	add	a4,a7,a5
   198a8:	03812e03          	lw	t3,56(sp)
   198ac:	04412b83          	lw	s7,68(sp)
   198b0:	04812303          	lw	t1,72(sp)
   198b4:	02812c03          	lw	s8,40(sp)
   198b8:	01b76463          	bltu	a4,s11,198c0 <_vfprintf_r+0x22c4>
   198bc:	820ff06f          	j	188dc <_vfprintf_r+0x12e0>
   198c0:	00070d93          	mv	s11,a4
   198c4:	818ff06f          	j	188dc <_vfprintf_r+0x12e0>
   198c8:	00021f37          	lui	t5,0x21
   198cc:	0d812683          	lw	a3,216(sp)
   198d0:	588f0b93          	addi	s7,t5,1416 # 21588 <zeroes.0>
   198d4:	09acd663          	bge	s9,s10,19960 <_vfprintf_r+0x2364>
   198d8:	588a0b93          	addi	s7,s4,1416 # 21588 <zeroes.0>
   198dc:	000b8793          	mv	a5,s7
   198e0:	00040b93          	mv	s7,s0
   198e4:	000d0413          	mv	s0,s10
   198e8:	00098d13          	mv	s10,s3
   198ec:	00078993          	mv	s3,a5
   198f0:	00c0006f          	j	198fc <_vfprintf_r+0x2300>
   198f4:	ff040413          	addi	s0,s0,-16
   198f8:	048cda63          	bge	s9,s0,1994c <_vfprintf_r+0x2350>
   198fc:	01060613          	addi	a2,a2,16
   19900:	00168693          	addi	a3,a3,1
   19904:	01372023          	sw	s3,0(a4)
   19908:	01972223          	sw	s9,4(a4)
   1990c:	0cc12e23          	sw	a2,220(sp)
   19910:	0cd12c23          	sw	a3,216(sp)
   19914:	00870713          	addi	a4,a4,8
   19918:	fcd85ee3          	bge	a6,a3,198f4 <_vfprintf_r+0x22f8>
   1991c:	01012583          	lw	a1,16(sp)
   19920:	00c12503          	lw	a0,12(sp)
   19924:	0d410613          	addi	a2,sp,212
   19928:	7f5000ef          	jal	1a91c <__sprint_r>
   1992c:	00050463          	beqz	a0,19934 <_vfprintf_r+0x2338>
   19930:	c91fe06f          	j	185c0 <_vfprintf_r+0xfc4>
   19934:	ff040413          	addi	s0,s0,-16
   19938:	0dc12603          	lw	a2,220(sp)
   1993c:	0d812683          	lw	a3,216(sp)
   19940:	000a8713          	mv	a4,s5
   19944:	00700813          	li	a6,7
   19948:	fa8ccae3          	blt	s9,s0,198fc <_vfprintf_r+0x2300>
   1994c:	00098793          	mv	a5,s3
   19950:	000d0993          	mv	s3,s10
   19954:	00040d13          	mv	s10,s0
   19958:	000b8413          	mv	s0,s7
   1995c:	00078b93          	mv	s7,a5
   19960:	01a60633          	add	a2,a2,s10
   19964:	00168693          	addi	a3,a3,1
   19968:	0cc12e23          	sw	a2,220(sp)
   1996c:	0cd12c23          	sw	a3,216(sp)
   19970:	01772023          	sw	s7,0(a4)
   19974:	01a72223          	sw	s10,4(a4)
   19978:	10d846e3          	blt	a6,a3,1a284 <_vfprintf_r+0x2c88>
   1997c:	000b4683          	lbu	a3,0(s6)
   19980:	00870713          	addi	a4,a4,8
   19984:	00dc0c33          	add	s8,s8,a3
   19988:	f01ff06f          	j	19888 <_vfprintf_r+0x228c>
   1998c:	fffb0b13          	addi	s6,s6,-1
   19990:	fff40413          	addi	s0,s0,-1
   19994:	e75ff06f          	j	19808 <_vfprintf_r+0x220c>
   19998:	01012583          	lw	a1,16(sp)
   1999c:	00c12503          	lw	a0,12(sp)
   199a0:	0d410613          	addi	a2,sp,212
   199a4:	779000ef          	jal	1a91c <__sprint_r>
   199a8:	00050463          	beqz	a0,199b0 <_vfprintf_r+0x23b4>
   199ac:	c15fe06f          	j	185c0 <_vfprintf_r+0xfc4>
   199b0:	0dc12603          	lw	a2,220(sp)
   199b4:	000a8713          	mv	a4,s5
   199b8:	00700813          	li	a6,7
   199bc:	e75ff06f          	j	19830 <_vfprintf_r+0x2234>
   199c0:	01012583          	lw	a1,16(sp)
   199c4:	00c12503          	lw	a0,12(sp)
   199c8:	0d410613          	addi	a2,sp,212
   199cc:	751000ef          	jal	1a91c <__sprint_r>
   199d0:	00050463          	beqz	a0,199d8 <_vfprintf_r+0x23dc>
   199d4:	bedfe06f          	j	185c0 <_vfprintf_r+0xfc4>
   199d8:	000b4683          	lbu	a3,0(s6)
   199dc:	0dc12603          	lw	a2,220(sp)
   199e0:	000a8713          	mv	a4,s5
   199e4:	00700813          	li	a6,7
   199e8:	e89ff06f          	j	19870 <_vfprintf_r+0x2274>
   199ec:	01012583          	lw	a1,16(sp)
   199f0:	00c12503          	lw	a0,12(sp)
   199f4:	0d410613          	addi	a2,sp,212
   199f8:	03112c23          	sw	a7,56(sp)
   199fc:	02612423          	sw	t1,40(sp)
   19a00:	03c12223          	sw	t3,36(sp)
   19a04:	719000ef          	jal	1a91c <__sprint_r>
   19a08:	00050463          	beqz	a0,19a10 <_vfprintf_r+0x2414>
   19a0c:	bb5fe06f          	j	185c0 <_vfprintf_r+0xfc4>
   19a10:	0bc12503          	lw	a0,188(sp)
   19a14:	0dc12603          	lw	a2,220(sp)
   19a18:	03812883          	lw	a7,56(sp)
   19a1c:	02812303          	lw	t1,40(sp)
   19a20:	02412e03          	lw	t3,36(sp)
   19a24:	000a8413          	mv	s0,s5
   19a28:	9d5ff06f          	j	193fc <_vfprintf_r+0x1e00>
   19a2c:	0b714703          	lbu	a4,183(sp)
   19a30:	00000c13          	li	s8,0
   19a34:	00000d13          	li	s10,0
   19a38:	1a010893          	addi	a7,sp,416
   19a3c:	e28fe06f          	j	18064 <_vfprintf_r+0xa68>
   19a40:	01012583          	lw	a1,16(sp)
   19a44:	00c12503          	lw	a0,12(sp)
   19a48:	0d410613          	addi	a2,sp,212
   19a4c:	05112423          	sw	a7,72(sp)
   19a50:	04612223          	sw	t1,68(sp)
   19a54:	03c12c23          	sw	t3,56(sp)
   19a58:	6c5000ef          	jal	1a91c <__sprint_r>
   19a5c:	00050463          	beqz	a0,19a64 <_vfprintf_r+0x2468>
   19a60:	b61fe06f          	j	185c0 <_vfprintf_r+0xfc4>
   19a64:	0dc12603          	lw	a2,220(sp)
   19a68:	04812883          	lw	a7,72(sp)
   19a6c:	04412303          	lw	t1,68(sp)
   19a70:	03812e03          	lw	t3,56(sp)
   19a74:	000a8413          	mv	s0,s5
   19a78:	e45fe06f          	j	188bc <_vfprintf_r+0x12c0>
   19a7c:	00078c13          	mv	s8,a5
   19a80:	d88ff06f          	j	19008 <_vfprintf_r+0x1a0c>
   19a84:	0dc12603          	lw	a2,220(sp)
   19a88:	0d812f83          	lw	t6,216(sp)
   19a8c:	004a7693          	andi	a3,s4,4
   19a90:	02d12423          	sw	a3,40(sp)
   19a94:	00060513          	mv	a0,a2
   19a98:	000f8593          	mv	a1,t6
   19a9c:	fc068263          	beqz	a3,19260 <_vfprintf_r+0x1c64>
   19aa0:	00f12c23          	sw	a5,24(sp)
   19aa4:	00070313          	mv	t1,a4
   19aa8:	00000d13          	li	s10,0
   19aac:	02012423          	sw	zero,40(sp)
   19ab0:	02012223          	sw	zero,36(sp)
   19ab4:	00000993          	li	s3,0
   19ab8:	00012e23          	sw	zero,28(sp)
   19abc:	00200c13          	li	s8,2
   19ac0:	1a010893          	addi	a7,sp,416
   19ac4:	07800d93          	li	s11,120
   19ac8:	00400f13          	li	t5,4
   19acc:	dadfd06f          	j	17878 <_vfprintf_r+0x27c>
   19ad0:	00078713          	mv	a4,a5
   19ad4:	00f887b3          	add	a5,a7,a5
   19ad8:	41b78d33          	sub	s10,a5,s11
   19adc:	41970cb3          	sub	s9,a4,s9
   19ae0:	01acc463          	blt	s9,s10,19ae8 <_vfprintf_r+0x24ec>
   19ae4:	e8dfe06f          	j	18970 <_vfprintf_r+0x1374>
   19ae8:	000c8d13          	mv	s10,s9
   19aec:	e85fe06f          	j	18970 <_vfprintf_r+0x1374>
   19af0:	000a8413          	mv	s0,s5
   19af4:	db9fd06f          	j	178ac <_vfprintf_r+0x2b0>
   19af8:	01812783          	lw	a5,24(sp)
   19afc:	01412683          	lw	a3,20(sp)
   19b00:	00e12c23          	sw	a4,24(sp)
   19b04:	0007a783          	lw	a5,0(a5)
   19b08:	00d79023          	sh	a3,0(a5)
   19b0c:	fc0fe06f          	j	182cc <_vfprintf_r+0xcd0>
   19b10:	0ff6f693          	zext.b	a3,a3
   19b14:	00000613          	li	a2,0
   19b18:	c20ff06f          	j	18f38 <_vfprintf_r+0x193c>
   19b1c:	41f85713          	srai	a4,a6,0x1f
   19b20:	00080d13          	mv	s10,a6
   19b24:	00f12c23          	sw	a5,24(sp)
   19b28:	00070693          	mv	a3,a4
   19b2c:	c68fe06f          	j	17f94 <_vfprintf_r+0x998>
   19b30:	00f12c23          	sw	a5,24(sp)
   19b34:	000a0e93          	mv	t4,s4
   19b38:	00000593          	li	a1,0
   19b3c:	e4cfe06f          	j	18188 <_vfprintf_r+0xb8c>
   19b40:	0ff6fd13          	zext.b	s10,a3
   19b44:	00000713          	li	a4,0
   19b48:	000cc463          	bltz	s9,19b50 <_vfprintf_r+0x2554>
   19b4c:	d84fe06f          	j	180d0 <_vfprintf_r+0xad4>
   19b50:	00f12c23          	sw	a5,24(sp)
   19b54:	954ff06f          	j	18ca8 <_vfprintf_r+0x16ac>
   19b58:	00100c13          	li	s8,1
   19b5c:	f7cff06f          	j	192d8 <_vfprintf_r+0x1cdc>
   19b60:	04700793          	li	a5,71
   19b64:	0b714703          	lbu	a4,183(sp)
   19b68:	2fb7d6e3          	bge	a5,s11,1a654 <_vfprintf_r+0x3058>
   19b6c:	000217b7          	lui	a5,0x21
   19b70:	1e078893          	addi	a7,a5,480 # 211e0 <_getpid_r+0xa8>
   19b74:	4a0714e3          	bnez	a4,1a81c <_vfprintf_r+0x3220>
   19b78:	00300d13          	li	s10,3
   19b7c:	000d0c13          	mv	s8,s10
   19b80:	00000c93          	li	s9,0
   19b84:	02012423          	sw	zero,40(sp)
   19b88:	02012223          	sw	zero,36(sp)
   19b8c:	00012e23          	sw	zero,28(sp)
   19b90:	c95fd06f          	j	17824 <_vfprintf_r+0x228>
   19b94:	01012583          	lw	a1,16(sp)
   19b98:	00c12503          	lw	a0,12(sp)
   19b9c:	0d410613          	addi	a2,sp,212
   19ba0:	03112c23          	sw	a7,56(sp)
   19ba4:	02612423          	sw	t1,40(sp)
   19ba8:	03c12223          	sw	t3,36(sp)
   19bac:	571000ef          	jal	1a91c <__sprint_r>
   19bb0:	00050463          	beqz	a0,19bb8 <_vfprintf_r+0x25bc>
   19bb4:	a0dfe06f          	j	185c0 <_vfprintf_r+0xfc4>
   19bb8:	0bc12503          	lw	a0,188(sp)
   19bbc:	0dc12603          	lw	a2,220(sp)
   19bc0:	0d812583          	lw	a1,216(sp)
   19bc4:	03812883          	lw	a7,56(sp)
   19bc8:	02812303          	lw	t1,40(sp)
   19bcc:	02412e03          	lw	t3,36(sp)
   19bd0:	000a8413          	mv	s0,s5
   19bd4:	ff5fd06f          	j	17bc8 <_vfprintf_r+0x5cc>
   19bd8:	01950c33          	add	s8,a0,s9
   19bdc:	04700693          	li	a3,71
   19be0:	09010593          	addi	a1,sp,144
   19be4:	000d0513          	mv	a0,s10
   19be8:	05112223          	sw	a7,68(sp)
   19bec:	02d12423          	sw	a3,40(sp)
   19bf0:	02612223          	sw	t1,36(sp)
   19bf4:	03c12023          	sw	t3,32(sp)
   19bf8:	0a512023          	sw	t0,160(sp)
   19bfc:	0bf12223          	sw	t6,164(sp)
   19c00:	0be12423          	sw	t5,168(sp)
   19c04:	0bd12623          	sw	t4,172(sp)
   19c08:	08012823          	sw	zero,144(sp)
   19c0c:	08012a23          	sw	zero,148(sp)
   19c10:	08012c23          	sw	zero,152(sp)
   19c14:	08012e23          	sw	zero,156(sp)
   19c18:	b1cf90ef          	jal	12f34 <__eqtf2>
   19c1c:	02012e03          	lw	t3,32(sp)
   19c20:	02412303          	lw	t1,36(sp)
   19c24:	02812683          	lw	a3,40(sp)
   19c28:	04412883          	lw	a7,68(sp)
   19c2c:	68050463          	beqz	a0,1a2b4 <_vfprintf_r+0x2cb8>
   19c30:	0cc12783          	lw	a5,204(sp)
   19c34:	4187f8e3          	bgeu	a5,s8,1a844 <_vfprintf_r+0x3248>
   19c38:	03000593          	li	a1,48
   19c3c:	00178713          	addi	a4,a5,1
   19c40:	0ce12623          	sw	a4,204(sp)
   19c44:	00b78023          	sb	a1,0(a5)
   19c48:	0cc12783          	lw	a5,204(sp)
   19c4c:	ff87e8e3          	bltu	a5,s8,19c3c <_vfprintf_r+0x2640>
   19c50:	411787b3          	sub	a5,a5,a7
   19c54:	04700713          	li	a4,71
   19c58:	02f12023          	sw	a5,32(sp)
   19c5c:	0bc12983          	lw	s3,188(sp)
   19c60:	66e68463          	beq	a3,a4,1a2c8 <_vfprintf_r+0x2ccc>
   19c64:	04600713          	li	a4,70
   19c68:	04e684e3          	beq	a3,a4,1a4b0 <_vfprintf_r+0x2eb4>
   19c6c:	fff98c13          	addi	s8,s3,-1
   19c70:	0db10223          	sb	s11,196(sp)
   19c74:	0b812e23          	sw	s8,188(sp)
   19c78:	720c4863          	bltz	s8,1a3a8 <_vfprintf_r+0x2dac>
   19c7c:	02b00693          	li	a3,43
   19c80:	0cd102a3          	sb	a3,197(sp)
   19c84:	00900693          	li	a3,9
   19c88:	4f86c463          	blt	a3,s8,1a170 <_vfprintf_r+0x2b74>
   19c8c:	03000693          	li	a3,48
   19c90:	0cd10323          	sb	a3,198(sp)
   19c94:	0c710693          	addi	a3,sp,199
   19c98:	1a010793          	addi	a5,sp,416
   19c9c:	40f68633          	sub	a2,a3,a5
   19ca0:	030c0713          	addi	a4,s8,48
   19ca4:	0dd60793          	addi	a5,a2,221
   19ca8:	00e68023          	sb	a4,0(a3)
   19cac:	02f12e23          	sw	a5,60(sp)
   19cb0:	02012783          	lw	a5,32(sp)
   19cb4:	03c12683          	lw	a3,60(sp)
   19cb8:	00100713          	li	a4,1
   19cbc:	00d78d33          	add	s10,a5,a3
   19cc0:	16f758e3          	bge	a4,a5,1a630 <_vfprintf_r+0x3034>
   19cc4:	02c12783          	lw	a5,44(sp)
   19cc8:	00fd0d33          	add	s10,s10,a5
   19ccc:	fffd4693          	not	a3,s10
   19cd0:	bff37313          	andi	t1,t1,-1025
   19cd4:	41f6d693          	srai	a3,a3,0x1f
   19cd8:	10036313          	ori	t1,t1,256
   19cdc:	00dd7c33          	and	s8,s10,a3
   19ce0:	02012423          	sw	zero,40(sp)
   19ce4:	02012223          	sw	zero,36(sp)
   19ce8:	00000993          	li	s3,0
   19cec:	d50ff06f          	j	1923c <_vfprintf_r+0x1c40>
   19cf0:	000217b7          	lui	a5,0x21
   19cf4:	1d478893          	addi	a7,a5,468 # 211d4 <_getpid_r+0x9c>
   19cf8:	8a5ff06f          	j	1959c <_vfprintf_r+0x1fa0>
   19cfc:	001c8793          	addi	a5,s9,1
   19d00:	02f12023          	sw	a5,32(sp)
   19d04:	00200613          	li	a2,2
   19d08:	02012983          	lw	s3,32(sp)
   19d0c:	00c12503          	lw	a0,12(sp)
   19d10:	0a010d13          	addi	s10,sp,160
   19d14:	00098693          	mv	a3,s3
   19d18:	000d0593          	mv	a1,s10
   19d1c:	0cc10813          	addi	a6,sp,204
   19d20:	0c010793          	addi	a5,sp,192
   19d24:	0bc10713          	addi	a4,sp,188
   19d28:	04612a23          	sw	t1,84(sp)
   19d2c:	05c12623          	sw	t3,76(sp)
   19d30:	0a512023          	sw	t0,160(sp)
   19d34:	04512423          	sw	t0,72(sp)
   19d38:	0bf12223          	sw	t6,164(sp)
   19d3c:	05f12223          	sw	t6,68(sp)
   19d40:	0be12423          	sw	t5,168(sp)
   19d44:	03e12423          	sw	t5,40(sp)
   19d48:	0bd12623          	sw	t4,172(sp)
   19d4c:	03d12223          	sw	t4,36(sp)
   19d50:	501010ef          	jal	1ba50 <_ldtoa_r>
   19d54:	fdfdf693          	andi	a3,s11,-33
   19d58:	04600613          	li	a2,70
   19d5c:	02412e83          	lw	t4,36(sp)
   19d60:	02812f03          	lw	t5,40(sp)
   19d64:	04412f83          	lw	t6,68(sp)
   19d68:	04812283          	lw	t0,72(sp)
   19d6c:	04c12e03          	lw	t3,76(sp)
   19d70:	05412303          	lw	t1,84(sp)
   19d74:	00050893          	mv	a7,a0
   19d78:	01350c33          	add	s8,a0,s3
   19d7c:	5cc68063          	beq	a3,a2,1a33c <_vfprintf_r+0x2d40>
   19d80:	000d0513          	mv	a0,s10
   19d84:	09010593          	addi	a1,sp,144
   19d88:	05112223          	sw	a7,68(sp)
   19d8c:	02612423          	sw	t1,40(sp)
   19d90:	03c12223          	sw	t3,36(sp)
   19d94:	0a512023          	sw	t0,160(sp)
   19d98:	0bf12223          	sw	t6,164(sp)
   19d9c:	0be12423          	sw	t5,168(sp)
   19da0:	0bd12623          	sw	t4,172(sp)
   19da4:	08012823          	sw	zero,144(sp)
   19da8:	08012a23          	sw	zero,148(sp)
   19dac:	08012c23          	sw	zero,152(sp)
   19db0:	08012e23          	sw	zero,156(sp)
   19db4:	980f90ef          	jal	12f34 <__eqtf2>
   19db8:	02412e03          	lw	t3,36(sp)
   19dbc:	02812303          	lw	t1,40(sp)
   19dc0:	04412883          	lw	a7,68(sp)
   19dc4:	00050c63          	beqz	a0,19ddc <_vfprintf_r+0x27e0>
   19dc8:	0cc12783          	lw	a5,204(sp)
   19dcc:	04500693          	li	a3,69
   19dd0:	e787e4e3          	bltu	a5,s8,19c38 <_vfprintf_r+0x263c>
   19dd4:	411787b3          	sub	a5,a5,a7
   19dd8:	02f12023          	sw	a5,32(sp)
   19ddc:	0bc12983          	lw	s3,188(sp)
   19de0:	e8dff06f          	j	19c6c <_vfprintf_r+0x2670>
   19de4:	0a010d13          	addi	s10,sp,160
   19de8:	09010593          	addi	a1,sp,144
   19dec:	000d0513          	mv	a0,s10
   19df0:	0bc10613          	addi	a2,sp,188
   19df4:	05112a23          	sw	a7,84(sp)
   19df8:	04612623          	sw	t1,76(sp)
   19dfc:	05c12423          	sw	t3,72(sp)
   19e00:	08512823          	sw	t0,144(sp)
   19e04:	09f12a23          	sw	t6,148(sp)
   19e08:	09e12c23          	sw	t5,152(sp)
   19e0c:	09d12e23          	sw	t4,156(sp)
   19e10:	02b12023          	sw	a1,32(sp)
   19e14:	221010ef          	jal	1b834 <frexpl>
   19e18:	0a412503          	lw	a0,164(sp)
   19e1c:	0a812603          	lw	a2,168(sp)
   19e20:	0a012803          	lw	a6,160(sp)
   19e24:	0ac12683          	lw	a3,172(sp)
   19e28:	02012583          	lw	a1,32(sp)
   19e2c:	3ffc0737          	lui	a4,0x3ffc0
   19e30:	08a12a23          	sw	a0,148(sp)
   19e34:	08c12c23          	sw	a2,152(sp)
   19e38:	000d0513          	mv	a0,s10
   19e3c:	08010613          	addi	a2,sp,128
   19e40:	09012823          	sw	a6,144(sp)
   19e44:	08d12e23          	sw	a3,156(sp)
   19e48:	08e12623          	sw	a4,140(sp)
   19e4c:	08012023          	sw	zero,128(sp)
   19e50:	08012223          	sw	zero,132(sp)
   19e54:	08012423          	sw	zero,136(sp)
   19e58:	be8f90ef          	jal	13240 <__multf3>
   19e5c:	02012583          	lw	a1,32(sp)
   19e60:	0a012f03          	lw	t5,160(sp)
   19e64:	0a412e83          	lw	t4,164(sp)
   19e68:	0a812803          	lw	a6,168(sp)
   19e6c:	0ac12603          	lw	a2,172(sp)
   19e70:	000d0513          	mv	a0,s10
   19e74:	04b12223          	sw	a1,68(sp)
   19e78:	03e12e23          	sw	t5,60(sp)
   19e7c:	03d12423          	sw	t4,40(sp)
   19e80:	03012223          	sw	a6,36(sp)
   19e84:	02c12023          	sw	a2,32(sp)
   19e88:	08012823          	sw	zero,144(sp)
   19e8c:	08012a23          	sw	zero,148(sp)
   19e90:	08012c23          	sw	zero,152(sp)
   19e94:	08012e23          	sw	zero,156(sp)
   19e98:	89cf90ef          	jal	12f34 <__eqtf2>
   19e9c:	02012603          	lw	a2,32(sp)
   19ea0:	02412803          	lw	a6,36(sp)
   19ea4:	02812e83          	lw	t4,40(sp)
   19ea8:	03c12f03          	lw	t5,60(sp)
   19eac:	04412583          	lw	a1,68(sp)
   19eb0:	04812e03          	lw	t3,72(sp)
   19eb4:	04c12303          	lw	t1,76(sp)
   19eb8:	05412883          	lw	a7,84(sp)
   19ebc:	00051663          	bnez	a0,19ec8 <_vfprintf_r+0x28cc>
   19ec0:	00100713          	li	a4,1
   19ec4:	0ae12e23          	sw	a4,188(sp)
   19ec8:	06100713          	li	a4,97
   19ecc:	08ed8ee3          	beq	s11,a4,1a768 <_vfprintf_r+0x316c>
   19ed0:	00021737          	lui	a4,0x21
   19ed4:	1f870793          	addi	a5,a4,504 # 211f8 <_getpid_r+0xc0>
   19ed8:	02f12023          	sw	a5,32(sp)
   19edc:	03712423          	sw	s7,40(sp)
   19ee0:	05b12223          	sw	s11,68(sp)
   19ee4:	fffc8c93          	addi	s9,s9,-1
   19ee8:	03c12223          	sw	t3,36(sp)
   19eec:	02812e23          	sw	s0,60(sp)
   19ef0:	00088a13          	mv	s4,a7
   19ef4:	04612423          	sw	t1,72(sp)
   19ef8:	05112623          	sw	a7,76(sp)
   19efc:	000f0b13          	mv	s6,t5
   19f00:	000e8b93          	mv	s7,t4
   19f04:	00080c13          	mv	s8,a6
   19f08:	00060d93          	mv	s11,a2
   19f0c:	00058993          	mv	s3,a1
   19f10:	03c0006f          	j	19f4c <_vfprintf_r+0x2950>
   19f14:	00098593          	mv	a1,s3
   19f18:	000d0513          	mv	a0,s10
   19f1c:	0b612023          	sw	s6,160(sp)
   19f20:	0b712223          	sw	s7,164(sp)
   19f24:	0b812423          	sw	s8,168(sp)
   19f28:	0bb12623          	sw	s11,172(sp)
   19f2c:	08012823          	sw	zero,144(sp)
   19f30:	08012a23          	sw	zero,148(sp)
   19f34:	08012c23          	sw	zero,152(sp)
   19f38:	08012e23          	sw	zero,156(sp)
   19f3c:	00fc8433          	add	s0,s9,a5
   19f40:	ff5f80ef          	jal	12f34 <__eqtf2>
   19f44:	7c050263          	beqz	a0,1a708 <_vfprintf_r+0x310c>
   19f48:	00040c93          	mv	s9,s0
   19f4c:	400307b7          	lui	a5,0x40030
   19f50:	08010613          	addi	a2,sp,128
   19f54:	00098593          	mv	a1,s3
   19f58:	000d0513          	mv	a0,s10
   19f5c:	08f12623          	sw	a5,140(sp)
   19f60:	09612823          	sw	s6,144(sp)
   19f64:	09712a23          	sw	s7,148(sp)
   19f68:	09812c23          	sw	s8,152(sp)
   19f6c:	09b12e23          	sw	s11,156(sp)
   19f70:	08012023          	sw	zero,128(sp)
   19f74:	08012223          	sw	zero,132(sp)
   19f78:	08012423          	sw	zero,136(sp)
   19f7c:	ac4f90ef          	jal	13240 <__multf3>
   19f80:	000d0513          	mv	a0,s10
   19f84:	ad9fb0ef          	jal	15a5c <__fixtfsi>
   19f88:	00050413          	mv	s0,a0
   19f8c:	00040593          	mv	a1,s0
   19f90:	000d0513          	mv	a0,s10
   19f94:	0a012d83          	lw	s11,160(sp)
   19f98:	0a412c03          	lw	s8,164(sp)
   19f9c:	0a812b83          	lw	s7,168(sp)
   19fa0:	0ac12b03          	lw	s6,172(sp)
   19fa4:	bb1fb0ef          	jal	15b54 <__floatsitf>
   19fa8:	0a012503          	lw	a0,160(sp)
   19fac:	0a412583          	lw	a1,164(sp)
   19fb0:	0a812603          	lw	a2,168(sp)
   19fb4:	0ac12703          	lw	a4,172(sp)
   19fb8:	06a12823          	sw	a0,112(sp)
   19fbc:	06b12a23          	sw	a1,116(sp)
   19fc0:	06c12c23          	sw	a2,120(sp)
   19fc4:	08010593          	addi	a1,sp,128
   19fc8:	07010613          	addi	a2,sp,112
   19fcc:	00098513          	mv	a0,s3
   19fd0:	09b12023          	sw	s11,128(sp)
   19fd4:	09812223          	sw	s8,132(sp)
   19fd8:	09712423          	sw	s7,136(sp)
   19fdc:	09612623          	sw	s6,140(sp)
   19fe0:	06e12e23          	sw	a4,124(sp)
   19fe4:	e08fa0ef          	jal	145ec <__subtf3>
   19fe8:	02012783          	lw	a5,32(sp)
   19fec:	000a0293          	mv	t0,s4
   19ff0:	001a0a13          	addi	s4,s4,1
   19ff4:	00878733          	add	a4,a5,s0
   19ff8:	00074703          	lbu	a4,0(a4)
   19ffc:	09012b03          	lw	s6,144(sp)
   1a000:	09412b83          	lw	s7,148(sp)
   1a004:	09812c03          	lw	s8,152(sp)
   1a008:	09c12d83          	lw	s11,156(sp)
   1a00c:	fff00793          	li	a5,-1
   1a010:	feea0fa3          	sb	a4,-1(s4)
   1a014:	f0fc90e3          	bne	s9,a5,19f14 <_vfprintf_r+0x2918>
   1a018:	02412e03          	lw	t3,36(sp)
   1a01c:	04812303          	lw	t1,72(sp)
   1a020:	04c12883          	lw	a7,76(sp)
   1a024:	000b8e93          	mv	t4,s7
   1a028:	000c0813          	mv	a6,s8
   1a02c:	000d8613          	mv	a2,s11
   1a030:	00098593          	mv	a1,s3
   1a034:	3ffe0cb7          	lui	s9,0x3ffe0
   1a038:	000d0513          	mv	a0,s10
   1a03c:	07c12623          	sw	t3,108(sp)
   1a040:	06512423          	sw	t0,104(sp)
   1a044:	06612223          	sw	t1,100(sp)
   1a048:	03112223          	sw	a7,36(sp)
   1a04c:	06812023          	sw	s0,96(sp)
   1a050:	0b612023          	sw	s6,160(sp)
   1a054:	05612e23          	sw	s6,92(sp)
   1a058:	0bd12223          	sw	t4,164(sp)
   1a05c:	05d12c23          	sw	t4,88(sp)
   1a060:	0b012423          	sw	a6,168(sp)
   1a064:	05012a23          	sw	a6,84(sp)
   1a068:	0ac12623          	sw	a2,172(sp)
   1a06c:	04c12623          	sw	a2,76(sp)
   1a070:	08012823          	sw	zero,144(sp)
   1a074:	08012a23          	sw	zero,148(sp)
   1a078:	08012c23          	sw	zero,152(sp)
   1a07c:	09912e23          	sw	s9,156(sp)
   1a080:	05312423          	sw	s3,72(sp)
   1a084:	f7df80ef          	jal	13000 <__getf2>
   1a088:	03c12403          	lw	s0,60(sp)
   1a08c:	02812b83          	lw	s7,40(sp)
   1a090:	04412d83          	lw	s11,68(sp)
   1a094:	02412883          	lw	a7,36(sp)
   1a098:	06412303          	lw	t1,100(sp)
   1a09c:	06812283          	lw	t0,104(sp)
   1a0a0:	06c12e03          	lw	t3,108(sp)
   1a0a4:	000a0c13          	mv	s8,s4
   1a0a8:	04a04063          	bgtz	a0,1a0e8 <_vfprintf_r+0x2aec>
   1a0ac:	00098593          	mv	a1,s3
   1a0b0:	000d0513          	mv	a0,s10
   1a0b4:	05112223          	sw	a7,68(sp)
   1a0b8:	02612e23          	sw	t1,60(sp)
   1a0bc:	03c12223          	sw	t3,36(sp)
   1a0c0:	02512423          	sw	t0,40(sp)
   1a0c4:	e71f80ef          	jal	12f34 <__eqtf2>
   1a0c8:	02412e03          	lw	t3,36(sp)
   1a0cc:	03c12303          	lw	t1,60(sp)
   1a0d0:	04412883          	lw	a7,68(sp)
   1a0d4:	04051e63          	bnez	a0,1a130 <_vfprintf_r+0x2b34>
   1a0d8:	06012683          	lw	a3,96(sp)
   1a0dc:	02812283          	lw	t0,40(sp)
   1a0e0:	0016f693          	andi	a3,a3,1
   1a0e4:	04068663          	beqz	a3,1a130 <_vfprintf_r+0x2b34>
   1a0e8:	02012783          	lw	a5,32(sp)
   1a0ec:	0c512623          	sw	t0,204(sp)
   1a0f0:	fffc4603          	lbu	a2,-1(s8)
   1a0f4:	00f7c583          	lbu	a1,15(a5) # 4003000f <__global_pointer$+0x4000d157>
   1a0f8:	000c0693          	mv	a3,s8
   1a0fc:	02b61063          	bne	a2,a1,1a11c <_vfprintf_r+0x2b20>
   1a100:	03000513          	li	a0,48
   1a104:	fea68fa3          	sb	a0,-1(a3)
   1a108:	0cc12683          	lw	a3,204(sp)
   1a10c:	fff68793          	addi	a5,a3,-1
   1a110:	0cf12623          	sw	a5,204(sp)
   1a114:	fff6c603          	lbu	a2,-1(a3)
   1a118:	feb606e3          	beq	a2,a1,1a104 <_vfprintf_r+0x2b08>
   1a11c:	00160593          	addi	a1,a2,1
   1a120:	03900513          	li	a0,57
   1a124:	0ff5f593          	zext.b	a1,a1
   1a128:	12a60463          	beq	a2,a0,1a250 <_vfprintf_r+0x2c54>
   1a12c:	feb68fa3          	sb	a1,-1(a3)
   1a130:	0bc12683          	lw	a3,188(sp)
   1a134:	411c07b3          	sub	a5,s8,a7
   1a138:	06100593          	li	a1,97
   1a13c:	fff68c13          	addi	s8,a3,-1
   1a140:	02f12023          	sw	a5,32(sp)
   1a144:	0b812e23          	sw	s8,188(sp)
   1a148:	07000613          	li	a2,112
   1a14c:	00bd8663          	beq	s11,a1,1a158 <_vfprintf_r+0x2b5c>
   1a150:	05000613          	li	a2,80
   1a154:	04100d93          	li	s11,65
   1a158:	0cc10223          	sb	a2,196(sp)
   1a15c:	0c0c4463          	bltz	s8,1a224 <_vfprintf_r+0x2c28>
   1a160:	02b00693          	li	a3,43
   1a164:	0cd102a3          	sb	a3,197(sp)
   1a168:	00900693          	li	a3,9
   1a16c:	0d86d863          	bge	a3,s8,1a23c <_vfprintf_r+0x2c40>
   1a170:	0d310a13          	addi	s4,sp,211
   1a174:	02812e23          	sw	s0,60(sp)
   1a178:	06300993          	li	s3,99
   1a17c:	000c0413          	mv	s0,s8
   1a180:	03c12223          	sw	t3,36(sp)
   1a184:	03712423          	sw	s7,40(sp)
   1a188:	000a0b13          	mv	s6,s4
   1a18c:	00030c13          	mv	s8,t1
   1a190:	00088c93          	mv	s9,a7
   1a194:	00a00593          	li	a1,10
   1a198:	00040513          	mv	a0,s0
   1a19c:	db1fb0ef          	jal	15f4c <__modsi3>
   1a1a0:	03050713          	addi	a4,a0,48
   1a1a4:	000b0d13          	mv	s10,s6
   1a1a8:	00040513          	mv	a0,s0
   1a1ac:	feed0fa3          	sb	a4,-1(s10)
   1a1b0:	00a00593          	li	a1,10
   1a1b4:	00040b93          	mv	s7,s0
   1a1b8:	d11fb0ef          	jal	15ec8 <__divsi3>
   1a1bc:	fffb0b13          	addi	s6,s6,-1
   1a1c0:	00050413          	mv	s0,a0
   1a1c4:	fd79c8e3          	blt	s3,s7,1a194 <_vfprintf_r+0x2b98>
   1a1c8:	03050713          	addi	a4,a0,48
   1a1cc:	feeb0fa3          	sb	a4,-1(s6)
   1a1d0:	ffed0713          	addi	a4,s10,-2
   1a1d4:	02412e03          	lw	t3,36(sp)
   1a1d8:	02812b83          	lw	s7,40(sp)
   1a1dc:	03c12403          	lw	s0,60(sp)
   1a1e0:	000c0313          	mv	t1,s8
   1a1e4:	000c8893          	mv	a7,s9
   1a1e8:	5f477a63          	bgeu	a4,s4,1a7dc <_vfprintf_r+0x31e0>
   1a1ec:	0c610513          	addi	a0,sp,198
   1a1f0:	00050693          	mv	a3,a0
   1a1f4:	00074783          	lbu	a5,0(a4)
   1a1f8:	00170713          	addi	a4,a4,1
   1a1fc:	00168693          	addi	a3,a3,1
   1a200:	fef68fa3          	sb	a5,-1(a3)
   1a204:	ff4718e3          	bne	a4,s4,1a1f4 <_vfprintf_r+0x2bf8>
   1a208:	00a70733          	add	a4,a4,a0
   1a20c:	00270713          	addi	a4,a4,2
   1a210:	41a70733          	sub	a4,a4,s10
   1a214:	0c410693          	addi	a3,sp,196
   1a218:	40d707b3          	sub	a5,a4,a3
   1a21c:	02f12e23          	sw	a5,60(sp)
   1a220:	a91ff06f          	j	19cb0 <_vfprintf_r+0x26b4>
   1a224:	00100713          	li	a4,1
   1a228:	02d00613          	li	a2,45
   1a22c:	40d70c33          	sub	s8,a4,a3
   1a230:	0cc102a3          	sb	a2,197(sp)
   1a234:	00900693          	li	a3,9
   1a238:	f386cce3          	blt	a3,s8,1a170 <_vfprintf_r+0x2b74>
   1a23c:	0c610693          	addi	a3,sp,198
   1a240:	a59ff06f          	j	19c98 <_vfprintf_r+0x269c>
   1a244:	03912023          	sw	s9,32(sp)
   1a248:	00300613          	li	a2,3
   1a24c:	abdff06f          	j	19d08 <_vfprintf_r+0x270c>
   1a250:	02012783          	lw	a5,32(sp)
   1a254:	00a7c583          	lbu	a1,10(a5)
   1a258:	ed5ff06f          	j	1a12c <_vfprintf_r+0x2b30>
   1a25c:	0b714803          	lbu	a6,183(sp)
   1a260:	00080463          	beqz	a6,1a268 <_vfprintf_r+0x2c6c>
   1a264:	ff1fe06f          	j	19254 <_vfprintf_r+0x1c58>
   1a268:	00000c93          	li	s9,0
   1a26c:	be1fe06f          	j	18e4c <_vfprintf_r+0x1850>
   1a270:	01c12783          	lw	a5,28(sp)
   1a274:	00900693          	li	a3,9
   1a278:	00f6f463          	bgeu	a3,a5,1a280 <_vfprintf_r+0x2c84>
   1a27c:	a99fe06f          	j	18d14 <_vfprintf_r+0x1718>
   1a280:	addfe06f          	j	18d5c <_vfprintf_r+0x1760>
   1a284:	01012583          	lw	a1,16(sp)
   1a288:	00c12503          	lw	a0,12(sp)
   1a28c:	0d410613          	addi	a2,sp,212
   1a290:	68c000ef          	jal	1a91c <__sprint_r>
   1a294:	00050463          	beqz	a0,1a29c <_vfprintf_r+0x2ca0>
   1a298:	b28fe06f          	j	185c0 <_vfprintf_r+0xfc4>
   1a29c:	000b4683          	lbu	a3,0(s6)
   1a2a0:	0dc12603          	lw	a2,220(sp)
   1a2a4:	000a8713          	mv	a4,s5
   1a2a8:	00700813          	li	a6,7
   1a2ac:	00dc0c33          	add	s8,s8,a3
   1a2b0:	dd8ff06f          	j	19888 <_vfprintf_r+0x228c>
   1a2b4:	411c07b3          	sub	a5,s8,a7
   1a2b8:	04700613          	li	a2,71
   1a2bc:	02f12023          	sw	a5,32(sp)
   1a2c0:	0bc12983          	lw	s3,188(sp)
   1a2c4:	1ec69663          	bne	a3,a2,1a4b0 <_vfprintf_r+0x2eb4>
   1a2c8:	ffd00713          	li	a4,-3
   1a2cc:	0ce9c663          	blt	s3,a4,1a398 <_vfprintf_r+0x2d9c>
   1a2d0:	033cd663          	bge	s9,s3,1a2fc <_vfprintf_r+0x2d00>
   1a2d4:	ffed8d93          	addi	s11,s11,-2
   1a2d8:	fff98c13          	addi	s8,s3,-1
   1a2dc:	0db10223          	sb	s11,196(sp)
   1a2e0:	0b812e23          	sw	s8,188(sp)
   1a2e4:	980c5ce3          	bgez	s8,19c7c <_vfprintf_r+0x2680>
   1a2e8:	00100713          	li	a4,1
   1a2ec:	02d00693          	li	a3,45
   1a2f0:	41370c33          	sub	s8,a4,s3
   1a2f4:	0cd102a3          	sb	a3,197(sp)
   1a2f8:	995ff06f          	j	19c8c <_vfprintf_r+0x2690>
   1a2fc:	02012783          	lw	a5,32(sp)
   1a300:	1ef9c463          	blt	s3,a5,1a4e8 <_vfprintf_r+0x2eec>
   1a304:	00137713          	andi	a4,t1,1
   1a308:	00098d13          	mv	s10,s3
   1a30c:	00071463          	bnez	a4,1a314 <_vfprintf_r+0x2d18>
   1a310:	f01fe06f          	j	19210 <_vfprintf_r+0x1c14>
   1a314:	02c12783          	lw	a5,44(sp)
   1a318:	00f98d33          	add	s10,s3,a5
   1a31c:	ef5fe06f          	j	19210 <_vfprintf_r+0x1c14>
   1a320:	02d00793          	li	a5,45
   1a324:	0af10ba3          	sb	a5,183(sp)
   1a328:	04700793          	li	a5,71
   1a32c:	2db7de63          	bge	a5,s11,1a608 <_vfprintf_r+0x300c>
   1a330:	000217b7          	lui	a5,0x21
   1a334:	1d878893          	addi	a7,a5,472 # 211d8 <_getpid_r+0xa0>
   1a338:	b6cff06f          	j	196a4 <_vfprintf_r+0x20a8>
   1a33c:	0008c583          	lbu	a1,0(a7)
   1a340:	03000613          	li	a2,48
   1a344:	0ec58263          	beq	a1,a2,1a428 <_vfprintf_r+0x2e2c>
   1a348:	0bc12603          	lw	a2,188(sp)
   1a34c:	09010593          	addi	a1,sp,144
   1a350:	00cc0c33          	add	s8,s8,a2
   1a354:	891ff06f          	j	19be4 <_vfprintf_r+0x25e8>
   1a358:	01012583          	lw	a1,16(sp)
   1a35c:	00c12503          	lw	a0,12(sp)
   1a360:	0d410613          	addi	a2,sp,212
   1a364:	03112c23          	sw	a7,56(sp)
   1a368:	02612423          	sw	t1,40(sp)
   1a36c:	03c12223          	sw	t3,36(sp)
   1a370:	5ac000ef          	jal	1a91c <__sprint_r>
   1a374:	00050463          	beqz	a0,1a37c <_vfprintf_r+0x2d80>
   1a378:	a48fe06f          	j	185c0 <_vfprintf_r+0xfc4>
   1a37c:	0bc12c83          	lw	s9,188(sp)
   1a380:	0dc12603          	lw	a2,220(sp)
   1a384:	03812883          	lw	a7,56(sp)
   1a388:	02812303          	lw	t1,40(sp)
   1a38c:	02412e03          	lw	t3,36(sp)
   1a390:	000a8413          	mv	s0,s5
   1a394:	d94fe06f          	j	18928 <_vfprintf_r+0x132c>
   1a398:	ffed8d93          	addi	s11,s11,-2
   1a39c:	fff98713          	addi	a4,s3,-1
   1a3a0:	0db10223          	sb	s11,196(sp)
   1a3a4:	0ae12e23          	sw	a4,188(sp)
   1a3a8:	02d00693          	li	a3,45
   1a3ac:	00100713          	li	a4,1
   1a3b0:	0cd102a3          	sb	a3,197(sp)
   1a3b4:	41370c33          	sub	s8,a4,s3
   1a3b8:	00900693          	li	a3,9
   1a3bc:	db86cae3          	blt	a3,s8,1a170 <_vfprintf_r+0x2b74>
   1a3c0:	8cdff06f          	j	19c8c <_vfprintf_r+0x2690>
   1a3c4:	01312c23          	sw	s3,24(sp)
   1a3c8:	24070663          	beqz	a4,1a614 <_vfprintf_r+0x3018>
   1a3cc:	001c8c13          	addi	s8,s9,1 # 3ffe0001 <__global_pointer$+0x3ffbd149>
   1a3d0:	000c8d13          	mv	s10,s9
   1a3d4:	02012423          	sw	zero,40(sp)
   1a3d8:	00000c93          	li	s9,0
   1a3dc:	02012223          	sw	zero,36(sp)
   1a3e0:	00000993          	li	s3,0
   1a3e4:	c40fd06f          	j	17824 <_vfprintf_r+0x228>
   1a3e8:	01012583          	lw	a1,16(sp)
   1a3ec:	00c12503          	lw	a0,12(sp)
   1a3f0:	0d410613          	addi	a2,sp,212
   1a3f4:	02612423          	sw	t1,40(sp)
   1a3f8:	03c12223          	sw	t3,36(sp)
   1a3fc:	520000ef          	jal	1a91c <__sprint_r>
   1a400:	00050463          	beqz	a0,1a408 <_vfprintf_r+0x2e0c>
   1a404:	9bcfe06f          	j	185c0 <_vfprintf_r+0xfc4>
   1a408:	0bc12c83          	lw	s9,188(sp)
   1a40c:	02012783          	lw	a5,32(sp)
   1a410:	0dc12603          	lw	a2,220(sp)
   1a414:	02812303          	lw	t1,40(sp)
   1a418:	02412e03          	lw	t3,36(sp)
   1a41c:	000a8413          	mv	s0,s5
   1a420:	41978cb3          	sub	s9,a5,s9
   1a424:	d4cfe06f          	j	18970 <_vfprintf_r+0x1374>
   1a428:	09010593          	addi	a1,sp,144
   1a42c:	000d0513          	mv	a0,s10
   1a430:	07112023          	sw	a7,96(sp)
   1a434:	04d12e23          	sw	a3,92(sp)
   1a438:	04612c23          	sw	t1,88(sp)
   1a43c:	05c12a23          	sw	t3,84(sp)
   1a440:	0a512023          	sw	t0,160(sp)
   1a444:	04512623          	sw	t0,76(sp)
   1a448:	0bf12223          	sw	t6,164(sp)
   1a44c:	05f12423          	sw	t6,72(sp)
   1a450:	0be12423          	sw	t5,168(sp)
   1a454:	05e12223          	sw	t5,68(sp)
   1a458:	0bd12623          	sw	t4,172(sp)
   1a45c:	03d12423          	sw	t4,40(sp)
   1a460:	02b12223          	sw	a1,36(sp)
   1a464:	08012823          	sw	zero,144(sp)
   1a468:	08012a23          	sw	zero,148(sp)
   1a46c:	08012c23          	sw	zero,152(sp)
   1a470:	08012e23          	sw	zero,156(sp)
   1a474:	ac1f80ef          	jal	12f34 <__eqtf2>
   1a478:	02412583          	lw	a1,36(sp)
   1a47c:	02812e83          	lw	t4,40(sp)
   1a480:	04412f03          	lw	t5,68(sp)
   1a484:	04812f83          	lw	t6,72(sp)
   1a488:	04c12283          	lw	t0,76(sp)
   1a48c:	05412e03          	lw	t3,84(sp)
   1a490:	05812303          	lw	t1,88(sp)
   1a494:	05c12683          	lw	a3,92(sp)
   1a498:	06012883          	lw	a7,96(sp)
   1a49c:	2a051a63          	bnez	a0,1a750 <_vfprintf_r+0x3154>
   1a4a0:	0bc12983          	lw	s3,188(sp)
   1a4a4:	013c0733          	add	a4,s8,s3
   1a4a8:	411707b3          	sub	a5,a4,a7
   1a4ac:	02f12023          	sw	a5,32(sp)
   1a4b0:	00137713          	andi	a4,t1,1
   1a4b4:	01976733          	or	a4,a4,s9
   1a4b8:	2f305863          	blez	s3,1a7a8 <_vfprintf_r+0x31ac>
   1a4bc:	22071c63          	bnez	a4,1a6f4 <_vfprintf_r+0x30f8>
   1a4c0:	00098d13          	mv	s10,s3
   1a4c4:	06600d93          	li	s11,102
   1a4c8:	40037313          	andi	t1,t1,1024
   1a4cc:	1a031063          	bnez	t1,1a66c <_vfprintf_r+0x3070>
   1a4d0:	fffd4693          	not	a3,s10
   1a4d4:	41f6d693          	srai	a3,a3,0x1f
   1a4d8:	00dd7c33          	and	s8,s10,a3
   1a4dc:	d55fe06f          	j	19230 <_vfprintf_r+0x1c34>
   1a4e0:	000a0e93          	mv	t4,s4
   1a4e4:	f5cfe06f          	j	18c40 <_vfprintf_r+0x1644>
   1a4e8:	02012783          	lw	a5,32(sp)
   1a4ec:	02c12703          	lw	a4,44(sp)
   1a4f0:	06700d93          	li	s11,103
   1a4f4:	00e78d33          	add	s10,a5,a4
   1a4f8:	fd3048e3          	bgtz	s3,1a4c8 <_vfprintf_r+0x2ecc>
   1a4fc:	413d0eb3          	sub	t4,s10,s3
   1a500:	001e8d13          	addi	s10,t4,1
   1a504:	fffd4693          	not	a3,s10
   1a508:	41f6d693          	srai	a3,a3,0x1f
   1a50c:	00dd7c33          	and	s8,s10,a3
   1a510:	d21fe06f          	j	19230 <_vfprintf_r+0x1c34>
   1a514:	ff000713          	li	a4,-16
   1a518:	40a00cb3          	neg	s9,a0
   1a51c:	2ce55663          	bge	a0,a4,1a7e8 <_vfprintf_r+0x31ec>
   1a520:	00021737          	lui	a4,0x21
   1a524:	58870713          	addi	a4,a4,1416 # 21588 <zeroes.0>
   1a528:	01000d13          	li	s10,16
   1a52c:	00700d93          	li	s11,7
   1a530:	03c12223          	sw	t3,36(sp)
   1a534:	00030a13          	mv	s4,t1
   1a538:	00088b13          	mv	s6,a7
   1a53c:	00070993          	mv	s3,a4
   1a540:	00c0006f          	j	1a54c <_vfprintf_r+0x2f50>
   1a544:	ff0c8c93          	addi	s9,s9,-16
   1a548:	059d5663          	bge	s10,s9,1a594 <_vfprintf_r+0x2f98>
   1a54c:	01060613          	addi	a2,a2,16
   1a550:	00158593          	addi	a1,a1,1
   1a554:	01342023          	sw	s3,0(s0)
   1a558:	01a42223          	sw	s10,4(s0)
   1a55c:	0cc12e23          	sw	a2,220(sp)
   1a560:	0cb12c23          	sw	a1,216(sp)
   1a564:	00840413          	addi	s0,s0,8
   1a568:	fcbddee3          	bge	s11,a1,1a544 <_vfprintf_r+0x2f48>
   1a56c:	01012583          	lw	a1,16(sp)
   1a570:	00c12503          	lw	a0,12(sp)
   1a574:	0d410613          	addi	a2,sp,212
   1a578:	3a4000ef          	jal	1a91c <__sprint_r>
   1a57c:	00050463          	beqz	a0,1a584 <_vfprintf_r+0x2f88>
   1a580:	840fe06f          	j	185c0 <_vfprintf_r+0xfc4>
   1a584:	0dc12603          	lw	a2,220(sp)
   1a588:	0d812583          	lw	a1,216(sp)
   1a58c:	000a8413          	mv	s0,s5
   1a590:	fb5ff06f          	j	1a544 <_vfprintf_r+0x2f48>
   1a594:	02412e03          	lw	t3,36(sp)
   1a598:	000a0313          	mv	t1,s4
   1a59c:	000b0893          	mv	a7,s6
   1a5a0:	00098713          	mv	a4,s3
   1a5a4:	01960633          	add	a2,a2,s9
   1a5a8:	00158593          	addi	a1,a1,1
   1a5ac:	00e42023          	sw	a4,0(s0)
   1a5b0:	0cc12e23          	sw	a2,220(sp)
   1a5b4:	0cb12c23          	sw	a1,216(sp)
   1a5b8:	01942223          	sw	s9,4(s0)
   1a5bc:	00700713          	li	a4,7
   1a5c0:	00b74463          	blt	a4,a1,1a5c8 <_vfprintf_r+0x2fcc>
   1a5c4:	e81fe06f          	j	19444 <_vfprintf_r+0x1e48>
   1a5c8:	01012583          	lw	a1,16(sp)
   1a5cc:	00c12503          	lw	a0,12(sp)
   1a5d0:	0d410613          	addi	a2,sp,212
   1a5d4:	03112c23          	sw	a7,56(sp)
   1a5d8:	02612423          	sw	t1,40(sp)
   1a5dc:	03c12223          	sw	t3,36(sp)
   1a5e0:	33c000ef          	jal	1a91c <__sprint_r>
   1a5e4:	00050463          	beqz	a0,1a5ec <_vfprintf_r+0x2ff0>
   1a5e8:	fd9fd06f          	j	185c0 <_vfprintf_r+0xfc4>
   1a5ec:	0dc12603          	lw	a2,220(sp)
   1a5f0:	0d812583          	lw	a1,216(sp)
   1a5f4:	03812883          	lw	a7,56(sp)
   1a5f8:	02812303          	lw	t1,40(sp)
   1a5fc:	02412e03          	lw	t3,36(sp)
   1a600:	000a8413          	mv	s0,s5
   1a604:	dccfd06f          	j	17bd0 <_vfprintf_r+0x5d4>
   1a608:	000217b7          	lui	a5,0x21
   1a60c:	1d478893          	addi	a7,a5,468 # 211d4 <_getpid_r+0x9c>
   1a610:	894ff06f          	j	196a4 <_vfprintf_r+0x20a8>
   1a614:	000c8d13          	mv	s10,s9
   1a618:	000c8c13          	mv	s8,s9
   1a61c:	02012423          	sw	zero,40(sp)
   1a620:	00000c93          	li	s9,0
   1a624:	02012223          	sw	zero,36(sp)
   1a628:	00000993          	li	s3,0
   1a62c:	9f8fd06f          	j	17824 <_vfprintf_r+0x228>
   1a630:	00e37733          	and	a4,t1,a4
   1a634:	e8070c63          	beqz	a4,19ccc <_vfprintf_r+0x26d0>
   1a638:	e8cff06f          	j	19cc4 <_vfprintf_r+0x26c8>
   1a63c:	00012e23          	sw	zero,28(sp)
   1a640:	00600c93          	li	s9,6
   1a644:	cb0fd06f          	j	17af4 <_vfprintf_r+0x4f8>
   1a648:	000217b7          	lui	a5,0x21
   1a64c:	1dc78893          	addi	a7,a5,476 # 211dc <_getpid_r+0xa4>
   1a650:	854ff06f          	j	196a4 <_vfprintf_r+0x20a8>
   1a654:	000217b7          	lui	a5,0x21
   1a658:	1dc78893          	addi	a7,a5,476 # 211dc <_getpid_r+0xa4>
   1a65c:	d18ff06f          	j	19b74 <_vfprintf_r+0x2578>
   1a660:	01012983          	lw	s3,16(sp)
   1a664:	f71fd06f          	j	185d4 <_vfprintf_r+0xfd8>
   1a668:	06700d93          	li	s11,103
   1a66c:	03012783          	lw	a5,48(sp)
   1a670:	0ff00693          	li	a3,255
   1a674:	0007c703          	lbu	a4,0(a5)
   1a678:	1cd70063          	beq	a4,a3,1a838 <_vfprintf_r+0x323c>
   1a67c:	00000593          	li	a1,0
   1a680:	00000613          	li	a2,0
   1a684:	01375e63          	bge	a4,s3,1a6a0 <_vfprintf_r+0x30a4>
   1a688:	40e989b3          	sub	s3,s3,a4
   1a68c:	0017c703          	lbu	a4,1(a5)
   1a690:	04070c63          	beqz	a4,1a6e8 <_vfprintf_r+0x30ec>
   1a694:	00160613          	addi	a2,a2,1
   1a698:	00178793          	addi	a5,a5,1
   1a69c:	fed714e3          	bne	a4,a3,1a684 <_vfprintf_r+0x3088>
   1a6a0:	02f12823          	sw	a5,48(sp)
   1a6a4:	02c12223          	sw	a2,36(sp)
   1a6a8:	02b12423          	sw	a1,40(sp)
   1a6ac:	02812783          	lw	a5,40(sp)
   1a6b0:	02412703          	lw	a4,36(sp)
   1a6b4:	05012583          	lw	a1,80(sp)
   1a6b8:	05112423          	sw	a7,72(sp)
   1a6bc:	00e78533          	add	a0,a5,a4
   1a6c0:	05c12223          	sw	t3,68(sp)
   1a6c4:	fe0fb0ef          	jal	15ea4 <__mulsi3>
   1a6c8:	01a50d33          	add	s10,a0,s10
   1a6cc:	fffd4693          	not	a3,s10
   1a6d0:	41f6d693          	srai	a3,a3,0x1f
   1a6d4:	04412e03          	lw	t3,68(sp)
   1a6d8:	04812883          	lw	a7,72(sp)
   1a6dc:	000a0313          	mv	t1,s4
   1a6e0:	00dd7c33          	and	s8,s10,a3
   1a6e4:	b59fe06f          	j	1923c <_vfprintf_r+0x1c40>
   1a6e8:	0007c703          	lbu	a4,0(a5)
   1a6ec:	00158593          	addi	a1,a1,1
   1a6f0:	fadff06f          	j	1a69c <_vfprintf_r+0x30a0>
   1a6f4:	02c12783          	lw	a5,44(sp)
   1a6f8:	06600d93          	li	s11,102
   1a6fc:	00fc8eb3          	add	t4,s9,a5
   1a700:	013e8d33          	add	s10,t4,s3
   1a704:	dc5ff06f          	j	1a4c8 <_vfprintf_r+0x2ecc>
   1a708:	02412e03          	lw	t3,36(sp)
   1a70c:	02812b83          	lw	s7,40(sp)
   1a710:	03c12403          	lw	s0,60(sp)
   1a714:	04412d83          	lw	s11,68(sp)
   1a718:	04812303          	lw	t1,72(sp)
   1a71c:	04c12883          	lw	a7,76(sp)
   1a720:	000a0c13          	mv	s8,s4
   1a724:	a00cc6e3          	bltz	s9,1a130 <_vfprintf_r+0x2b34>
   1a728:	001c8613          	addi	a2,s9,1
   1a72c:	00ca0633          	add	a2,s4,a2
   1a730:	000a0693          	mv	a3,s4
   1a734:	03000593          	li	a1,48
   1a738:	00168693          	addi	a3,a3,1
   1a73c:	feb68fa3          	sb	a1,-1(a3)
   1a740:	fed61ce3          	bne	a2,a3,1a738 <_vfprintf_r+0x313c>
   1a744:	019c0fb3          	add	t6,s8,s9
   1a748:	001f8c13          	addi	s8,t6,1
   1a74c:	9e5ff06f          	j	1a130 <_vfprintf_r+0x2b34>
   1a750:	02012783          	lw	a5,32(sp)
   1a754:	00100613          	li	a2,1
   1a758:	40f60633          	sub	a2,a2,a5
   1a75c:	0ac12e23          	sw	a2,188(sp)
   1a760:	00cc0c33          	add	s8,s8,a2
   1a764:	c80ff06f          	j	19be4 <_vfprintf_r+0x25e8>
   1a768:	00021737          	lui	a4,0x21
   1a76c:	1e470793          	addi	a5,a4,484 # 211e4 <_getpid_r+0xac>
   1a770:	02f12023          	sw	a5,32(sp)
   1a774:	f68ff06f          	j	19edc <_vfprintf_r+0x28e0>
   1a778:	00021737          	lui	a4,0x21
   1a77c:	58870713          	addi	a4,a4,1416 # 21588 <zeroes.0>
   1a780:	f24fe06f          	j	18ea4 <_vfprintf_r+0x18a8>
   1a784:	01812783          	lw	a5,24(sp)
   1a788:	0007ac83          	lw	s9,0(a5)
   1a78c:	00478793          	addi	a5,a5,4
   1a790:	000cd463          	bgez	s9,1a798 <_vfprintf_r+0x319c>
   1a794:	fff00c93          	li	s9,-1
   1a798:	0019cd83          	lbu	s11,1(s3)
   1a79c:	00f12c23          	sw	a5,24(sp)
   1a7a0:	00068993          	mv	s3,a3
   1a7a4:	ff5fc06f          	j	17798 <_vfprintf_r+0x19c>
   1a7a8:	00071a63          	bnez	a4,1a7bc <_vfprintf_r+0x31c0>
   1a7ac:	00100c13          	li	s8,1
   1a7b0:	000c0d13          	mv	s10,s8
   1a7b4:	06600d93          	li	s11,102
   1a7b8:	a79fe06f          	j	19230 <_vfprintf_r+0x1c34>
   1a7bc:	02c12783          	lw	a5,44(sp)
   1a7c0:	06600d93          	li	s11,102
   1a7c4:	00178e93          	addi	t4,a5,1
   1a7c8:	019e8d33          	add	s10,t4,s9
   1a7cc:	fffd4693          	not	a3,s10
   1a7d0:	41f6d693          	srai	a3,a3,0x1f
   1a7d4:	00dd7c33          	and	s8,s10,a3
   1a7d8:	a59fe06f          	j	19230 <_vfprintf_r+0x1c34>
   1a7dc:	00200793          	li	a5,2
   1a7e0:	02f12e23          	sw	a5,60(sp)
   1a7e4:	cccff06f          	j	19cb0 <_vfprintf_r+0x26b4>
   1a7e8:	00021737          	lui	a4,0x21
   1a7ec:	58870713          	addi	a4,a4,1416 # 21588 <zeroes.0>
   1a7f0:	db5ff06f          	j	1a5a4 <_vfprintf_r+0x2fa8>
   1a7f4:	01012983          	lw	s3,16(sp)
   1a7f8:	00c9d783          	lhu	a5,12(s3)
   1a7fc:	0407e793          	ori	a5,a5,64
   1a800:	00f99623          	sh	a5,12(s3)
   1a804:	dd1fd06f          	j	185d4 <_vfprintf_r+0xfd8>
   1a808:	00100c13          	li	s8,1
   1a80c:	00f12c23          	sw	a5,24(sp)
   1a810:	000c0d13          	mv	s10,s8
   1a814:	00012e23          	sw	zero,28(sp)
   1a818:	b2dfd06f          	j	18344 <_vfprintf_r+0xd48>
   1a81c:	00000c93          	li	s9,0
   1a820:	02012423          	sw	zero,40(sp)
   1a824:	02012223          	sw	zero,36(sp)
   1a828:	00012e23          	sw	zero,28(sp)
   1a82c:	00300d13          	li	s10,3
   1a830:	00400c13          	li	s8,4
   1a834:	ff1fc06f          	j	17824 <_vfprintf_r+0x228>
   1a838:	02012423          	sw	zero,40(sp)
   1a83c:	02012223          	sw	zero,36(sp)
   1a840:	e6dff06f          	j	1a6ac <_vfprintf_r+0x30b0>
   1a844:	411787b3          	sub	a5,a5,a7
   1a848:	04700713          	li	a4,71
   1a84c:	02f12023          	sw	a5,32(sp)
   1a850:	0bc12983          	lw	s3,188(sp)
   1a854:	c4e69ee3          	bne	a3,a4,1a4b0 <_vfprintf_r+0x2eb4>
   1a858:	a71ff06f          	j	1a2c8 <_vfprintf_r+0x2ccc>

0001a85c <__sbprintf>:
   1a85c:	00c5d783          	lhu	a5,12(a1)
   1a860:	0645ae83          	lw	t4,100(a1)
   1a864:	00e5de03          	lhu	t3,14(a1)
   1a868:	01c5a303          	lw	t1,28(a1)
   1a86c:	0245a883          	lw	a7,36(a1)
   1a870:	b8010113          	addi	sp,sp,-1152
   1a874:	07010813          	addi	a6,sp,112
   1a878:	40000713          	li	a4,1024
   1a87c:	46812c23          	sw	s0,1144(sp)
   1a880:	ffd7f793          	andi	a5,a5,-3
   1a884:	00058413          	mv	s0,a1
   1a888:	00810593          	addi	a1,sp,8
   1a88c:	46912a23          	sw	s1,1140(sp)
   1a890:	47212823          	sw	s2,1136(sp)
   1a894:	46112e23          	sw	ra,1148(sp)
   1a898:	02012023          	sw	zero,32(sp)
   1a89c:	00f11a23          	sh	a5,20(sp)
   1a8a0:	07d12623          	sw	t4,108(sp)
   1a8a4:	01c11b23          	sh	t3,22(sp)
   1a8a8:	02612223          	sw	t1,36(sp)
   1a8ac:	03112623          	sw	a7,44(sp)
   1a8b0:	00050913          	mv	s2,a0
   1a8b4:	01012423          	sw	a6,8(sp)
   1a8b8:	01012c23          	sw	a6,24(sp)
   1a8bc:	00e12823          	sw	a4,16(sp)
   1a8c0:	00e12e23          	sw	a4,28(sp)
   1a8c4:	d39fc0ef          	jal	175fc <_vfprintf_r>
   1a8c8:	00050493          	mv	s1,a0
   1a8cc:	02055c63          	bgez	a0,1a904 <__sbprintf+0xa8>
   1a8d0:	01415783          	lhu	a5,20(sp)
   1a8d4:	0407f793          	andi	a5,a5,64
   1a8d8:	00078863          	beqz	a5,1a8e8 <__sbprintf+0x8c>
   1a8dc:	00c45783          	lhu	a5,12(s0)
   1a8e0:	0407e793          	ori	a5,a5,64
   1a8e4:	00f41623          	sh	a5,12(s0)
   1a8e8:	47c12083          	lw	ra,1148(sp)
   1a8ec:	47812403          	lw	s0,1144(sp)
   1a8f0:	47012903          	lw	s2,1136(sp)
   1a8f4:	00048513          	mv	a0,s1
   1a8f8:	47412483          	lw	s1,1140(sp)
   1a8fc:	48010113          	addi	sp,sp,1152
   1a900:	00008067          	ret
   1a904:	00810593          	addi	a1,sp,8
   1a908:	00090513          	mv	a0,s2
   1a90c:	3bc000ef          	jal	1acc8 <_fflush_r>
   1a910:	fc0500e3          	beqz	a0,1a8d0 <__sbprintf+0x74>
   1a914:	fff00493          	li	s1,-1
   1a918:	fb9ff06f          	j	1a8d0 <__sbprintf+0x74>

0001a91c <__sprint_r>:
   1a91c:	00862783          	lw	a5,8(a2)
   1a920:	ff010113          	addi	sp,sp,-16
   1a924:	00812423          	sw	s0,8(sp)
   1a928:	00112623          	sw	ra,12(sp)
   1a92c:	00060413          	mv	s0,a2
   1a930:	00079e63          	bnez	a5,1a94c <__sprint_r+0x30>
   1a934:	00c12083          	lw	ra,12(sp)
   1a938:	00042223          	sw	zero,4(s0)
   1a93c:	00812403          	lw	s0,8(sp)
   1a940:	00000513          	li	a0,0
   1a944:	01010113          	addi	sp,sp,16
   1a948:	00008067          	ret
   1a94c:	3d8000ef          	jal	1ad24 <__sfvwrite_r>
   1a950:	00c12083          	lw	ra,12(sp)
   1a954:	00042423          	sw	zero,8(s0)
   1a958:	00042223          	sw	zero,4(s0)
   1a95c:	00812403          	lw	s0,8(sp)
   1a960:	01010113          	addi	sp,sp,16
   1a964:	00008067          	ret

0001a968 <_fclose_r>:
   1a968:	ff010113          	addi	sp,sp,-16
   1a96c:	00112623          	sw	ra,12(sp)
   1a970:	01212023          	sw	s2,0(sp)
   1a974:	02058863          	beqz	a1,1a9a4 <_fclose_r+0x3c>
   1a978:	00812423          	sw	s0,8(sp)
   1a97c:	00912223          	sw	s1,4(sp)
   1a980:	00058413          	mv	s0,a1
   1a984:	00050493          	mv	s1,a0
   1a988:	00050663          	beqz	a0,1a994 <_fclose_r+0x2c>
   1a98c:	03452783          	lw	a5,52(a0)
   1a990:	0c078c63          	beqz	a5,1aa68 <_fclose_r+0x100>
   1a994:	00c41783          	lh	a5,12(s0)
   1a998:	02079263          	bnez	a5,1a9bc <_fclose_r+0x54>
   1a99c:	00812403          	lw	s0,8(sp)
   1a9a0:	00412483          	lw	s1,4(sp)
   1a9a4:	00c12083          	lw	ra,12(sp)
   1a9a8:	00000913          	li	s2,0
   1a9ac:	00090513          	mv	a0,s2
   1a9b0:	00012903          	lw	s2,0(sp)
   1a9b4:	01010113          	addi	sp,sp,16
   1a9b8:	00008067          	ret
   1a9bc:	00040593          	mv	a1,s0
   1a9c0:	00048513          	mv	a0,s1
   1a9c4:	0ac000ef          	jal	1aa70 <__sflush_r>
   1a9c8:	02c42783          	lw	a5,44(s0)
   1a9cc:	00050913          	mv	s2,a0
   1a9d0:	00078a63          	beqz	a5,1a9e4 <_fclose_r+0x7c>
   1a9d4:	01c42583          	lw	a1,28(s0)
   1a9d8:	00048513          	mv	a0,s1
   1a9dc:	000780e7          	jalr	a5
   1a9e0:	06054463          	bltz	a0,1aa48 <_fclose_r+0xe0>
   1a9e4:	00c45783          	lhu	a5,12(s0)
   1a9e8:	0807f793          	andi	a5,a5,128
   1a9ec:	06079663          	bnez	a5,1aa58 <_fclose_r+0xf0>
   1a9f0:	03042583          	lw	a1,48(s0)
   1a9f4:	00058c63          	beqz	a1,1aa0c <_fclose_r+0xa4>
   1a9f8:	04040793          	addi	a5,s0,64
   1a9fc:	00f58663          	beq	a1,a5,1aa08 <_fclose_r+0xa0>
   1aa00:	00048513          	mv	a0,s1
   1aa04:	8f8fc0ef          	jal	16afc <_free_r>
   1aa08:	02042823          	sw	zero,48(s0)
   1aa0c:	04442583          	lw	a1,68(s0)
   1aa10:	00058863          	beqz	a1,1aa20 <_fclose_r+0xb8>
   1aa14:	00048513          	mv	a0,s1
   1aa18:	8e4fc0ef          	jal	16afc <_free_r>
   1aa1c:	04042223          	sw	zero,68(s0)
   1aa20:	85dfb0ef          	jal	1627c <__sfp_lock_acquire>
   1aa24:	00041623          	sh	zero,12(s0)
   1aa28:	859fb0ef          	jal	16280 <__sfp_lock_release>
   1aa2c:	00c12083          	lw	ra,12(sp)
   1aa30:	00812403          	lw	s0,8(sp)
   1aa34:	00412483          	lw	s1,4(sp)
   1aa38:	00090513          	mv	a0,s2
   1aa3c:	00012903          	lw	s2,0(sp)
   1aa40:	01010113          	addi	sp,sp,16
   1aa44:	00008067          	ret
   1aa48:	00c45783          	lhu	a5,12(s0)
   1aa4c:	fff00913          	li	s2,-1
   1aa50:	0807f793          	andi	a5,a5,128
   1aa54:	f8078ee3          	beqz	a5,1a9f0 <_fclose_r+0x88>
   1aa58:	01042583          	lw	a1,16(s0)
   1aa5c:	00048513          	mv	a0,s1
   1aa60:	89cfc0ef          	jal	16afc <_free_r>
   1aa64:	f8dff06f          	j	1a9f0 <_fclose_r+0x88>
   1aa68:	ff0fb0ef          	jal	16258 <__sinit>
   1aa6c:	f29ff06f          	j	1a994 <_fclose_r+0x2c>

0001aa70 <__sflush_r>:
   1aa70:	00c59703          	lh	a4,12(a1)
   1aa74:	fe010113          	addi	sp,sp,-32
   1aa78:	00812c23          	sw	s0,24(sp)
   1aa7c:	01312623          	sw	s3,12(sp)
   1aa80:	00112e23          	sw	ra,28(sp)
   1aa84:	00877793          	andi	a5,a4,8
   1aa88:	00058413          	mv	s0,a1
   1aa8c:	00050993          	mv	s3,a0
   1aa90:	12079063          	bnez	a5,1abb0 <__sflush_r+0x140>
   1aa94:	000017b7          	lui	a5,0x1
   1aa98:	80078793          	addi	a5,a5,-2048 # 800 <_start-0xf800>
   1aa9c:	0045a683          	lw	a3,4(a1)
   1aaa0:	00f767b3          	or	a5,a4,a5
   1aaa4:	00f59623          	sh	a5,12(a1)
   1aaa8:	18d05a63          	blez	a3,1ac3c <__sflush_r+0x1cc>
   1aaac:	02842803          	lw	a6,40(s0)
   1aab0:	0e080463          	beqz	a6,1ab98 <__sflush_r+0x128>
   1aab4:	00912a23          	sw	s1,20(sp)
   1aab8:	01371693          	slli	a3,a4,0x13
   1aabc:	0009a483          	lw	s1,0(s3)
   1aac0:	0009a023          	sw	zero,0(s3)
   1aac4:	1806c863          	bltz	a3,1ac54 <__sflush_r+0x1e4>
   1aac8:	01c42583          	lw	a1,28(s0)
   1aacc:	00000613          	li	a2,0
   1aad0:	00100693          	li	a3,1
   1aad4:	00098513          	mv	a0,s3
   1aad8:	000800e7          	jalr	a6
   1aadc:	fff00793          	li	a5,-1
   1aae0:	00050613          	mv	a2,a0
   1aae4:	1af50a63          	beq	a0,a5,1ac98 <__sflush_r+0x228>
   1aae8:	00c41783          	lh	a5,12(s0)
   1aaec:	02842803          	lw	a6,40(s0)
   1aaf0:	0047f793          	andi	a5,a5,4
   1aaf4:	00078e63          	beqz	a5,1ab10 <__sflush_r+0xa0>
   1aaf8:	00442703          	lw	a4,4(s0)
   1aafc:	03042783          	lw	a5,48(s0)
   1ab00:	40e60633          	sub	a2,a2,a4
   1ab04:	00078663          	beqz	a5,1ab10 <__sflush_r+0xa0>
   1ab08:	03c42783          	lw	a5,60(s0)
   1ab0c:	40f60633          	sub	a2,a2,a5
   1ab10:	01c42583          	lw	a1,28(s0)
   1ab14:	00000693          	li	a3,0
   1ab18:	00098513          	mv	a0,s3
   1ab1c:	000800e7          	jalr	a6
   1ab20:	fff00713          	li	a4,-1
   1ab24:	00c41783          	lh	a5,12(s0)
   1ab28:	12e51a63          	bne	a0,a4,1ac5c <__sflush_r+0x1ec>
   1ab2c:	0009a683          	lw	a3,0(s3)
   1ab30:	01d00713          	li	a4,29
   1ab34:	18d76063          	bltu	a4,a3,1acb4 <__sflush_r+0x244>
   1ab38:	20400737          	lui	a4,0x20400
   1ab3c:	00170713          	addi	a4,a4,1 # 20400001 <__global_pointer$+0x203dd149>
   1ab40:	00d75733          	srl	a4,a4,a3
   1ab44:	00177713          	andi	a4,a4,1
   1ab48:	16070663          	beqz	a4,1acb4 <__sflush_r+0x244>
   1ab4c:	01042603          	lw	a2,16(s0)
   1ab50:	fffff737          	lui	a4,0xfffff
   1ab54:	7ff70713          	addi	a4,a4,2047 # fffff7ff <__global_pointer$+0xfffdc947>
   1ab58:	00e7f733          	and	a4,a5,a4
   1ab5c:	00e41623          	sh	a4,12(s0)
   1ab60:	00042223          	sw	zero,4(s0)
   1ab64:	00c42023          	sw	a2,0(s0)
   1ab68:	01379713          	slli	a4,a5,0x13
   1ab6c:	00075463          	bgez	a4,1ab74 <__sflush_r+0x104>
   1ab70:	10068863          	beqz	a3,1ac80 <__sflush_r+0x210>
   1ab74:	03042583          	lw	a1,48(s0)
   1ab78:	0099a023          	sw	s1,0(s3)
   1ab7c:	10058a63          	beqz	a1,1ac90 <__sflush_r+0x220>
   1ab80:	04040793          	addi	a5,s0,64
   1ab84:	00f58663          	beq	a1,a5,1ab90 <__sflush_r+0x120>
   1ab88:	00098513          	mv	a0,s3
   1ab8c:	f71fb0ef          	jal	16afc <_free_r>
   1ab90:	01412483          	lw	s1,20(sp)
   1ab94:	02042823          	sw	zero,48(s0)
   1ab98:	01c12083          	lw	ra,28(sp)
   1ab9c:	01812403          	lw	s0,24(sp)
   1aba0:	00c12983          	lw	s3,12(sp)
   1aba4:	00000513          	li	a0,0
   1aba8:	02010113          	addi	sp,sp,32
   1abac:	00008067          	ret
   1abb0:	01212823          	sw	s2,16(sp)
   1abb4:	0105a903          	lw	s2,16(a1)
   1abb8:	08090a63          	beqz	s2,1ac4c <__sflush_r+0x1dc>
   1abbc:	00912a23          	sw	s1,20(sp)
   1abc0:	0005a483          	lw	s1,0(a1)
   1abc4:	00377713          	andi	a4,a4,3
   1abc8:	0125a023          	sw	s2,0(a1)
   1abcc:	412484b3          	sub	s1,s1,s2
   1abd0:	00000793          	li	a5,0
   1abd4:	00071463          	bnez	a4,1abdc <__sflush_r+0x16c>
   1abd8:	0145a783          	lw	a5,20(a1)
   1abdc:	00f42423          	sw	a5,8(s0)
   1abe0:	00904863          	bgtz	s1,1abf0 <__sflush_r+0x180>
   1abe4:	0640006f          	j	1ac48 <__sflush_r+0x1d8>
   1abe8:	00a90933          	add	s2,s2,a0
   1abec:	04905e63          	blez	s1,1ac48 <__sflush_r+0x1d8>
   1abf0:	02442783          	lw	a5,36(s0)
   1abf4:	01c42583          	lw	a1,28(s0)
   1abf8:	00048693          	mv	a3,s1
   1abfc:	00090613          	mv	a2,s2
   1ac00:	00098513          	mv	a0,s3
   1ac04:	000780e7          	jalr	a5
   1ac08:	40a484b3          	sub	s1,s1,a0
   1ac0c:	fca04ee3          	bgtz	a0,1abe8 <__sflush_r+0x178>
   1ac10:	00c41783          	lh	a5,12(s0)
   1ac14:	01012903          	lw	s2,16(sp)
   1ac18:	0407e793          	ori	a5,a5,64
   1ac1c:	01c12083          	lw	ra,28(sp)
   1ac20:	00f41623          	sh	a5,12(s0)
   1ac24:	01812403          	lw	s0,24(sp)
   1ac28:	01412483          	lw	s1,20(sp)
   1ac2c:	00c12983          	lw	s3,12(sp)
   1ac30:	fff00513          	li	a0,-1
   1ac34:	02010113          	addi	sp,sp,32
   1ac38:	00008067          	ret
   1ac3c:	03c5a683          	lw	a3,60(a1)
   1ac40:	e6d046e3          	bgtz	a3,1aaac <__sflush_r+0x3c>
   1ac44:	f55ff06f          	j	1ab98 <__sflush_r+0x128>
   1ac48:	01412483          	lw	s1,20(sp)
   1ac4c:	01012903          	lw	s2,16(sp)
   1ac50:	f49ff06f          	j	1ab98 <__sflush_r+0x128>
   1ac54:	05042603          	lw	a2,80(s0)
   1ac58:	e99ff06f          	j	1aaf0 <__sflush_r+0x80>
   1ac5c:	01042683          	lw	a3,16(s0)
   1ac60:	fffff737          	lui	a4,0xfffff
   1ac64:	7ff70713          	addi	a4,a4,2047 # fffff7ff <__global_pointer$+0xfffdc947>
   1ac68:	00e7f733          	and	a4,a5,a4
   1ac6c:	00e41623          	sh	a4,12(s0)
   1ac70:	00042223          	sw	zero,4(s0)
   1ac74:	00d42023          	sw	a3,0(s0)
   1ac78:	01379713          	slli	a4,a5,0x13
   1ac7c:	ee075ce3          	bgez	a4,1ab74 <__sflush_r+0x104>
   1ac80:	03042583          	lw	a1,48(s0)
   1ac84:	04a42823          	sw	a0,80(s0)
   1ac88:	0099a023          	sw	s1,0(s3)
   1ac8c:	ee059ae3          	bnez	a1,1ab80 <__sflush_r+0x110>
   1ac90:	01412483          	lw	s1,20(sp)
   1ac94:	f05ff06f          	j	1ab98 <__sflush_r+0x128>
   1ac98:	0009a783          	lw	a5,0(s3)
   1ac9c:	e40786e3          	beqz	a5,1aae8 <__sflush_r+0x78>
   1aca0:	01d00713          	li	a4,29
   1aca4:	00e78c63          	beq	a5,a4,1acbc <__sflush_r+0x24c>
   1aca8:	01600713          	li	a4,22
   1acac:	00e78863          	beq	a5,a4,1acbc <__sflush_r+0x24c>
   1acb0:	00c41783          	lh	a5,12(s0)
   1acb4:	0407e793          	ori	a5,a5,64
   1acb8:	f65ff06f          	j	1ac1c <__sflush_r+0x1ac>
   1acbc:	0099a023          	sw	s1,0(s3)
   1acc0:	01412483          	lw	s1,20(sp)
   1acc4:	ed5ff06f          	j	1ab98 <__sflush_r+0x128>

0001acc8 <_fflush_r>:
   1acc8:	fe010113          	addi	sp,sp,-32
   1accc:	00812c23          	sw	s0,24(sp)
   1acd0:	00112e23          	sw	ra,28(sp)
   1acd4:	00050413          	mv	s0,a0
   1acd8:	00050663          	beqz	a0,1ace4 <_fflush_r+0x1c>
   1acdc:	03452783          	lw	a5,52(a0)
   1ace0:	02078a63          	beqz	a5,1ad14 <_fflush_r+0x4c>
   1ace4:	00c59783          	lh	a5,12(a1)
   1ace8:	00079c63          	bnez	a5,1ad00 <_fflush_r+0x38>
   1acec:	01c12083          	lw	ra,28(sp)
   1acf0:	01812403          	lw	s0,24(sp)
   1acf4:	00000513          	li	a0,0
   1acf8:	02010113          	addi	sp,sp,32
   1acfc:	00008067          	ret
   1ad00:	00040513          	mv	a0,s0
   1ad04:	01812403          	lw	s0,24(sp)
   1ad08:	01c12083          	lw	ra,28(sp)
   1ad0c:	02010113          	addi	sp,sp,32
   1ad10:	d61ff06f          	j	1aa70 <__sflush_r>
   1ad14:	00b12623          	sw	a1,12(sp)
   1ad18:	d40fb0ef          	jal	16258 <__sinit>
   1ad1c:	00c12583          	lw	a1,12(sp)
   1ad20:	fc5ff06f          	j	1ace4 <_fflush_r+0x1c>

0001ad24 <__sfvwrite_r>:
   1ad24:	00862783          	lw	a5,8(a2)
   1ad28:	24078263          	beqz	a5,1af6c <__sfvwrite_r+0x248>
   1ad2c:	00c59703          	lh	a4,12(a1)
   1ad30:	fd010113          	addi	sp,sp,-48
   1ad34:	02812423          	sw	s0,40(sp)
   1ad38:	01412c23          	sw	s4,24(sp)
   1ad3c:	01512a23          	sw	s5,20(sp)
   1ad40:	02112623          	sw	ra,44(sp)
   1ad44:	00877793          	andi	a5,a4,8
   1ad48:	00060a13          	mv	s4,a2
   1ad4c:	00050a93          	mv	s5,a0
   1ad50:	00058413          	mv	s0,a1
   1ad54:	0a078463          	beqz	a5,1adfc <__sfvwrite_r+0xd8>
   1ad58:	0105a783          	lw	a5,16(a1)
   1ad5c:	0a078063          	beqz	a5,1adfc <__sfvwrite_r+0xd8>
   1ad60:	02912223          	sw	s1,36(sp)
   1ad64:	03212023          	sw	s2,32(sp)
   1ad68:	01312e23          	sw	s3,28(sp)
   1ad6c:	01612823          	sw	s6,16(sp)
   1ad70:	00277793          	andi	a5,a4,2
   1ad74:	000a2483          	lw	s1,0(s4)
   1ad78:	0a078a63          	beqz	a5,1ae2c <__sfvwrite_r+0x108>
   1ad7c:	80000b37          	lui	s6,0x80000
   1ad80:	c00b0b13          	addi	s6,s6,-1024 # 7ffffc00 <__global_pointer$+0x7ffdcd48>
   1ad84:	00000993          	li	s3,0
   1ad88:	00000913          	li	s2,0
   1ad8c:	00098613          	mv	a2,s3
   1ad90:	000a8513          	mv	a0,s5
   1ad94:	1c090463          	beqz	s2,1af5c <__sfvwrite_r+0x238>
   1ad98:	800007b7          	lui	a5,0x80000
   1ad9c:	00090693          	mv	a3,s2
   1ada0:	012b7463          	bgeu	s6,s2,1ada8 <__sfvwrite_r+0x84>
   1ada4:	c0078693          	addi	a3,a5,-1024 # 7ffffc00 <__global_pointer$+0x7ffdcd48>
   1ada8:	02442783          	lw	a5,36(s0)
   1adac:	01c42583          	lw	a1,28(s0)
   1adb0:	000780e7          	jalr	a5
   1adb4:	42a05a63          	blez	a0,1b1e8 <__sfvwrite_r+0x4c4>
   1adb8:	008a2783          	lw	a5,8(s4)
   1adbc:	00a989b3          	add	s3,s3,a0
   1adc0:	40a90933          	sub	s2,s2,a0
   1adc4:	40a787b3          	sub	a5,a5,a0
   1adc8:	00fa2423          	sw	a5,8(s4)
   1adcc:	fc0790e3          	bnez	a5,1ad8c <__sfvwrite_r+0x68>
   1add0:	02412483          	lw	s1,36(sp)
   1add4:	02012903          	lw	s2,32(sp)
   1add8:	01c12983          	lw	s3,28(sp)
   1addc:	01012b03          	lw	s6,16(sp)
   1ade0:	00000513          	li	a0,0
   1ade4:	02c12083          	lw	ra,44(sp)
   1ade8:	02812403          	lw	s0,40(sp)
   1adec:	01812a03          	lw	s4,24(sp)
   1adf0:	01412a83          	lw	s5,20(sp)
   1adf4:	03010113          	addi	sp,sp,48
   1adf8:	00008067          	ret
   1adfc:	00040593          	mv	a1,s0
   1ae00:	000a8513          	mv	a0,s5
   1ae04:	408000ef          	jal	1b20c <__swsetup_r>
   1ae08:	28051063          	bnez	a0,1b088 <__sfvwrite_r+0x364>
   1ae0c:	00c41703          	lh	a4,12(s0)
   1ae10:	02912223          	sw	s1,36(sp)
   1ae14:	03212023          	sw	s2,32(sp)
   1ae18:	01312e23          	sw	s3,28(sp)
   1ae1c:	01612823          	sw	s6,16(sp)
   1ae20:	00277793          	andi	a5,a4,2
   1ae24:	000a2483          	lw	s1,0(s4)
   1ae28:	f4079ae3          	bnez	a5,1ad7c <__sfvwrite_r+0x58>
   1ae2c:	01712623          	sw	s7,12(sp)
   1ae30:	01812423          	sw	s8,8(sp)
   1ae34:	00177793          	andi	a5,a4,1
   1ae38:	12079e63          	bnez	a5,1af74 <__sfvwrite_r+0x250>
   1ae3c:	80000bb7          	lui	s7,0x80000
   1ae40:	01912223          	sw	s9,4(sp)
   1ae44:	fffb8b93          	addi	s7,s7,-1 # 7fffffff <__global_pointer$+0x7ffdd147>
   1ae48:	00000b13          	li	s6,0
   1ae4c:	00000913          	li	s2,0
   1ae50:	0e090e63          	beqz	s2,1af4c <__sfvwrite_r+0x228>
   1ae54:	20077793          	andi	a5,a4,512
   1ae58:	00042503          	lw	a0,0(s0)
   1ae5c:	00842c03          	lw	s8,8(s0)
   1ae60:	22078863          	beqz	a5,1b090 <__sfvwrite_r+0x36c>
   1ae64:	000c0c93          	mv	s9,s8
   1ae68:	2f896663          	bltu	s2,s8,1b154 <__sfvwrite_r+0x430>
   1ae6c:	48077793          	andi	a5,a4,1152
   1ae70:	08078a63          	beqz	a5,1af04 <__sfvwrite_r+0x1e0>
   1ae74:	01442683          	lw	a3,20(s0)
   1ae78:	01042583          	lw	a1,16(s0)
   1ae7c:	00169793          	slli	a5,a3,0x1
   1ae80:	00d787b3          	add	a5,a5,a3
   1ae84:	01f7d993          	srli	s3,a5,0x1f
   1ae88:	40b50c33          	sub	s8,a0,a1
   1ae8c:	00f989b3          	add	s3,s3,a5
   1ae90:	001c0793          	addi	a5,s8,1
   1ae94:	4019d993          	srai	s3,s3,0x1
   1ae98:	012787b3          	add	a5,a5,s2
   1ae9c:	00098613          	mv	a2,s3
   1aea0:	00f9f663          	bgeu	s3,a5,1aeac <__sfvwrite_r+0x188>
   1aea4:	00078993          	mv	s3,a5
   1aea8:	00078613          	mv	a2,a5
   1aeac:	40077713          	andi	a4,a4,1024
   1aeb0:	2e070863          	beqz	a4,1b1a0 <__sfvwrite_r+0x47c>
   1aeb4:	00060593          	mv	a1,a2
   1aeb8:	000a8513          	mv	a0,s5
   1aebc:	f31fb0ef          	jal	16dec <_malloc_r>
   1aec0:	00050c93          	mv	s9,a0
   1aec4:	32050663          	beqz	a0,1b1f0 <__sfvwrite_r+0x4cc>
   1aec8:	01042583          	lw	a1,16(s0)
   1aecc:	000c0613          	mv	a2,s8
   1aed0:	03d000ef          	jal	1b70c <memcpy>
   1aed4:	00c45783          	lhu	a5,12(s0)
   1aed8:	b7f7f793          	andi	a5,a5,-1153
   1aedc:	0807e793          	ori	a5,a5,128
   1aee0:	00f41623          	sh	a5,12(s0)
   1aee4:	018c8533          	add	a0,s9,s8
   1aee8:	41898c33          	sub	s8,s3,s8
   1aeec:	01942823          	sw	s9,16(s0)
   1aef0:	01842423          	sw	s8,8(s0)
   1aef4:	00a42023          	sw	a0,0(s0)
   1aef8:	01342a23          	sw	s3,20(s0)
   1aefc:	00090c13          	mv	s8,s2
   1af00:	00090c93          	mv	s9,s2
   1af04:	000b0593          	mv	a1,s6
   1af08:	000c8613          	mv	a2,s9
   1af0c:	6d8000ef          	jal	1b5e4 <memmove>
   1af10:	00042783          	lw	a5,0(s0)
   1af14:	00842703          	lw	a4,8(s0)
   1af18:	00090993          	mv	s3,s2
   1af1c:	019787b3          	add	a5,a5,s9
   1af20:	00f42023          	sw	a5,0(s0)
   1af24:	008a2783          	lw	a5,8(s4)
   1af28:	41870733          	sub	a4,a4,s8
   1af2c:	00e42423          	sw	a4,8(s0)
   1af30:	413787b3          	sub	a5,a5,s3
   1af34:	00fa2423          	sw	a5,8(s4)
   1af38:	00000913          	li	s2,0
   1af3c:	013b0b33          	add	s6,s6,s3
   1af40:	1a078663          	beqz	a5,1b0ec <__sfvwrite_r+0x3c8>
   1af44:	00c41703          	lh	a4,12(s0)
   1af48:	f00916e3          	bnez	s2,1ae54 <__sfvwrite_r+0x130>
   1af4c:	0004ab03          	lw	s6,0(s1)
   1af50:	0044a903          	lw	s2,4(s1)
   1af54:	00848493          	addi	s1,s1,8
   1af58:	ef9ff06f          	j	1ae50 <__sfvwrite_r+0x12c>
   1af5c:	0004a983          	lw	s3,0(s1)
   1af60:	0044a903          	lw	s2,4(s1)
   1af64:	00848493          	addi	s1,s1,8
   1af68:	e25ff06f          	j	1ad8c <__sfvwrite_r+0x68>
   1af6c:	00000513          	li	a0,0
   1af70:	00008067          	ret
   1af74:	00000b13          	li	s6,0
   1af78:	00000513          	li	a0,0
   1af7c:	00000c13          	li	s8,0
   1af80:	00000993          	li	s3,0
   1af84:	08098263          	beqz	s3,1b008 <__sfvwrite_r+0x2e4>
   1af88:	08050a63          	beqz	a0,1b01c <__sfvwrite_r+0x2f8>
   1af8c:	000b0793          	mv	a5,s6
   1af90:	00098b93          	mv	s7,s3
   1af94:	0137f463          	bgeu	a5,s3,1af9c <__sfvwrite_r+0x278>
   1af98:	00078b93          	mv	s7,a5
   1af9c:	00042503          	lw	a0,0(s0)
   1afa0:	01042783          	lw	a5,16(s0)
   1afa4:	01442683          	lw	a3,20(s0)
   1afa8:	00a7f863          	bgeu	a5,a0,1afb8 <__sfvwrite_r+0x294>
   1afac:	00842903          	lw	s2,8(s0)
   1afb0:	01268933          	add	s2,a3,s2
   1afb4:	09794463          	blt	s2,s7,1b03c <__sfvwrite_r+0x318>
   1afb8:	1adbce63          	blt	s7,a3,1b174 <__sfvwrite_r+0x450>
   1afbc:	02442783          	lw	a5,36(s0)
   1afc0:	01c42583          	lw	a1,28(s0)
   1afc4:	000c0613          	mv	a2,s8
   1afc8:	000a8513          	mv	a0,s5
   1afcc:	000780e7          	jalr	a5
   1afd0:	00050913          	mv	s2,a0
   1afd4:	08a05863          	blez	a0,1b064 <__sfvwrite_r+0x340>
   1afd8:	412b0b33          	sub	s6,s6,s2
   1afdc:	00100513          	li	a0,1
   1afe0:	180b0063          	beqz	s6,1b160 <__sfvwrite_r+0x43c>
   1afe4:	008a2783          	lw	a5,8(s4)
   1afe8:	012c0c33          	add	s8,s8,s2
   1afec:	412989b3          	sub	s3,s3,s2
   1aff0:	412787b3          	sub	a5,a5,s2
   1aff4:	00fa2423          	sw	a5,8(s4)
   1aff8:	f80796e3          	bnez	a5,1af84 <__sfvwrite_r+0x260>
   1affc:	00c12b83          	lw	s7,12(sp)
   1b000:	00812c03          	lw	s8,8(sp)
   1b004:	dcdff06f          	j	1add0 <__sfvwrite_r+0xac>
   1b008:	0044a983          	lw	s3,4(s1)
   1b00c:	00048793          	mv	a5,s1
   1b010:	00848493          	addi	s1,s1,8
   1b014:	fe098ae3          	beqz	s3,1b008 <__sfvwrite_r+0x2e4>
   1b018:	0007ac03          	lw	s8,0(a5)
   1b01c:	00098613          	mv	a2,s3
   1b020:	00a00593          	li	a1,10
   1b024:	000c0513          	mv	a0,s8
   1b028:	388000ef          	jal	1b3b0 <memchr>
   1b02c:	1a050863          	beqz	a0,1b1dc <__sfvwrite_r+0x4b8>
   1b030:	00150513          	addi	a0,a0,1
   1b034:	41850b33          	sub	s6,a0,s8
   1b038:	f55ff06f          	j	1af8c <__sfvwrite_r+0x268>
   1b03c:	000c0593          	mv	a1,s8
   1b040:	00090613          	mv	a2,s2
   1b044:	5a0000ef          	jal	1b5e4 <memmove>
   1b048:	00042783          	lw	a5,0(s0)
   1b04c:	00040593          	mv	a1,s0
   1b050:	000a8513          	mv	a0,s5
   1b054:	012787b3          	add	a5,a5,s2
   1b058:	00f42023          	sw	a5,0(s0)
   1b05c:	c6dff0ef          	jal	1acc8 <_fflush_r>
   1b060:	f6050ce3          	beqz	a0,1afd8 <__sfvwrite_r+0x2b4>
   1b064:	00c41783          	lh	a5,12(s0)
   1b068:	00c12b83          	lw	s7,12(sp)
   1b06c:	00812c03          	lw	s8,8(sp)
   1b070:	02412483          	lw	s1,36(sp)
   1b074:	02012903          	lw	s2,32(sp)
   1b078:	01c12983          	lw	s3,28(sp)
   1b07c:	01012b03          	lw	s6,16(sp)
   1b080:	0407e793          	ori	a5,a5,64
   1b084:	00f41623          	sh	a5,12(s0)
   1b088:	fff00513          	li	a0,-1
   1b08c:	d59ff06f          	j	1ade4 <__sfvwrite_r+0xc0>
   1b090:	01042783          	lw	a5,16(s0)
   1b094:	06a7e463          	bltu	a5,a0,1b0fc <__sfvwrite_r+0x3d8>
   1b098:	01442583          	lw	a1,20(s0)
   1b09c:	06b96063          	bltu	s2,a1,1b0fc <__sfvwrite_r+0x3d8>
   1b0a0:	00090993          	mv	s3,s2
   1b0a4:	012bf463          	bgeu	s7,s2,1b0ac <__sfvwrite_r+0x388>
   1b0a8:	000b8993          	mv	s3,s7
   1b0ac:	00098513          	mv	a0,s3
   1b0b0:	e9dfa0ef          	jal	15f4c <__modsi3>
   1b0b4:	02442783          	lw	a5,36(s0)
   1b0b8:	01c42583          	lw	a1,28(s0)
   1b0bc:	40a986b3          	sub	a3,s3,a0
   1b0c0:	000b0613          	mv	a2,s6
   1b0c4:	000a8513          	mv	a0,s5
   1b0c8:	000780e7          	jalr	a5
   1b0cc:	00050993          	mv	s3,a0
   1b0d0:	06a05863          	blez	a0,1b140 <__sfvwrite_r+0x41c>
   1b0d4:	008a2783          	lw	a5,8(s4)
   1b0d8:	41390933          	sub	s2,s2,s3
   1b0dc:	013b0b33          	add	s6,s6,s3
   1b0e0:	413787b3          	sub	a5,a5,s3
   1b0e4:	00fa2423          	sw	a5,8(s4)
   1b0e8:	e4079ee3          	bnez	a5,1af44 <__sfvwrite_r+0x220>
   1b0ec:	00c12b83          	lw	s7,12(sp)
   1b0f0:	00812c03          	lw	s8,8(sp)
   1b0f4:	00412c83          	lw	s9,4(sp)
   1b0f8:	cd9ff06f          	j	1add0 <__sfvwrite_r+0xac>
   1b0fc:	000c0993          	mv	s3,s8
   1b100:	01897463          	bgeu	s2,s8,1b108 <__sfvwrite_r+0x3e4>
   1b104:	00090993          	mv	s3,s2
   1b108:	00098613          	mv	a2,s3
   1b10c:	000b0593          	mv	a1,s6
   1b110:	4d4000ef          	jal	1b5e4 <memmove>
   1b114:	00042703          	lw	a4,0(s0)
   1b118:	00842783          	lw	a5,8(s0)
   1b11c:	01370733          	add	a4,a4,s3
   1b120:	413787b3          	sub	a5,a5,s3
   1b124:	00e42023          	sw	a4,0(s0)
   1b128:	00f42423          	sw	a5,8(s0)
   1b12c:	fa0794e3          	bnez	a5,1b0d4 <__sfvwrite_r+0x3b0>
   1b130:	00040593          	mv	a1,s0
   1b134:	000a8513          	mv	a0,s5
   1b138:	b91ff0ef          	jal	1acc8 <_fflush_r>
   1b13c:	f8050ce3          	beqz	a0,1b0d4 <__sfvwrite_r+0x3b0>
   1b140:	00c41783          	lh	a5,12(s0)
   1b144:	00c12b83          	lw	s7,12(sp)
   1b148:	00812c03          	lw	s8,8(sp)
   1b14c:	00412c83          	lw	s9,4(sp)
   1b150:	f21ff06f          	j	1b070 <__sfvwrite_r+0x34c>
   1b154:	00090c13          	mv	s8,s2
   1b158:	00090c93          	mv	s9,s2
   1b15c:	da9ff06f          	j	1af04 <__sfvwrite_r+0x1e0>
   1b160:	00040593          	mv	a1,s0
   1b164:	000a8513          	mv	a0,s5
   1b168:	b61ff0ef          	jal	1acc8 <_fflush_r>
   1b16c:	e6050ce3          	beqz	a0,1afe4 <__sfvwrite_r+0x2c0>
   1b170:	ef5ff06f          	j	1b064 <__sfvwrite_r+0x340>
   1b174:	000b8613          	mv	a2,s7
   1b178:	000c0593          	mv	a1,s8
   1b17c:	468000ef          	jal	1b5e4 <memmove>
   1b180:	00842703          	lw	a4,8(s0)
   1b184:	00042783          	lw	a5,0(s0)
   1b188:	000b8913          	mv	s2,s7
   1b18c:	41770733          	sub	a4,a4,s7
   1b190:	017787b3          	add	a5,a5,s7
   1b194:	00e42423          	sw	a4,8(s0)
   1b198:	00f42023          	sw	a5,0(s0)
   1b19c:	e3dff06f          	j	1afd8 <__sfvwrite_r+0x2b4>
   1b1a0:	000a8513          	mv	a0,s5
   1b1a4:	655030ef          	jal	1eff8 <_realloc_r>
   1b1a8:	00050c93          	mv	s9,a0
   1b1ac:	d2051ce3          	bnez	a0,1aee4 <__sfvwrite_r+0x1c0>
   1b1b0:	01042583          	lw	a1,16(s0)
   1b1b4:	000a8513          	mv	a0,s5
   1b1b8:	945fb0ef          	jal	16afc <_free_r>
   1b1bc:	00c41783          	lh	a5,12(s0)
   1b1c0:	00c00713          	li	a4,12
   1b1c4:	00c12b83          	lw	s7,12(sp)
   1b1c8:	00812c03          	lw	s8,8(sp)
   1b1cc:	00412c83          	lw	s9,4(sp)
   1b1d0:	00eaa023          	sw	a4,0(s5)
   1b1d4:	f7f7f793          	andi	a5,a5,-129
   1b1d8:	e99ff06f          	j	1b070 <__sfvwrite_r+0x34c>
   1b1dc:	00198793          	addi	a5,s3,1
   1b1e0:	00078b13          	mv	s6,a5
   1b1e4:	dadff06f          	j	1af90 <__sfvwrite_r+0x26c>
   1b1e8:	00c41783          	lh	a5,12(s0)
   1b1ec:	e85ff06f          	j	1b070 <__sfvwrite_r+0x34c>
   1b1f0:	00c00793          	li	a5,12
   1b1f4:	00faa023          	sw	a5,0(s5)
   1b1f8:	00c12b83          	lw	s7,12(sp)
   1b1fc:	00c41783          	lh	a5,12(s0)
   1b200:	00812c03          	lw	s8,8(sp)
   1b204:	00412c83          	lw	s9,4(sp)
   1b208:	e69ff06f          	j	1b070 <__sfvwrite_r+0x34c>

0001b20c <__swsetup_r>:
   1b20c:	8601a783          	lw	a5,-1952(gp) # 22718 <_impure_ptr>
   1b210:	ff010113          	addi	sp,sp,-16
   1b214:	00812423          	sw	s0,8(sp)
   1b218:	00912223          	sw	s1,4(sp)
   1b21c:	00112623          	sw	ra,12(sp)
   1b220:	00050493          	mv	s1,a0
   1b224:	00058413          	mv	s0,a1
   1b228:	00078663          	beqz	a5,1b234 <__swsetup_r+0x28>
   1b22c:	0347a703          	lw	a4,52(a5)
   1b230:	12070463          	beqz	a4,1b358 <__swsetup_r+0x14c>
   1b234:	00c41783          	lh	a5,12(s0)
   1b238:	0087f713          	andi	a4,a5,8
   1b23c:	02070e63          	beqz	a4,1b278 <__swsetup_r+0x6c>
   1b240:	01042703          	lw	a4,16(s0)
   1b244:	04070a63          	beqz	a4,1b298 <__swsetup_r+0x8c>
   1b248:	0017f713          	andi	a4,a5,1
   1b24c:	08070463          	beqz	a4,1b2d4 <__swsetup_r+0xc8>
   1b250:	01442783          	lw	a5,20(s0)
   1b254:	00042423          	sw	zero,8(s0)
   1b258:	40f007b3          	neg	a5,a5
   1b25c:	00f42c23          	sw	a5,24(s0)
   1b260:	00000513          	li	a0,0
   1b264:	00c12083          	lw	ra,12(sp)
   1b268:	00812403          	lw	s0,8(sp)
   1b26c:	00412483          	lw	s1,4(sp)
   1b270:	01010113          	addi	sp,sp,16
   1b274:	00008067          	ret
   1b278:	0107f713          	andi	a4,a5,16
   1b27c:	10070e63          	beqz	a4,1b398 <__swsetup_r+0x18c>
   1b280:	0047f713          	andi	a4,a5,4
   1b284:	06071263          	bnez	a4,1b2e8 <__swsetup_r+0xdc>
   1b288:	01042703          	lw	a4,16(s0)
   1b28c:	0087e793          	ori	a5,a5,8
   1b290:	00f41623          	sh	a5,12(s0)
   1b294:	fa071ae3          	bnez	a4,1b248 <__swsetup_r+0x3c>
   1b298:	2807f693          	andi	a3,a5,640
   1b29c:	20000613          	li	a2,512
   1b2a0:	08c69263          	bne	a3,a2,1b324 <__swsetup_r+0x118>
   1b2a4:	0017f693          	andi	a3,a5,1
   1b2a8:	0a068e63          	beqz	a3,1b364 <__swsetup_r+0x158>
   1b2ac:	01442703          	lw	a4,20(s0)
   1b2b0:	00042423          	sw	zero,8(s0)
   1b2b4:	40e00733          	neg	a4,a4
   1b2b8:	00e42c23          	sw	a4,24(s0)
   1b2bc:	0807f713          	andi	a4,a5,128
   1b2c0:	fa0700e3          	beqz	a4,1b260 <__swsetup_r+0x54>
   1b2c4:	0407e793          	ori	a5,a5,64
   1b2c8:	00f41623          	sh	a5,12(s0)
   1b2cc:	fff00513          	li	a0,-1
   1b2d0:	f95ff06f          	j	1b264 <__swsetup_r+0x58>
   1b2d4:	0027f793          	andi	a5,a5,2
   1b2d8:	04079263          	bnez	a5,1b31c <__swsetup_r+0x110>
   1b2dc:	01442783          	lw	a5,20(s0)
   1b2e0:	00f42423          	sw	a5,8(s0)
   1b2e4:	f7dff06f          	j	1b260 <__swsetup_r+0x54>
   1b2e8:	03042583          	lw	a1,48(s0)
   1b2ec:	00058e63          	beqz	a1,1b308 <__swsetup_r+0xfc>
   1b2f0:	04040713          	addi	a4,s0,64
   1b2f4:	00e58863          	beq	a1,a4,1b304 <__swsetup_r+0xf8>
   1b2f8:	00048513          	mv	a0,s1
   1b2fc:	801fb0ef          	jal	16afc <_free_r>
   1b300:	00c41783          	lh	a5,12(s0)
   1b304:	02042823          	sw	zero,48(s0)
   1b308:	01042703          	lw	a4,16(s0)
   1b30c:	fdb7f793          	andi	a5,a5,-37
   1b310:	00042223          	sw	zero,4(s0)
   1b314:	00e42023          	sw	a4,0(s0)
   1b318:	f75ff06f          	j	1b28c <__swsetup_r+0x80>
   1b31c:	00042423          	sw	zero,8(s0)
   1b320:	f41ff06f          	j	1b260 <__swsetup_r+0x54>
   1b324:	00048513          	mv	a0,s1
   1b328:	00040593          	mv	a1,s0
   1b32c:	288040ef          	jal	1f5b4 <__smakebuf_r>
   1b330:	00c41783          	lh	a5,12(s0)
   1b334:	01042703          	lw	a4,16(s0)
   1b338:	0017f693          	andi	a3,a5,1
   1b33c:	04068063          	beqz	a3,1b37c <__swsetup_r+0x170>
   1b340:	01442683          	lw	a3,20(s0)
   1b344:	00042423          	sw	zero,8(s0)
   1b348:	40d006b3          	neg	a3,a3
   1b34c:	00d42c23          	sw	a3,24(s0)
   1b350:	f60706e3          	beqz	a4,1b2bc <__swsetup_r+0xb0>
   1b354:	f0dff06f          	j	1b260 <__swsetup_r+0x54>
   1b358:	00078513          	mv	a0,a5
   1b35c:	efdfa0ef          	jal	16258 <__sinit>
   1b360:	ed5ff06f          	j	1b234 <__swsetup_r+0x28>
   1b364:	0027f693          	andi	a3,a5,2
   1b368:	02069463          	bnez	a3,1b390 <__swsetup_r+0x184>
   1b36c:	01442603          	lw	a2,20(s0)
   1b370:	00c42423          	sw	a2,8(s0)
   1b374:	f40704e3          	beqz	a4,1b2bc <__swsetup_r+0xb0>
   1b378:	ee9ff06f          	j	1b260 <__swsetup_r+0x54>
   1b37c:	0027f693          	andi	a3,a5,2
   1b380:	00000613          	li	a2,0
   1b384:	fe0696e3          	bnez	a3,1b370 <__swsetup_r+0x164>
   1b388:	01442603          	lw	a2,20(s0)
   1b38c:	fe5ff06f          	j	1b370 <__swsetup_r+0x164>
   1b390:	00042423          	sw	zero,8(s0)
   1b394:	f29ff06f          	j	1b2bc <__swsetup_r+0xb0>
   1b398:	00900713          	li	a4,9
   1b39c:	0407e793          	ori	a5,a5,64
   1b3a0:	00e4a023          	sw	a4,0(s1)
   1b3a4:	00f41623          	sh	a5,12(s0)
   1b3a8:	fff00513          	li	a0,-1
   1b3ac:	eb9ff06f          	j	1b264 <__swsetup_r+0x58>

0001b3b0 <memchr>:
   1b3b0:	00357713          	andi	a4,a0,3
   1b3b4:	00050793          	mv	a5,a0
   1b3b8:	0ff5f813          	zext.b	a6,a1
   1b3bc:	00050313          	mv	t1,a0
   1b3c0:	02070e63          	beqz	a4,1b3fc <memchr+0x4c>
   1b3c4:	00c508b3          	add	a7,a0,a2
   1b3c8:	0140006f          	j	1b3dc <memchr+0x2c>
   1b3cc:	0007c683          	lbu	a3,0(a5)
   1b3d0:	0b068263          	beq	a3,a6,1b474 <memchr+0xc4>
   1b3d4:	00070e63          	beqz	a4,1b3f0 <memchr+0x40>
   1b3d8:	00050793          	mv	a5,a0
   1b3dc:	00178513          	addi	a0,a5,1
   1b3e0:	00357713          	andi	a4,a0,3
   1b3e4:	fef894e3          	bne	a7,a5,1b3cc <memchr+0x1c>
   1b3e8:	00000513          	li	a0,0
   1b3ec:	00008067          	ret
   1b3f0:	fff60613          	addi	a2,a2,-1
   1b3f4:	00660633          	add	a2,a2,t1
   1b3f8:	40f60633          	sub	a2,a2,a5
   1b3fc:	00300793          	li	a5,3
   1b400:	04c7fa63          	bgeu	a5,a2,1b454 <memchr+0xa4>
   1b404:	0ff5f593          	zext.b	a1,a1
   1b408:	00859693          	slli	a3,a1,0x8
   1b40c:	00b686b3          	add	a3,a3,a1
   1b410:	01069713          	slli	a4,a3,0x10
   1b414:	feff0337          	lui	t1,0xfeff0
   1b418:	808088b7          	lui	a7,0x80808
   1b41c:	00078593          	mv	a1,a5
   1b420:	00e686b3          	add	a3,a3,a4
   1b424:	eff30313          	addi	t1,t1,-257 # fefefeff <__global_pointer$+0xfefcd047>
   1b428:	08088893          	addi	a7,a7,128 # 80808080 <__global_pointer$+0x807e51c8>
   1b42c:	00052783          	lw	a5,0(a0)
   1b430:	00f6c7b3          	xor	a5,a3,a5
   1b434:	00678733          	add	a4,a5,t1
   1b438:	fff7c793          	not	a5,a5
   1b43c:	00f777b3          	and	a5,a4,a5
   1b440:	0117f7b3          	and	a5,a5,a7
   1b444:	00079a63          	bnez	a5,1b458 <memchr+0xa8>
   1b448:	ffc60613          	addi	a2,a2,-4
   1b44c:	00450513          	addi	a0,a0,4
   1b450:	fcc5eee3          	bltu	a1,a2,1b42c <memchr+0x7c>
   1b454:	f8060ae3          	beqz	a2,1b3e8 <memchr+0x38>
   1b458:	00c50633          	add	a2,a0,a2
   1b45c:	00c0006f          	j	1b468 <memchr+0xb8>
   1b460:	00150513          	addi	a0,a0,1
   1b464:	f8c502e3          	beq	a0,a2,1b3e8 <memchr+0x38>
   1b468:	00054783          	lbu	a5,0(a0)
   1b46c:	ff079ae3          	bne	a5,a6,1b460 <memchr+0xb0>
   1b470:	00008067          	ret
   1b474:	00078513          	mv	a0,a5
   1b478:	00008067          	ret

0001b47c <strncpy>:
   1b47c:	00a5e7b3          	or	a5,a1,a0
   1b480:	0037f793          	andi	a5,a5,3
   1b484:	00079663          	bnez	a5,1b490 <strncpy+0x14>
   1b488:	00300893          	li	a7,3
   1b48c:	04c8e663          	bltu	a7,a2,1b4d8 <strncpy+0x5c>
   1b490:	00050713          	mv	a4,a0
   1b494:	01c0006f          	j	1b4b0 <strncpy+0x34>
   1b498:	fff5c683          	lbu	a3,-1(a1)
   1b49c:	fff60813          	addi	a6,a2,-1
   1b4a0:	fed78fa3          	sb	a3,-1(a5)
   1b4a4:	00068e63          	beqz	a3,1b4c0 <strncpy+0x44>
   1b4a8:	00078713          	mv	a4,a5
   1b4ac:	00080613          	mv	a2,a6
   1b4b0:	00158593          	addi	a1,a1,1
   1b4b4:	00170793          	addi	a5,a4,1
   1b4b8:	fe0610e3          	bnez	a2,1b498 <strncpy+0x1c>
   1b4bc:	00008067          	ret
   1b4c0:	00c70733          	add	a4,a4,a2
   1b4c4:	04080c63          	beqz	a6,1b51c <strncpy+0xa0>
   1b4c8:	00178793          	addi	a5,a5,1
   1b4cc:	fe078fa3          	sb	zero,-1(a5)
   1b4d0:	fee79ce3          	bne	a5,a4,1b4c8 <strncpy+0x4c>
   1b4d4:	00008067          	ret
   1b4d8:	feff0e37          	lui	t3,0xfeff0
   1b4dc:	80808337          	lui	t1,0x80808
   1b4e0:	effe0e13          	addi	t3,t3,-257 # fefefeff <__global_pointer$+0xfefcd047>
   1b4e4:	08030313          	addi	t1,t1,128 # 80808080 <__global_pointer$+0x807e51c8>
   1b4e8:	00050713          	mv	a4,a0
   1b4ec:	0005a683          	lw	a3,0(a1)
   1b4f0:	01c687b3          	add	a5,a3,t3
   1b4f4:	fff6c813          	not	a6,a3
   1b4f8:	0107f7b3          	and	a5,a5,a6
   1b4fc:	0067f7b3          	and	a5,a5,t1
   1b500:	fa0798e3          	bnez	a5,1b4b0 <strncpy+0x34>
   1b504:	ffc60613          	addi	a2,a2,-4
   1b508:	00d72023          	sw	a3,0(a4)
   1b50c:	00470713          	addi	a4,a4,4
   1b510:	00458593          	addi	a1,a1,4
   1b514:	fcc8ece3          	bltu	a7,a2,1b4ec <strncpy+0x70>
   1b518:	f99ff06f          	j	1b4b0 <strncpy+0x34>
   1b51c:	00008067          	ret

0001b520 <_localeconv_r>:
   1b520:	00022537          	lui	a0,0x22
   1b524:	63850513          	addi	a0,a0,1592 # 22638 <__global_locale+0xf0>
   1b528:	00008067          	ret

0001b52c <_sbrk_r>:
   1b52c:	ff010113          	addi	sp,sp,-16
   1b530:	00812423          	sw	s0,8(sp)
   1b534:	00912223          	sw	s1,4(sp)
   1b538:	00050413          	mv	s0,a0
   1b53c:	00058513          	mv	a0,a1
   1b540:	00112623          	sw	ra,12(sp)
   1b544:	8601aa23          	sw	zero,-1932(gp) # 2272c <errno>
   1b548:	bf5f40ef          	jal	1013c <_sbrk>
   1b54c:	fff00793          	li	a5,-1
   1b550:	00f50c63          	beq	a0,a5,1b568 <_sbrk_r+0x3c>
   1b554:	00c12083          	lw	ra,12(sp)
   1b558:	00812403          	lw	s0,8(sp)
   1b55c:	00412483          	lw	s1,4(sp)
   1b560:	01010113          	addi	sp,sp,16
   1b564:	00008067          	ret
   1b568:	8741a783          	lw	a5,-1932(gp) # 2272c <errno>
   1b56c:	fe0784e3          	beqz	a5,1b554 <_sbrk_r+0x28>
   1b570:	00c12083          	lw	ra,12(sp)
   1b574:	00f42023          	sw	a5,0(s0)
   1b578:	00812403          	lw	s0,8(sp)
   1b57c:	00412483          	lw	s1,4(sp)
   1b580:	01010113          	addi	sp,sp,16
   1b584:	00008067          	ret

0001b588 <__libc_fini_array>:
   1b588:	ff010113          	addi	sp,sp,-16
   1b58c:	00812423          	sw	s0,8(sp)
   1b590:	000227b7          	lui	a5,0x22
   1b594:	00022437          	lui	s0,0x22
   1b598:	00c40413          	addi	s0,s0,12 # 2200c <__fini_array_end>
   1b59c:	00878793          	addi	a5,a5,8 # 22008 <__do_global_dtors_aux_fini_array_entry>
   1b5a0:	40f40433          	sub	s0,s0,a5
   1b5a4:	00912223          	sw	s1,4(sp)
   1b5a8:	00112623          	sw	ra,12(sp)
   1b5ac:	40245493          	srai	s1,s0,0x2
   1b5b0:	02048063          	beqz	s1,1b5d0 <__libc_fini_array+0x48>
   1b5b4:	ffc40413          	addi	s0,s0,-4
   1b5b8:	00f40433          	add	s0,s0,a5
   1b5bc:	00042783          	lw	a5,0(s0)
   1b5c0:	fff48493          	addi	s1,s1,-1
   1b5c4:	ffc40413          	addi	s0,s0,-4
   1b5c8:	000780e7          	jalr	a5
   1b5cc:	fe0498e3          	bnez	s1,1b5bc <__libc_fini_array+0x34>
   1b5d0:	00c12083          	lw	ra,12(sp)
   1b5d4:	00812403          	lw	s0,8(sp)
   1b5d8:	00412483          	lw	s1,4(sp)
   1b5dc:	01010113          	addi	sp,sp,16
   1b5e0:	00008067          	ret

0001b5e4 <memmove>:
   1b5e4:	02a5f663          	bgeu	a1,a0,1b610 <memmove+0x2c>
   1b5e8:	00c58733          	add	a4,a1,a2
   1b5ec:	02e57263          	bgeu	a0,a4,1b610 <memmove+0x2c>
   1b5f0:	00c507b3          	add	a5,a0,a2
   1b5f4:	04060663          	beqz	a2,1b640 <memmove+0x5c>
   1b5f8:	fff74683          	lbu	a3,-1(a4)
   1b5fc:	fff78793          	addi	a5,a5,-1
   1b600:	fff70713          	addi	a4,a4,-1
   1b604:	00d78023          	sb	a3,0(a5)
   1b608:	fef518e3          	bne	a0,a5,1b5f8 <memmove+0x14>
   1b60c:	00008067          	ret
   1b610:	00f00793          	li	a5,15
   1b614:	02c7e863          	bltu	a5,a2,1b644 <memmove+0x60>
   1b618:	00050793          	mv	a5,a0
   1b61c:	fff60693          	addi	a3,a2,-1
   1b620:	0e060063          	beqz	a2,1b700 <memmove+0x11c>
   1b624:	00168693          	addi	a3,a3,1
   1b628:	00d786b3          	add	a3,a5,a3
   1b62c:	0005c703          	lbu	a4,0(a1)
   1b630:	00178793          	addi	a5,a5,1
   1b634:	00158593          	addi	a1,a1,1
   1b638:	fee78fa3          	sb	a4,-1(a5)
   1b63c:	fed798e3          	bne	a5,a3,1b62c <memmove+0x48>
   1b640:	00008067          	ret
   1b644:	00b567b3          	or	a5,a0,a1
   1b648:	0037f793          	andi	a5,a5,3
   1b64c:	00058893          	mv	a7,a1
   1b650:	0a079263          	bnez	a5,1b6f4 <memmove+0x110>
   1b654:	ff060793          	addi	a5,a2,-16
   1b658:	ff07f813          	andi	a6,a5,-16
   1b65c:	01080813          	addi	a6,a6,16
   1b660:	01050833          	add	a6,a0,a6
   1b664:	00050713          	mv	a4,a0
   1b668:	0005a683          	lw	a3,0(a1)
   1b66c:	01058593          	addi	a1,a1,16
   1b670:	01070713          	addi	a4,a4,16
   1b674:	fed72823          	sw	a3,-16(a4)
   1b678:	ff45a683          	lw	a3,-12(a1)
   1b67c:	fed72a23          	sw	a3,-12(a4)
   1b680:	ff85a683          	lw	a3,-8(a1)
   1b684:	fed72c23          	sw	a3,-8(a4)
   1b688:	ffc5a683          	lw	a3,-4(a1)
   1b68c:	fed72e23          	sw	a3,-4(a4)
   1b690:	fd071ce3          	bne	a4,a6,1b668 <memmove+0x84>
   1b694:	ff07f793          	andi	a5,a5,-16
   1b698:	01178733          	add	a4,a5,a7
   1b69c:	01070593          	addi	a1,a4,16
   1b6a0:	00f507b3          	add	a5,a0,a5
   1b6a4:	00c67813          	andi	a6,a2,12
   1b6a8:	01078793          	addi	a5,a5,16
   1b6ac:	00058e13          	mv	t3,a1
   1b6b0:	00f67693          	andi	a3,a2,15
   1b6b4:	04080863          	beqz	a6,1b704 <memmove+0x120>
   1b6b8:	ffc68693          	addi	a3,a3,-4
   1b6bc:	ffc6f693          	andi	a3,a3,-4
   1b6c0:	00d70733          	add	a4,a4,a3
   1b6c4:	01470713          	addi	a4,a4,20
   1b6c8:	41150833          	sub	a6,a0,a7
   1b6cc:	0005a303          	lw	t1,0(a1)
   1b6d0:	010588b3          	add	a7,a1,a6
   1b6d4:	00458593          	addi	a1,a1,4
   1b6d8:	0068a023          	sw	t1,0(a7)
   1b6dc:	fee598e3          	bne	a1,a4,1b6cc <memmove+0xe8>
   1b6e0:	00468713          	addi	a4,a3,4
   1b6e4:	01c705b3          	add	a1,a4,t3
   1b6e8:	00f707b3          	add	a5,a4,a5
   1b6ec:	00367613          	andi	a2,a2,3
   1b6f0:	f2dff06f          	j	1b61c <memmove+0x38>
   1b6f4:	fff60693          	addi	a3,a2,-1
   1b6f8:	00050793          	mv	a5,a0
   1b6fc:	f29ff06f          	j	1b624 <memmove+0x40>
   1b700:	00008067          	ret
   1b704:	00068613          	mv	a2,a3
   1b708:	f15ff06f          	j	1b61c <memmove+0x38>

0001b70c <memcpy>:
   1b70c:	00a5c7b3          	xor	a5,a1,a0
   1b710:	0037f793          	andi	a5,a5,3
   1b714:	00c508b3          	add	a7,a0,a2
   1b718:	06079663          	bnez	a5,1b784 <memcpy+0x78>
   1b71c:	00300793          	li	a5,3
   1b720:	06c7f263          	bgeu	a5,a2,1b784 <memcpy+0x78>
   1b724:	00357793          	andi	a5,a0,3
   1b728:	00050713          	mv	a4,a0
   1b72c:	0c079a63          	bnez	a5,1b800 <memcpy+0xf4>
   1b730:	ffc8f613          	andi	a2,a7,-4
   1b734:	40e606b3          	sub	a3,a2,a4
   1b738:	02000793          	li	a5,32
   1b73c:	06d7c463          	blt	a5,a3,1b7a4 <memcpy+0x98>
   1b740:	00058693          	mv	a3,a1
   1b744:	00070793          	mv	a5,a4
   1b748:	02c77a63          	bgeu	a4,a2,1b77c <memcpy+0x70>
   1b74c:	0006a803          	lw	a6,0(a3)
   1b750:	00478793          	addi	a5,a5,4
   1b754:	00468693          	addi	a3,a3,4
   1b758:	ff07ae23          	sw	a6,-4(a5)
   1b75c:	fec7e8e3          	bltu	a5,a2,1b74c <memcpy+0x40>
   1b760:	fff60613          	addi	a2,a2,-1
   1b764:	40e60633          	sub	a2,a2,a4
   1b768:	ffc67613          	andi	a2,a2,-4
   1b76c:	00458593          	addi	a1,a1,4
   1b770:	00470713          	addi	a4,a4,4
   1b774:	00c585b3          	add	a1,a1,a2
   1b778:	00c70733          	add	a4,a4,a2
   1b77c:	01176863          	bltu	a4,a7,1b78c <memcpy+0x80>
   1b780:	00008067          	ret
   1b784:	00050713          	mv	a4,a0
   1b788:	ff157ce3          	bgeu	a0,a7,1b780 <memcpy+0x74>
   1b78c:	0005c783          	lbu	a5,0(a1)
   1b790:	00170713          	addi	a4,a4,1
   1b794:	00158593          	addi	a1,a1,1
   1b798:	fef70fa3          	sb	a5,-1(a4)
   1b79c:	fee898e3          	bne	a7,a4,1b78c <memcpy+0x80>
   1b7a0:	00008067          	ret
   1b7a4:	0205a683          	lw	a3,32(a1)
   1b7a8:	0005a383          	lw	t2,0(a1)
   1b7ac:	0045a283          	lw	t0,4(a1)
   1b7b0:	0085af83          	lw	t6,8(a1)
   1b7b4:	00c5af03          	lw	t5,12(a1)
   1b7b8:	0105ae83          	lw	t4,16(a1)
   1b7bc:	0145ae03          	lw	t3,20(a1)
   1b7c0:	0185a303          	lw	t1,24(a1)
   1b7c4:	01c5a803          	lw	a6,28(a1)
   1b7c8:	02470713          	addi	a4,a4,36
   1b7cc:	fed72e23          	sw	a3,-4(a4)
   1b7d0:	fc772e23          	sw	t2,-36(a4)
   1b7d4:	40e606b3          	sub	a3,a2,a4
   1b7d8:	fe572023          	sw	t0,-32(a4)
   1b7dc:	fff72223          	sw	t6,-28(a4)
   1b7e0:	ffe72423          	sw	t5,-24(a4)
   1b7e4:	ffd72623          	sw	t4,-20(a4)
   1b7e8:	ffc72823          	sw	t3,-16(a4)
   1b7ec:	fe672a23          	sw	t1,-12(a4)
   1b7f0:	ff072c23          	sw	a6,-8(a4)
   1b7f4:	02458593          	addi	a1,a1,36
   1b7f8:	fad7c6e3          	blt	a5,a3,1b7a4 <memcpy+0x98>
   1b7fc:	f45ff06f          	j	1b740 <memcpy+0x34>
   1b800:	0005c683          	lbu	a3,0(a1)
   1b804:	00170713          	addi	a4,a4,1
   1b808:	00377793          	andi	a5,a4,3
   1b80c:	fed70fa3          	sb	a3,-1(a4)
   1b810:	00158593          	addi	a1,a1,1
   1b814:	f0078ee3          	beqz	a5,1b730 <memcpy+0x24>
   1b818:	0005c683          	lbu	a3,0(a1)
   1b81c:	00170713          	addi	a4,a4,1
   1b820:	00377793          	andi	a5,a4,3
   1b824:	fed70fa3          	sb	a3,-1(a4)
   1b828:	00158593          	addi	a1,a1,1
   1b82c:	fc079ae3          	bnez	a5,1b800 <memcpy+0xf4>
   1b830:	f01ff06f          	j	1b730 <memcpy+0x24>

0001b834 <frexpl>:
   1b834:	f9010113          	addi	sp,sp,-112
   1b838:	07212023          	sw	s2,96(sp)
   1b83c:	00c5a903          	lw	s2,12(a1)
   1b840:	05412c23          	sw	s4,88(sp)
   1b844:	05512a23          	sw	s5,84(sp)
   1b848:	05612823          	sw	s6,80(sp)
   1b84c:	0045aa83          	lw	s5,4(a1)
   1b850:	0005ab03          	lw	s6,0(a1)
   1b854:	0085aa03          	lw	s4,8(a1)
   1b858:	05312e23          	sw	s3,92(sp)
   1b85c:	000089b7          	lui	s3,0x8
   1b860:	06812423          	sw	s0,104(sp)
   1b864:	06912223          	sw	s1,100(sp)
   1b868:	06112623          	sw	ra,108(sp)
   1b86c:	01095493          	srli	s1,s2,0x10
   1b870:	fff98993          	addi	s3,s3,-1 # 7fff <_start-0x8001>
   1b874:	00062023          	sw	zero,0(a2)
   1b878:	03212e23          	sw	s2,60(sp)
   1b87c:	0134f4b3          	and	s1,s1,s3
   1b880:	03612823          	sw	s6,48(sp)
   1b884:	03512a23          	sw	s5,52(sp)
   1b888:	03412c23          	sw	s4,56(sp)
   1b88c:	00050413          	mv	s0,a0
   1b890:	09348063          	beq	s1,s3,1b910 <frexpl+0xdc>
   1b894:	02010513          	addi	a0,sp,32
   1b898:	01010593          	addi	a1,sp,16
   1b89c:	05712623          	sw	s7,76(sp)
   1b8a0:	03612023          	sw	s6,32(sp)
   1b8a4:	00060b93          	mv	s7,a2
   1b8a8:	03512223          	sw	s5,36(sp)
   1b8ac:	03412423          	sw	s4,40(sp)
   1b8b0:	03212623          	sw	s2,44(sp)
   1b8b4:	00012823          	sw	zero,16(sp)
   1b8b8:	00012a23          	sw	zero,20(sp)
   1b8bc:	00012c23          	sw	zero,24(sp)
   1b8c0:	00012e23          	sw	zero,28(sp)
   1b8c4:	e70f70ef          	jal	12f34 <__eqtf2>
   1b8c8:	0e050463          	beqz	a0,1b9b0 <frexpl+0x17c>
   1b8cc:	00000693          	li	a3,0
   1b8d0:	06048e63          	beqz	s1,1b94c <frexpl+0x118>
   1b8d4:	ffffc737          	lui	a4,0xffffc
   1b8d8:	00270713          	addi	a4,a4,2 # ffffc002 <__global_pointer$+0xfffd914a>
   1b8dc:	03c12903          	lw	s2,60(sp)
   1b8e0:	00e484b3          	add	s1,s1,a4
   1b8e4:	800107b7          	lui	a5,0x80010
   1b8e8:	00d484b3          	add	s1,s1,a3
   1b8ec:	fff78793          	addi	a5,a5,-1 # 8000ffff <__global_pointer$+0x7ffed147>
   1b8f0:	009ba023          	sw	s1,0(s7)
   1b8f4:	03012b03          	lw	s6,48(sp)
   1b8f8:	03412a83          	lw	s5,52(sp)
   1b8fc:	03812a03          	lw	s4,56(sp)
   1b900:	04c12b83          	lw	s7,76(sp)
   1b904:	00f97933          	and	s2,s2,a5
   1b908:	3ffe07b7          	lui	a5,0x3ffe0
   1b90c:	00f96933          	or	s2,s2,a5
   1b910:	01642023          	sw	s6,0(s0)
   1b914:	01542223          	sw	s5,4(s0)
   1b918:	01442423          	sw	s4,8(s0)
   1b91c:	01242623          	sw	s2,12(s0)
   1b920:	06c12083          	lw	ra,108(sp)
   1b924:	00040513          	mv	a0,s0
   1b928:	06812403          	lw	s0,104(sp)
   1b92c:	06412483          	lw	s1,100(sp)
   1b930:	06012903          	lw	s2,96(sp)
   1b934:	05c12983          	lw	s3,92(sp)
   1b938:	05812a03          	lw	s4,88(sp)
   1b93c:	05412a83          	lw	s5,84(sp)
   1b940:	05012b03          	lw	s6,80(sp)
   1b944:	07010113          	addi	sp,sp,112
   1b948:	00008067          	ret
   1b94c:	407107b7          	lui	a5,0x40710
   1b950:	00010613          	mv	a2,sp
   1b954:	01010593          	addi	a1,sp,16
   1b958:	02010513          	addi	a0,sp,32
   1b95c:	00f12623          	sw	a5,12(sp)
   1b960:	01612823          	sw	s6,16(sp)
   1b964:	01512a23          	sw	s5,20(sp)
   1b968:	01412c23          	sw	s4,24(sp)
   1b96c:	01212e23          	sw	s2,28(sp)
   1b970:	00012023          	sw	zero,0(sp)
   1b974:	00012223          	sw	zero,4(sp)
   1b978:	00012423          	sw	zero,8(sp)
   1b97c:	8c5f70ef          	jal	13240 <__multf3>
   1b980:	02c12783          	lw	a5,44(sp)
   1b984:	02412683          	lw	a3,36(sp)
   1b988:	02012603          	lw	a2,32(sp)
   1b98c:	02812703          	lw	a4,40(sp)
   1b990:	0107d493          	srli	s1,a5,0x10
   1b994:	02d12a23          	sw	a3,52(sp)
   1b998:	02c12823          	sw	a2,48(sp)
   1b99c:	02e12c23          	sw	a4,56(sp)
   1b9a0:	02f12e23          	sw	a5,60(sp)
   1b9a4:	0134f4b3          	and	s1,s1,s3
   1b9a8:	f8e00693          	li	a3,-114
   1b9ac:	f29ff06f          	j	1b8d4 <frexpl+0xa0>
   1b9b0:	04c12b83          	lw	s7,76(sp)
   1b9b4:	f5dff06f          	j	1b910 <frexpl+0xdc>

0001b9b8 <__register_exitproc>:
   1b9b8:	8781a783          	lw	a5,-1928(gp) # 22730 <__atexit>
   1b9bc:	04078c63          	beqz	a5,1ba14 <__register_exitproc+0x5c>
   1b9c0:	0047a703          	lw	a4,4(a5) # 40710004 <__global_pointer$+0x406ed14c>
   1b9c4:	01f00813          	li	a6,31
   1b9c8:	08e84063          	blt	a6,a4,1ba48 <__register_exitproc+0x90>
   1b9cc:	00271813          	slli	a6,a4,0x2
   1b9d0:	02050663          	beqz	a0,1b9fc <__register_exitproc+0x44>
   1b9d4:	01078333          	add	t1,a5,a6
   1b9d8:	08c32423          	sw	a2,136(t1)
   1b9dc:	1887a883          	lw	a7,392(a5)
   1b9e0:	00100613          	li	a2,1
   1b9e4:	00e61633          	sll	a2,a2,a4
   1b9e8:	00c8e8b3          	or	a7,a7,a2
   1b9ec:	1917a423          	sw	a7,392(a5)
   1b9f0:	10d32423          	sw	a3,264(t1)
   1b9f4:	00200693          	li	a3,2
   1b9f8:	02d50663          	beq	a0,a3,1ba24 <__register_exitproc+0x6c>
   1b9fc:	00170713          	addi	a4,a4,1
   1ba00:	00e7a223          	sw	a4,4(a5)
   1ba04:	010787b3          	add	a5,a5,a6
   1ba08:	00b7a423          	sw	a1,8(a5)
   1ba0c:	00000513          	li	a0,0
   1ba10:	00008067          	ret
   1ba14:	a0418813          	addi	a6,gp,-1532 # 228bc <__atexit0>
   1ba18:	8701ac23          	sw	a6,-1928(gp) # 22730 <__atexit>
   1ba1c:	a0418793          	addi	a5,gp,-1532 # 228bc <__atexit0>
   1ba20:	fa1ff06f          	j	1b9c0 <__register_exitproc+0x8>
   1ba24:	18c7a683          	lw	a3,396(a5)
   1ba28:	00170713          	addi	a4,a4,1
   1ba2c:	00e7a223          	sw	a4,4(a5)
   1ba30:	00c6e6b3          	or	a3,a3,a2
   1ba34:	18d7a623          	sw	a3,396(a5)
   1ba38:	010787b3          	add	a5,a5,a6
   1ba3c:	00b7a423          	sw	a1,8(a5)
   1ba40:	00000513          	li	a0,0
   1ba44:	00008067          	ret
   1ba48:	fff00513          	li	a0,-1
   1ba4c:	00008067          	ret

0001ba50 <_ldtoa_r>:
   1ba50:	000218b7          	lui	a7,0x21
   1ba54:	5a888893          	addi	a7,a7,1448 # 215a8 <blanks.1+0x10>
   1ba58:	0008af83          	lw	t6,0(a7)
   1ba5c:	0048af03          	lw	t5,4(a7)
   1ba60:	0088ae83          	lw	t4,8(a7)
   1ba64:	00c8ae03          	lw	t3,12(a7)
   1ba68:	0108a303          	lw	t1,16(a7)
   1ba6c:	03852883          	lw	a7,56(a0)
   1ba70:	f5010113          	addi	sp,sp,-176
   1ba74:	0b212023          	sw	s2,160(sp)
   1ba78:	09312e23          	sw	s3,156(sp)
   1ba7c:	09412c23          	sw	s4,152(sp)
   1ba80:	09612823          	sw	s6,144(sp)
   1ba84:	09712623          	sw	s7,140(sp)
   1ba88:	09812423          	sw	s8,136(sp)
   1ba8c:	09912223          	sw	s9,132(sp)
   1ba90:	09a12023          	sw	s10,128(sp)
   1ba94:	0a112623          	sw	ra,172(sp)
   1ba98:	0a812423          	sw	s0,168(sp)
   1ba9c:	0a912223          	sw	s1,164(sp)
   1baa0:	09512a23          	sw	s5,148(sp)
   1baa4:	07b12e23          	sw	s11,124(sp)
   1baa8:	05f12e23          	sw	t6,92(sp)
   1baac:	07e12023          	sw	t5,96(sp)
   1bab0:	07d12223          	sw	t4,100(sp)
   1bab4:	07c12423          	sw	t3,104(sp)
   1bab8:	06612623          	sw	t1,108(sp)
   1babc:	00c12c23          	sw	a2,24(sp)
   1bac0:	00d12e23          	sw	a3,28(sp)
   1bac4:	0005aa03          	lw	s4,0(a1)
   1bac8:	0045a983          	lw	s3,4(a1)
   1bacc:	0085a903          	lw	s2,8(a1)
   1bad0:	00c5ac03          	lw	s8,12(a1)
   1bad4:	00050b13          	mv	s6,a0
   1bad8:	00070b93          	mv	s7,a4
   1badc:	00078c93          	mv	s9,a5
   1bae0:	00080d13          	mv	s10,a6
   1bae4:	00088863          	beqz	a7,1baf4 <_ldtoa_r+0xa4>
   1bae8:	00088593          	mv	a1,a7
   1baec:	328020ef          	jal	1de14 <__freedtoa>
   1baf0:	020b2c23          	sw	zero,56(s6)
   1baf4:	06812603          	lw	a2,104(sp)
   1baf8:	01fc5693          	srli	a3,s8,0x1f
   1bafc:	001c1a93          	slli	s5,s8,0x1
   1bb00:	40165713          	srai	a4,a2,0x1
   1bb04:	ffffc4b7          	lui	s1,0xffffc
   1bb08:	001c1413          	slli	s0,s8,0x1
   1bb0c:	010c1d93          	slli	s11,s8,0x10
   1bb10:	00d77733          	and	a4,a4,a3
   1bb14:	03412823          	sw	s4,48(sp)
   1bb18:	03312a23          	sw	s3,52(sp)
   1bb1c:	03212c23          	sw	s2,56(sp)
   1bb20:	03412023          	sw	s4,32(sp)
   1bb24:	03312223          	sw	s3,36(sp)
   1bb28:	03212423          	sw	s2,40(sp)
   1bb2c:	011ada93          	srli	s5,s5,0x11
   1bb30:	f9148493          	addi	s1,s1,-111 # ffffbf91 <__global_pointer$+0xfffd90d9>
   1bb34:	00145413          	srli	s0,s0,0x1
   1bb38:	00dca023          	sw	a3,0(s9)
   1bb3c:	010ddd93          	srli	s11,s11,0x10
   1bb40:	00c74733          	xor	a4,a4,a2
   1bb44:	009a87b3          	add	a5,s5,s1
   1bb48:	03010513          	addi	a0,sp,48
   1bb4c:	02010593          	addi	a1,sp,32
   1bb50:	02812e23          	sw	s0,60(sp)
   1bb54:	02812623          	sw	s0,44(sp)
   1bb58:	05412623          	sw	s4,76(sp)
   1bb5c:	05312823          	sw	s3,80(sp)
   1bb60:	05212a23          	sw	s2,84(sp)
   1bb64:	06e12423          	sw	a4,104(sp)
   1bb68:	00f12a23          	sw	a5,20(sp)
   1bb6c:	05b12c23          	sw	s11,88(sp)
   1bb70:	e61f90ef          	jal	159d0 <__unordtf2>
   1bb74:	16051a63          	bnez	a0,1bce8 <_ldtoa_r+0x298>
   1bb78:	7fff0737          	lui	a4,0x7fff0
   1bb7c:	fff00493          	li	s1,-1
   1bb80:	fff70c93          	addi	s9,a4,-1 # 7ffeffff <__global_pointer$+0x7ffcd147>
   1bb84:	02010593          	addi	a1,sp,32
   1bb88:	03010513          	addi	a0,sp,48
   1bb8c:	03412823          	sw	s4,48(sp)
   1bb90:	03312a23          	sw	s3,52(sp)
   1bb94:	03212c23          	sw	s2,56(sp)
   1bb98:	02812e23          	sw	s0,60(sp)
   1bb9c:	03912623          	sw	s9,44(sp)
   1bba0:	02912023          	sw	s1,32(sp)
   1bba4:	02912223          	sw	s1,36(sp)
   1bba8:	02912423          	sw	s1,40(sp)
   1bbac:	e25f90ef          	jal	159d0 <__unordtf2>
   1bbb0:	08051c63          	bnez	a0,1bc48 <_ldtoa_r+0x1f8>
   1bbb4:	02010593          	addi	a1,sp,32
   1bbb8:	03010513          	addi	a0,sp,48
   1bbbc:	d64f70ef          	jal	13120 <__letf2>
   1bbc0:	08a05463          	blez	a0,1bc48 <_ldtoa_r+0x1f8>
   1bbc4:	00300793          	li	a5,3
   1bbc8:	04f12423          	sw	a5,72(sp)
   1bbcc:	01812783          	lw	a5,24(sp)
   1bbd0:	01c12803          	lw	a6,28(sp)
   1bbd4:	01412603          	lw	a2,20(sp)
   1bbd8:	04810713          	addi	a4,sp,72
   1bbdc:	01a12023          	sw	s10,0(sp)
   1bbe0:	000b0513          	mv	a0,s6
   1bbe4:	000b8893          	mv	a7,s7
   1bbe8:	04c10693          	addi	a3,sp,76
   1bbec:	05c10593          	addi	a1,sp,92
   1bbf0:	20c000ef          	jal	1bdfc <__gdtoa>
   1bbf4:	000ba703          	lw	a4,0(s7)
   1bbf8:	ffff87b7          	lui	a5,0xffff8
   1bbfc:	00f71863          	bne	a4,a5,1bc0c <_ldtoa_r+0x1bc>
   1bc00:	800007b7          	lui	a5,0x80000
   1bc04:	fff78793          	addi	a5,a5,-1 # 7fffffff <__global_pointer$+0x7ffdd147>
   1bc08:	00fba023          	sw	a5,0(s7)
   1bc0c:	0ac12083          	lw	ra,172(sp)
   1bc10:	0a812403          	lw	s0,168(sp)
   1bc14:	0a412483          	lw	s1,164(sp)
   1bc18:	0a012903          	lw	s2,160(sp)
   1bc1c:	09c12983          	lw	s3,156(sp)
   1bc20:	09812a03          	lw	s4,152(sp)
   1bc24:	09412a83          	lw	s5,148(sp)
   1bc28:	09012b03          	lw	s6,144(sp)
   1bc2c:	08c12b83          	lw	s7,140(sp)
   1bc30:	08812c03          	lw	s8,136(sp)
   1bc34:	08412c83          	lw	s9,132(sp)
   1bc38:	08012d03          	lw	s10,128(sp)
   1bc3c:	07c12d83          	lw	s11,124(sp)
   1bc40:	0b010113          	addi	sp,sp,176
   1bc44:	00008067          	ret
   1bc48:	000107b7          	lui	a5,0x10
   1bc4c:	02010593          	addi	a1,sp,32
   1bc50:	03010513          	addi	a0,sp,48
   1bc54:	03412823          	sw	s4,48(sp)
   1bc58:	03312a23          	sw	s3,52(sp)
   1bc5c:	03212c23          	sw	s2,56(sp)
   1bc60:	02812e23          	sw	s0,60(sp)
   1bc64:	02012023          	sw	zero,32(sp)
   1bc68:	02012223          	sw	zero,36(sp)
   1bc6c:	02012423          	sw	zero,40(sp)
   1bc70:	02f12623          	sw	a5,44(sp)
   1bc74:	b8cf70ef          	jal	13000 <__getf2>
   1bc78:	00054e63          	bltz	a0,1bc94 <_ldtoa_r+0x244>
   1bc7c:	000107b7          	lui	a5,0x10
   1bc80:	00fdedb3          	or	s11,s11,a5
   1bc84:	00100793          	li	a5,1
   1bc88:	05b12c23          	sw	s11,88(sp)
   1bc8c:	04f12423          	sw	a5,72(sp)
   1bc90:	f3dff06f          	j	1bbcc <_ldtoa_r+0x17c>
   1bc94:	02010593          	addi	a1,sp,32
   1bc98:	03010513          	addi	a0,sp,48
   1bc9c:	03412823          	sw	s4,48(sp)
   1bca0:	03312a23          	sw	s3,52(sp)
   1bca4:	03212c23          	sw	s2,56(sp)
   1bca8:	03812e23          	sw	s8,60(sp)
   1bcac:	02012023          	sw	zero,32(sp)
   1bcb0:	02012223          	sw	zero,36(sp)
   1bcb4:	02012423          	sw	zero,40(sp)
   1bcb8:	02012623          	sw	zero,44(sp)
   1bcbc:	a78f70ef          	jal	12f34 <__eqtf2>
   1bcc0:	00051663          	bnez	a0,1bccc <_ldtoa_r+0x27c>
   1bcc4:	04012423          	sw	zero,72(sp)
   1bcc8:	f05ff06f          	j	1bbcc <_ldtoa_r+0x17c>
   1bccc:	ffffc4b7          	lui	s1,0xffffc
   1bcd0:	f9248493          	addi	s1,s1,-110 # ffffbf92 <__global_pointer$+0xfffd90da>
   1bcd4:	00200793          	li	a5,2
   1bcd8:	009a8733          	add	a4,s5,s1
   1bcdc:	00e12a23          	sw	a4,20(sp)
   1bce0:	04f12423          	sw	a5,72(sp)
   1bce4:	ee9ff06f          	j	1bbcc <_ldtoa_r+0x17c>
   1bce8:	00400793          	li	a5,4
   1bcec:	04f12423          	sw	a5,72(sp)
   1bcf0:	eddff06f          	j	1bbcc <_ldtoa_r+0x17c>

0001bcf4 <_ldcheck>:
   1bcf4:	fc010113          	addi	sp,sp,-64
   1bcf8:	02812c23          	sw	s0,56(sp)
   1bcfc:	00c52403          	lw	s0,12(a0)
   1bd00:	03312623          	sw	s3,44(sp)
   1bd04:	03412423          	sw	s4,40(sp)
   1bd08:	00852983          	lw	s3,8(a0)
   1bd0c:	00452a03          	lw	s4,4(a0)
   1bd10:	03512223          	sw	s5,36(sp)
   1bd14:	00052a83          	lw	s5,0(a0)
   1bd18:	00141413          	slli	s0,s0,0x1
   1bd1c:	00145413          	srli	s0,s0,0x1
   1bd20:	01010513          	addi	a0,sp,16
   1bd24:	00010593          	mv	a1,sp
   1bd28:	02112e23          	sw	ra,60(sp)
   1bd2c:	00812e23          	sw	s0,28(sp)
   1bd30:	00812623          	sw	s0,12(sp)
   1bd34:	01512823          	sw	s5,16(sp)
   1bd38:	01512023          	sw	s5,0(sp)
   1bd3c:	01412a23          	sw	s4,20(sp)
   1bd40:	01412223          	sw	s4,4(sp)
   1bd44:	01312c23          	sw	s3,24(sp)
   1bd48:	01312423          	sw	s3,8(sp)
   1bd4c:	c85f90ef          	jal	159d0 <__unordtf2>
   1bd50:	08051663          	bnez	a0,1bddc <_ldcheck+0xe8>
   1bd54:	03612023          	sw	s6,32(sp)
   1bd58:	7fff0b37          	lui	s6,0x7fff0
   1bd5c:	03212823          	sw	s2,48(sp)
   1bd60:	fffb0b13          	addi	s6,s6,-1 # 7ffeffff <__global_pointer$+0x7ffcd147>
   1bd64:	fff00913          	li	s2,-1
   1bd68:	00010593          	mv	a1,sp
   1bd6c:	01010513          	addi	a0,sp,16
   1bd70:	02912a23          	sw	s1,52(sp)
   1bd74:	01612623          	sw	s6,12(sp)
   1bd78:	01212023          	sw	s2,0(sp)
   1bd7c:	01212223          	sw	s2,4(sp)
   1bd80:	01212423          	sw	s2,8(sp)
   1bd84:	00100493          	li	s1,1
   1bd88:	c49f90ef          	jal	159d0 <__unordtf2>
   1bd8c:	02050c63          	beqz	a0,1bdc4 <_ldcheck+0xd0>
   1bd90:	03c12083          	lw	ra,60(sp)
   1bd94:	03812403          	lw	s0,56(sp)
   1bd98:	0014c513          	xori	a0,s1,1
   1bd9c:	0ff57513          	zext.b	a0,a0
   1bda0:	03412483          	lw	s1,52(sp)
   1bda4:	03012903          	lw	s2,48(sp)
   1bda8:	02012b03          	lw	s6,32(sp)
   1bdac:	02c12983          	lw	s3,44(sp)
   1bdb0:	02812a03          	lw	s4,40(sp)
   1bdb4:	02412a83          	lw	s5,36(sp)
   1bdb8:	00151513          	slli	a0,a0,0x1
   1bdbc:	04010113          	addi	sp,sp,64
   1bdc0:	00008067          	ret
   1bdc4:	00010593          	mv	a1,sp
   1bdc8:	01010513          	addi	a0,sp,16
   1bdcc:	b54f70ef          	jal	13120 <__letf2>
   1bdd0:	fca050e3          	blez	a0,1bd90 <_ldcheck+0x9c>
   1bdd4:	00000493          	li	s1,0
   1bdd8:	fb9ff06f          	j	1bd90 <_ldcheck+0x9c>
   1bddc:	03c12083          	lw	ra,60(sp)
   1bde0:	03812403          	lw	s0,56(sp)
   1bde4:	02c12983          	lw	s3,44(sp)
   1bde8:	02812a03          	lw	s4,40(sp)
   1bdec:	02412a83          	lw	s5,36(sp)
   1bdf0:	00100513          	li	a0,1
   1bdf4:	04010113          	addi	sp,sp,64
   1bdf8:	00008067          	ret

0001bdfc <__gdtoa>:
   1bdfc:	e0010113          	addi	sp,sp,-512
   1be00:	1da12823          	sw	s10,464(sp)
   1be04:	00072d03          	lw	s10,0(a4)
   1be08:	1e112e23          	sw	ra,508(sp)
   1be0c:	00070f93          	mv	t6,a4
   1be10:	fcfd7e13          	andi	t3,s10,-49
   1be14:	01c72023          	sw	t3,0(a4)
   1be18:	20012703          	lw	a4,512(sp)
   1be1c:	00fd7e13          	andi	t3,s10,15
   1be20:	00300e93          	li	t4,3
   1be24:	00b12c23          	sw	a1,24(sp)
   1be28:	00c12423          	sw	a2,8(sp)
   1be2c:	01012a23          	sw	a6,20(sp)
   1be30:	01112023          	sw	a7,0(sp)
   1be34:	00e12223          	sw	a4,4(sp)
   1be38:	45de0063          	beq	t3,t4,1c278 <__gdtoa+0x47c>
   1be3c:	1f612023          	sw	s6,480(sp)
   1be40:	1db12623          	sw	s11,460(sp)
   1be44:	00cd7b13          	andi	s6,s10,12
   1be48:	320b1863          	bnez	s6,1c178 <__gdtoa+0x37c>
   1be4c:	1e812c23          	sw	s0,504(sp)
   1be50:	00050413          	mv	s0,a0
   1be54:	3e0e0063          	beqz	t3,1c234 <__gdtoa+0x438>
   1be58:	1d712e23          	sw	s7,476(sp)
   1be5c:	0005ab83          	lw	s7,0(a1)
   1be60:	1f312623          	sw	s3,492(sp)
   1be64:	1f412423          	sw	s4,488(sp)
   1be68:	00078993          	mv	s3,a5
   1be6c:	02000793          	li	a5,32
   1be70:	00068a13          	mv	s4,a3
   1be74:	00000593          	li	a1,0
   1be78:	0177d863          	bge	a5,s7,1be88 <__gdtoa+0x8c>
   1be7c:	00179793          	slli	a5,a5,0x1
   1be80:	00158593          	addi	a1,a1,1
   1be84:	ff77cce3          	blt	a5,s7,1be7c <__gdtoa+0x80>
   1be88:	00040513          	mv	a0,s0
   1be8c:	01f12e23          	sw	t6,28(sp)
   1be90:	360020ef          	jal	1e1f0 <_Balloc>
   1be94:	00a12823          	sw	a0,16(sp)
   1be98:	01c12f83          	lw	t6,28(sp)
   1be9c:	0c0506e3          	beqz	a0,1c768 <__gdtoa+0x96c>
   1bea0:	01012783          	lw	a5,16(sp)
   1bea4:	fffb8513          	addi	a0,s7,-1
   1bea8:	40555513          	srai	a0,a0,0x5
   1beac:	00251593          	slli	a1,a0,0x2
   1beb0:	01478693          	addi	a3,a5,20 # 10014 <_start+0x14>
   1beb4:	1f512223          	sw	s5,484(sp)
   1beb8:	1d812c23          	sw	s8,472(sp)
   1bebc:	00ba05b3          	add	a1,s4,a1
   1bec0:	000a0793          	mv	a5,s4
   1bec4:	0007a703          	lw	a4,0(a5)
   1bec8:	00478793          	addi	a5,a5,4
   1becc:	00468693          	addi	a3,a3,4
   1bed0:	fee6ae23          	sw	a4,-4(a3)
   1bed4:	fef5f8e3          	bgeu	a1,a5,1bec4 <__gdtoa+0xc8>
   1bed8:	00158593          	addi	a1,a1,1
   1bedc:	001a0793          	addi	a5,s4,1
   1bee0:	00000693          	li	a3,0
   1bee4:	00f5e463          	bltu	a1,a5,1beec <__gdtoa+0xf0>
   1bee8:	00251693          	slli	a3,a0,0x2
   1beec:	01012783          	lw	a5,16(sp)
   1bef0:	00468693          	addi	a3,a3,4
   1bef4:	4026da93          	srai	s5,a3,0x2
   1bef8:	00d786b3          	add	a3,a5,a3
   1befc:	00c0006f          	j	1bf08 <__gdtoa+0x10c>
   1bf00:	ffc68693          	addi	a3,a3,-4
   1bf04:	3a0a8063          	beqz	s5,1c2a4 <__gdtoa+0x4a8>
   1bf08:	0106a783          	lw	a5,16(a3)
   1bf0c:	000a8c13          	mv	s8,s5
   1bf10:	fffa8a93          	addi	s5,s5,-1
   1bf14:	fe0786e3          	beqz	a5,1bf00 <__gdtoa+0x104>
   1bf18:	01012703          	lw	a4,16(sp)
   1bf1c:	002a9793          	slli	a5,s5,0x2
   1bf20:	01f12e23          	sw	t6,28(sp)
   1bf24:	00f707b3          	add	a5,a4,a5
   1bf28:	0147a503          	lw	a0,20(a5)
   1bf2c:	01872823          	sw	s8,16(a4)
   1bf30:	005c1c13          	slli	s8,s8,0x5
   1bf34:	4fc020ef          	jal	1e430 <__hi0bits>
   1bf38:	01c12f83          	lw	t6,28(sp)
   1bf3c:	40ac0ab3          	sub	s5,s8,a0
   1bf40:	01012503          	lw	a0,16(sp)
   1bf44:	01f12e23          	sw	t6,28(sp)
   1bf48:	244020ef          	jal	1e18c <__trailz_D2A>
   1bf4c:	00812783          	lw	a5,8(sp)
   1bf50:	1aa12e23          	sw	a0,444(sp)
   1bf54:	01c12f83          	lw	t6,28(sp)
   1bf58:	04f12823          	sw	a5,80(sp)
   1bf5c:	7c051663          	bnez	a0,1c728 <__gdtoa+0x92c>
   1bf60:	01012783          	lw	a5,16(sp)
   1bf64:	0107a683          	lw	a3,16(a5)
   1bf68:	2a068663          	beqz	a3,1c214 <__gdtoa+0x418>
   1bf6c:	01012503          	lw	a0,16(sp)
   1bf70:	1bc10593          	addi	a1,sp,444
   1bf74:	01f12e23          	sw	t6,28(sp)
   1bf78:	1e912a23          	sw	s1,500(sp)
   1bf7c:	1f212823          	sw	s2,496(sp)
   1bf80:	1d912a23          	sw	s9,468(sp)
   1bf84:	749020ef          	jal	1eecc <__b2d>
   1bf88:	00c59c13          	slli	s8,a1,0xc
   1bf8c:	00cc5c13          	srli	s8,s8,0xc
   1bf90:	3ff006b7          	lui	a3,0x3ff00
   1bf94:	00dc6933          	or	s2,s8,a3
   1bf98:	05012703          	lw	a4,80(sp)
   1bf9c:	02a12023          	sw	a0,32(sp)
   1bfa0:	03212223          	sw	s2,36(sp)
   1bfa4:	000226b7          	lui	a3,0x22
   1bfa8:	00050793          	mv	a5,a0
   1bfac:	6b86a603          	lw	a2,1720(a3) # 226b8 <__global_locale+0x170>
   1bfb0:	06a12023          	sw	a0,96(sp)
   1bfb4:	6bc6a683          	lw	a3,1724(a3)
   1bfb8:	02012503          	lw	a0,32(sp)
   1bfbc:	02412583          	lw	a1,36(sp)
   1bfc0:	01570c33          	add	s8,a4,s5
   1bfc4:	06f12423          	sw	a5,104(sp)
   1bfc8:	05812a23          	sw	s8,84(sp)
   1bfcc:	ea4f60ef          	jal	12670 <__subdf3>
   1bfd0:	8081a603          	lw	a2,-2040(gp) # 226c0 <__global_locale+0x178>
   1bfd4:	80c1a683          	lw	a3,-2036(gp) # 226c4 <__global_locale+0x17c>
   1bfd8:	fffc0c93          	addi	s9,s8,-1
   1bfdc:	fe1f50ef          	jal	11fbc <__muldf3>
   1bfe0:	8101a603          	lw	a2,-2032(gp) # 226c8 <__global_locale+0x180>
   1bfe4:	8141a683          	lw	a3,-2028(gp) # 226cc <__global_locale+0x184>
   1bfe8:	e65f40ef          	jal	10e4c <__adddf3>
   1bfec:	00050d93          	mv	s11,a0
   1bff0:	000c8513          	mv	a0,s9
   1bff4:	00058493          	mv	s1,a1
   1bff8:	e89f60ef          	jal	12e80 <__floatsidf>
   1bffc:	8181a603          	lw	a2,-2024(gp) # 226d0 <__global_locale+0x188>
   1c000:	81c1a683          	lw	a3,-2020(gp) # 226d4 <__global_locale+0x18c>
   1c004:	fb9f50ef          	jal	11fbc <__muldf3>
   1c008:	03b12423          	sw	s11,40(sp)
   1c00c:	02912623          	sw	s1,44(sp)
   1c010:	00050613          	mv	a2,a0
   1c014:	00058693          	mv	a3,a1
   1c018:	02812503          	lw	a0,40(sp)
   1c01c:	02c12583          	lw	a1,44(sp)
   1c020:	e2df40ef          	jal	10e4c <__adddf3>
   1c024:	00050d93          	mv	s11,a0
   1c028:	01c12f83          	lw	t6,28(sp)
   1c02c:	00058493          	mv	s1,a1
   1c030:	000c8513          	mv	a0,s9
   1c034:	000cd663          	bgez	s9,1c040 <__gdtoa+0x244>
   1c038:	00100513          	li	a0,1
   1c03c:	41850533          	sub	a0,a0,s8
   1c040:	bcb50513          	addi	a0,a0,-1077
   1c044:	04a05063          	blez	a0,1c084 <__gdtoa+0x288>
   1c048:	01f12e23          	sw	t6,28(sp)
   1c04c:	e35f60ef          	jal	12e80 <__floatsidf>
   1c050:	8201a603          	lw	a2,-2016(gp) # 226d8 <__global_locale+0x190>
   1c054:	8241a683          	lw	a3,-2012(gp) # 226dc <__global_locale+0x194>
   1c058:	f65f50ef          	jal	11fbc <__muldf3>
   1c05c:	05b12023          	sw	s11,64(sp)
   1c060:	04912223          	sw	s1,68(sp)
   1c064:	00050613          	mv	a2,a0
   1c068:	00058693          	mv	a3,a1
   1c06c:	04012503          	lw	a0,64(sp)
   1c070:	04412583          	lw	a1,68(sp)
   1c074:	dd9f40ef          	jal	10e4c <__adddf3>
   1c078:	01c12f83          	lw	t6,28(sp)
   1c07c:	00050d93          	mv	s11,a0
   1c080:	00058493          	mv	s1,a1
   1c084:	03b12823          	sw	s11,48(sp)
   1c088:	02912a23          	sw	s1,52(sp)
   1c08c:	03412583          	lw	a1,52(sp)
   1c090:	03012503          	lw	a0,48(sp)
   1c094:	03f12023          	sw	t6,32(sp)
   1c098:	d69f60ef          	jal	12e00 <__fixdfsi>
   1c09c:	03b12c23          	sw	s11,56(sp)
   1c0a0:	02912e23          	sw	s1,60(sp)
   1c0a4:	00050893          	mv	a7,a0
   1c0a8:	03c12583          	lw	a1,60(sp)
   1c0ac:	03812503          	lw	a0,56(sp)
   1c0b0:	00000613          	li	a2,0
   1c0b4:	00000693          	li	a3,0
   1c0b8:	00088c13          	mv	s8,a7
   1c0bc:	01112e23          	sw	a7,28(sp)
   1c0c0:	e2df50ef          	jal	11eec <__ledf2>
   1c0c4:	02012f83          	lw	t6,32(sp)
   1c0c8:	02055863          	bgez	a0,1c0f8 <__gdtoa+0x2fc>
   1c0cc:	000c0513          	mv	a0,s8
   1c0d0:	db1f60ef          	jal	12e80 <__floatsidf>
   1c0d4:	05b12c23          	sw	s11,88(sp)
   1c0d8:	04912e23          	sw	s1,92(sp)
   1c0dc:	05812603          	lw	a2,88(sp)
   1c0e0:	05c12683          	lw	a3,92(sp)
   1c0e4:	cadf50ef          	jal	11d90 <__eqdf2>
   1c0e8:	00a03533          	snez	a0,a0
   1c0ec:	02012f83          	lw	t6,32(sp)
   1c0f0:	40ac07b3          	sub	a5,s8,a0
   1c0f4:	00f12e23          	sw	a5,28(sp)
   1c0f8:	014c9613          	slli	a2,s9,0x14
   1c0fc:	01c12483          	lw	s1,28(sp)
   1c100:	419a8cb3          	sub	s9,s5,s9
   1c104:	01260c33          	add	s8,a2,s2
   1c108:	fffc8913          	addi	s2,s9,-1
   1c10c:	01600693          	li	a3,22
   1c110:	03212023          	sw	s2,32(sp)
   1c114:	1896ee63          	bltu	a3,s1,1c2b0 <__gdtoa+0x4b4>
   1c118:	06012603          	lw	a2,96(sp)
   1c11c:	00021e37          	lui	t3,0x21
   1c120:	5c8e0593          	addi	a1,t3,1480 # 215c8 <__mprec_tens>
   1c124:	00349693          	slli	a3,s1,0x3
   1c128:	00b686b3          	add	a3,a3,a1
   1c12c:	04c12423          	sw	a2,72(sp)
   1c130:	05812623          	sw	s8,76(sp)
   1c134:	0006a503          	lw	a0,0(a3)
   1c138:	0046a583          	lw	a1,4(a3)
   1c13c:	04812603          	lw	a2,72(sp)
   1c140:	04c12683          	lw	a3,76(sp)
   1c144:	03f12423          	sw	t6,40(sp)
   1c148:	cd5f50ef          	jal	11e1c <__gedf2>
   1c14c:	02812f83          	lw	t6,40(sp)
   1c150:	64a04063          	bgtz	a0,1c790 <__gdtoa+0x994>
   1c154:	01904463          	bgtz	s9,1c15c <__gdtoa+0x360>
   1c158:	05c0106f          	j	1d1b4 <__gdtoa+0x13b8>
   1c15c:	009907b3          	add	a5,s2,s1
   1c160:	02f12023          	sw	a5,32(sp)
   1c164:	06012223          	sw	zero,100(sp)
   1c168:	04912423          	sw	s1,72(sp)
   1c16c:	02012823          	sw	zero,48(sp)
   1c170:	04012023          	sw	zero,64(sp)
   1c174:	1740006f          	j	1c2e8 <__gdtoa+0x4ec>
   1c178:	00400793          	li	a5,4
   1c17c:	06fe1c63          	bne	t3,a5,1c1f4 <__gdtoa+0x3f8>
   1c180:	00012703          	lw	a4,0(sp)
   1c184:	00412603          	lw	a2,4(sp)
   1c188:	1e012b03          	lw	s6,480(sp)
   1c18c:	1cc12d83          	lw	s11,460(sp)
   1c190:	1fc12083          	lw	ra,508(sp)
   1c194:	1d012d03          	lw	s10,464(sp)
   1c198:	ffff87b7          	lui	a5,0xffff8
   1c19c:	000215b7          	lui	a1,0x21
   1c1a0:	00f72023          	sw	a5,0(a4)
   1c1a4:	000e8693          	mv	a3,t4
   1c1a8:	22458593          	addi	a1,a1,548 # 21224 <_getpid_r+0xec>
   1c1ac:	20010113          	addi	sp,sp,512
   1c1b0:	3ad0106f          	j	1dd5c <__nrv_alloc_D2A>
   1c1b4:	000b8593          	mv	a1,s7
   1c1b8:	00040513          	mv	a0,s0
   1c1bc:	01f12423          	sw	t6,8(sp)
   1c1c0:	0e5020ef          	jal	1eaa4 <__lshift>
   1c1c4:	00812f83          	lw	t6,8(sp)
   1c1c8:	00050b93          	mv	s7,a0
   1c1cc:	0a051ae3          	bnez	a0,1ca80 <__gdtoa+0xc84>
   1c1d0:	1f812403          	lw	s0,504(sp)
   1c1d4:	1f412483          	lw	s1,500(sp)
   1c1d8:	1f012903          	lw	s2,496(sp)
   1c1dc:	1ec12983          	lw	s3,492(sp)
   1c1e0:	1e812a03          	lw	s4,488(sp)
   1c1e4:	1e412a83          	lw	s5,484(sp)
   1c1e8:	1dc12b83          	lw	s7,476(sp)
   1c1ec:	1d812c03          	lw	s8,472(sp)
   1c1f0:	1d412c83          	lw	s9,468(sp)
   1c1f4:	00000d93          	li	s11,0
   1c1f8:	1fc12083          	lw	ra,508(sp)
   1c1fc:	1e012b03          	lw	s6,480(sp)
   1c200:	1d012d03          	lw	s10,464(sp)
   1c204:	000d8513          	mv	a0,s11
   1c208:	1cc12d83          	lw	s11,460(sp)
   1c20c:	20010113          	addi	sp,sp,512
   1c210:	00008067          	ret
   1c214:	00078593          	mv	a1,a5
   1c218:	00040513          	mv	a0,s0
   1c21c:	084020ef          	jal	1e2a0 <_Bfree>
   1c220:	1ec12983          	lw	s3,492(sp)
   1c224:	1e812a03          	lw	s4,488(sp)
   1c228:	1e412a83          	lw	s5,484(sp)
   1c22c:	1dc12b83          	lw	s7,476(sp)
   1c230:	1d812c03          	lw	s8,472(sp)
   1c234:	00012783          	lw	a5,0(sp)
   1c238:	00412603          	lw	a2,4(sp)
   1c23c:	00100693          	li	a3,1
   1c240:	000215b7          	lui	a1,0x21
   1c244:	00040513          	mv	a0,s0
   1c248:	00d7a023          	sw	a3,0(a5) # ffff8000 <__global_pointer$+0xfffd5148>
   1c24c:	21458593          	addi	a1,a1,532 # 21214 <_getpid_r+0xdc>
   1c250:	30d010ef          	jal	1dd5c <__nrv_alloc_D2A>
   1c254:	1fc12083          	lw	ra,508(sp)
   1c258:	1f812403          	lw	s0,504(sp)
   1c25c:	00050d93          	mv	s11,a0
   1c260:	1e012b03          	lw	s6,480(sp)
   1c264:	1d012d03          	lw	s10,464(sp)
   1c268:	000d8513          	mv	a0,s11
   1c26c:	1cc12d83          	lw	s11,460(sp)
   1c270:	20010113          	addi	sp,sp,512
   1c274:	00008067          	ret
   1c278:	00012703          	lw	a4,0(sp)
   1c27c:	00412603          	lw	a2,4(sp)
   1c280:	1fc12083          	lw	ra,508(sp)
   1c284:	1d012d03          	lw	s10,464(sp)
   1c288:	ffff87b7          	lui	a5,0xffff8
   1c28c:	000215b7          	lui	a1,0x21
   1c290:	00f72023          	sw	a5,0(a4)
   1c294:	21858593          	addi	a1,a1,536 # 21218 <_getpid_r+0xe0>
   1c298:	00800693          	li	a3,8
   1c29c:	20010113          	addi	sp,sp,512
   1c2a0:	2bd0106f          	j	1dd5c <__nrv_alloc_D2A>
   1c2a4:	01012783          	lw	a5,16(sp)
   1c2a8:	0007a823          	sw	zero,16(a5) # ffff8010 <__global_pointer$+0xfffd5158>
   1c2ac:	c95ff06f          	j	1bf40 <__gdtoa+0x144>
   1c2b0:	00100793          	li	a5,1
   1c2b4:	06f12223          	sw	a5,100(sp)
   1c2b8:	02012783          	lw	a5,32(sp)
   1c2bc:	02012823          	sw	zero,48(sp)
   1c2c0:	4a07ce63          	bltz	a5,1c77c <__gdtoa+0x980>
   1c2c4:	01c12783          	lw	a5,28(sp)
   1c2c8:	4807d463          	bgez	a5,1c750 <__gdtoa+0x954>
   1c2cc:	03012703          	lw	a4,48(sp)
   1c2d0:	01c12783          	lw	a5,28(sp)
   1c2d4:	04012423          	sw	zero,72(sp)
   1c2d8:	40f70733          	sub	a4,a4,a5
   1c2dc:	40f007b3          	neg	a5,a5
   1c2e0:	02e12823          	sw	a4,48(sp)
   1c2e4:	04f12023          	sw	a5,64(sp)
   1c2e8:	00900693          	li	a3,9
   1c2ec:	1d36eee3          	bltu	a3,s3,1ccc8 <__gdtoa+0xecc>
   1c2f0:	00500613          	li	a2,5
   1c2f4:	353658e3          	bge	a2,s3,1ce44 <__gdtoa+0x1048>
   1c2f8:	ffc98993          	addi	s3,s3,-4
   1c2fc:	00400693          	li	a3,4
   1c300:	20d98ee3          	beq	s3,a3,1cd1c <__gdtoa+0xf20>
   1c304:	68c98ee3          	beq	s3,a2,1d1a0 <__gdtoa+0x13a4>
   1c308:	00200693          	li	a3,2
   1c30c:	04012c23          	sw	zero,88(sp)
   1c310:	00000493          	li	s1,0
   1c314:	20d98ae3          	beq	s3,a3,1cd28 <__gdtoa+0xf2c>
   1c318:	00300993          	li	s3,3
   1c31c:	01412783          	lw	a5,20(sp)
   1c320:	01c12703          	lw	a4,28(sp)
   1c324:	00e787b3          	add	a5,a5,a4
   1c328:	08f12c23          	sw	a5,152(sp)
   1c32c:	00178793          	addi	a5,a5,1
   1c330:	02f12423          	sw	a5,40(sp)
   1c334:	58f052e3          	blez	a5,1d0b8 <__gdtoa+0x12bc>
   1c338:	00078693          	mv	a3,a5
   1c33c:	00078593          	mv	a1,a5
   1c340:	00040513          	mv	a0,s0
   1c344:	05f12a23          	sw	t6,84(sp)
   1c348:	1ad12e23          	sw	a3,444(sp)
   1c34c:	1a5010ef          	jal	1dcf0 <__rv_alloc_D2A>
   1c350:	00050d93          	mv	s11,a0
   1c354:	e6050ee3          	beqz	a0,1c1d0 <__gdtoa+0x3d4>
   1c358:	01812783          	lw	a5,24(sp)
   1c35c:	05412f83          	lw	t6,84(sp)
   1c360:	00c7a783          	lw	a5,12(a5)
   1c364:	fff78793          	addi	a5,a5,-1
   1c368:	02f12c23          	sw	a5,56(sp)
   1c36c:	02078463          	beqz	a5,1c394 <__gdtoa+0x598>
   1c370:	0007d663          	bgez	a5,1c37c <__gdtoa+0x580>
   1c374:	00200793          	li	a5,2
   1c378:	02f12c23          	sw	a5,56(sp)
   1c37c:	100d7313          	andi	t1,s10,256
   1c380:	42030263          	beqz	t1,1c7a4 <__gdtoa+0x9a8>
   1c384:	03812783          	lw	a5,56(sp)
   1c388:	00300693          	li	a3,3
   1c38c:	40f687b3          	sub	a5,a3,a5
   1c390:	02f12c23          	sw	a5,56(sp)
   1c394:	02812903          	lw	s2,40(sp)
   1c398:	00e00693          	li	a3,14
   1c39c:	4126e463          	bltu	a3,s2,1c7a4 <__gdtoa+0x9a8>
   1c3a0:	40048263          	beqz	s1,1c7a4 <__gdtoa+0x9a8>
   1c3a4:	03812783          	lw	a5,56(sp)
   1c3a8:	01c12703          	lw	a4,28(sp)
   1c3ac:	00e7e6b3          	or	a3,a5,a4
   1c3b0:	3e069a63          	bnez	a3,1c7a4 <__gdtoa+0x9a8>
   1c3b4:	06412783          	lw	a5,100(sp)
   1c3b8:	1a012e23          	sw	zero,444(sp)
   1c3bc:	09812e23          	sw	s8,156(sp)
   1c3c0:	06012483          	lw	s1,96(sp)
   1c3c4:	02078863          	beqz	a5,1c3f4 <__gdtoa+0x5f8>
   1c3c8:	0c912023          	sw	s1,192(sp)
   1c3cc:	0d812223          	sw	s8,196(sp)
   1c3d0:	8301a603          	lw	a2,-2000(gp) # 226e8 <__global_locale+0x1a0>
   1c3d4:	0c012503          	lw	a0,192(sp)
   1c3d8:	0c412583          	lw	a1,196(sp)
   1c3dc:	8341a683          	lw	a3,-1996(gp) # 226ec <__global_locale+0x1a4>
   1c3e0:	03f12c23          	sw	t6,56(sp)
   1c3e4:	b09f50ef          	jal	11eec <__ledf2>
   1c3e8:	03812f83          	lw	t6,56(sp)
   1c3ec:	00055463          	bgez	a0,1c3f4 <__gdtoa+0x5f8>
   1c3f0:	5540106f          	j	1d944 <__gdtoa+0x1b48>
   1c3f4:	06012783          	lw	a5,96(sp)
   1c3f8:	03f12c23          	sw	t6,56(sp)
   1c3fc:	0af12023          	sw	a5,160(sp)
   1c400:	0af12423          	sw	a5,168(sp)
   1c404:	09c12783          	lw	a5,156(sp)
   1c408:	0a012603          	lw	a2,160(sp)
   1c40c:	0a812503          	lw	a0,168(sp)
   1c410:	0af12223          	sw	a5,164(sp)
   1c414:	0af12623          	sw	a5,172(sp)
   1c418:	0a412683          	lw	a3,164(sp)
   1c41c:	0ac12583          	lw	a1,172(sp)
   1c420:	a2df40ef          	jal	10e4c <__adddf3>
   1c424:	8481a603          	lw	a2,-1976(gp) # 22700 <__global_locale+0x1b8>
   1c428:	84c1a683          	lw	a3,-1972(gp) # 22704 <__global_locale+0x1bc>
   1c42c:	a21f40ef          	jal	10e4c <__adddf3>
   1c430:	02812783          	lw	a5,40(sp)
   1c434:	fcc006b7          	lui	a3,0xfcc00
   1c438:	03812f83          	lw	t6,56(sp)
   1c43c:	00050913          	mv	s2,a0
   1c440:	00b68cb3          	add	s9,a3,a1
   1c444:	00079463          	bnez	a5,1c44c <__gdtoa+0x650>
   1c448:	0180106f          	j	1d460 <__gdtoa+0x1664>
   1c44c:	02812783          	lw	a5,40(sp)
   1c450:	06012703          	lw	a4,96(sp)
   1c454:	09c12f03          	lw	t5,156(sp)
   1c458:	0a012023          	sw	zero,160(sp)
   1c45c:	04f12a23          	sw	a5,84(sp)
   1c460:	05412783          	lw	a5,84(sp)
   1c464:	00021e37          	lui	t3,0x21
   1c468:	5c8e0613          	addi	a2,t3,1480 # 215c8 <__mprec_tens>
   1c46c:	00379693          	slli	a3,a5,0x3
   1c470:	05812783          	lw	a5,88(sp)
   1c474:	00c686b3          	add	a3,a3,a2
   1c478:	0be12423          	sw	t5,168(sp)
   1c47c:	02e12c23          	sw	a4,56(sp)
   1c480:	ff86a603          	lw	a2,-8(a3) # fcbffff8 <__global_pointer$+0xfcbdd140>
   1c484:	ffc6a683          	lw	a3,-4(a3)
   1c488:	00079463          	bnez	a5,1c490 <__gdtoa+0x694>
   1c48c:	2b00106f          	j	1d73c <__gdtoa+0x1940>
   1c490:	8581a503          	lw	a0,-1960(gp) # 22710 <__global_locale+0x1c8>
   1c494:	85c1a583          	lw	a1,-1956(gp) # 22714 <__global_locale+0x1cc>
   1c498:	0df12423          	sw	t6,200(sp)
   1c49c:	13c12823          	sw	t3,304(sp)
   1c4a0:	92cf50ef          	jal	115cc <__divdf3>
   1c4a4:	11212023          	sw	s2,256(sp)
   1c4a8:	11912223          	sw	s9,260(sp)
   1c4ac:	10012603          	lw	a2,256(sp)
   1c4b0:	10412683          	lw	a3,260(sp)
   1c4b4:	001d8d13          	addi	s10,s11,1
   1c4b8:	9b8f60ef          	jal	12670 <__subdf3>
   1c4bc:	03812703          	lw	a4,56(sp)
   1c4c0:	0a812f03          	lw	t5,168(sp)
   1c4c4:	00050c93          	mv	s9,a0
   1c4c8:	10e12423          	sw	a4,264(sp)
   1c4cc:	11e12623          	sw	t5,268(sp)
   1c4d0:	00058c13          	mv	s8,a1
   1c4d4:	10812503          	lw	a0,264(sp)
   1c4d8:	10c12583          	lw	a1,268(sp)
   1c4dc:	0ce12023          	sw	a4,192(sp)
   1c4e0:	07e12423          	sw	t5,104(sp)
   1c4e4:	91df60ef          	jal	12e00 <__fixdfsi>
   1c4e8:	02a12c23          	sw	a0,56(sp)
   1c4ec:	995f60ef          	jal	12e80 <__floatsidf>
   1c4f0:	0c012703          	lw	a4,192(sp)
   1c4f4:	06812f03          	lw	t5,104(sp)
   1c4f8:	00050613          	mv	a2,a0
   1c4fc:	10e12823          	sw	a4,272(sp)
   1c500:	11e12a23          	sw	t5,276(sp)
   1c504:	00058693          	mv	a3,a1
   1c508:	11012503          	lw	a0,272(sp)
   1c50c:	11412583          	lw	a1,276(sp)
   1c510:	960f60ef          	jal	12670 <__subdf3>
   1c514:	03812e83          	lw	t4,56(sp)
   1c518:	10a12c23          	sw	a0,280(sp)
   1c51c:	10b12e23          	sw	a1,284(sp)
   1c520:	13912023          	sw	s9,288(sp)
   1c524:	13812223          	sw	s8,292(sp)
   1c528:	11812603          	lw	a2,280(sp)
   1c52c:	11c12683          	lw	a3,284(sp)
   1c530:	00050493          	mv	s1,a0
   1c534:	00058913          	mv	s2,a1
   1c538:	12012503          	lw	a0,288(sp)
   1c53c:	12412583          	lw	a1,292(sp)
   1c540:	030e8e93          	addi	t4,t4,48
   1c544:	01dd8023          	sb	t4,0(s11)
   1c548:	8d5f50ef          	jal	11e1c <__gedf2>
   1c54c:	0c812f83          	lw	t6,200(sp)
   1c550:	00a05463          	blez	a0,1c558 <__gdtoa+0x75c>
   1c554:	52c0106f          	j	1da80 <__gdtoa+0x1c84>
   1c558:	8301a783          	lw	a5,-2000(gp) # 226e8 <__global_locale+0x1a0>
   1c55c:	8341a803          	lw	a6,-1996(gp) # 226ec <__global_locale+0x1a4>
   1c560:	13012e03          	lw	t3,304(sp)
   1c564:	06f12423          	sw	a5,104(sp)
   1c568:	07012623          	sw	a6,108(sp)
   1c56c:	8381a783          	lw	a5,-1992(gp) # 226f0 <__global_locale+0x1a8>
   1c570:	83c1a803          	lw	a6,-1988(gp) # 226f4 <__global_locale+0x1ac>
   1c574:	11312023          	sw	s3,256(sp)
   1c578:	02f12c23          	sw	a5,56(sp)
   1c57c:	03012e23          	sw	a6,60(sp)
   1c580:	0d712823          	sw	s7,208(sp)
   1c584:	0d512c23          	sw	s5,216(sp)
   1c588:	0f612023          	sw	s6,224(sp)
   1c58c:	0bb12423          	sw	s11,168(sp)
   1c590:	0c812023          	sw	s0,192(sp)
   1c594:	0f412c23          	sw	s4,248(sp)
   1c598:	11c12423          	sw	t3,264(sp)
   1c59c:	00048993          	mv	s3,s1
   1c5a0:	0a40006f          	j	1c644 <__gdtoa+0x848>
   1c5a4:	1bc12783          	lw	a5,444(sp)
   1c5a8:	05412703          	lw	a4,84(sp)
   1c5ac:	00178793          	addi	a5,a5,1
   1c5b0:	1af12e23          	sw	a5,444(sp)
   1c5b4:	00e7c463          	blt	a5,a4,1c5bc <__gdtoa+0x7c0>
   1c5b8:	5280106f          	j	1dae0 <__gdtoa+0x1ce4>
   1c5bc:	a01f50ef          	jal	11fbc <__muldf3>
   1c5c0:	07312823          	sw	s3,112(sp)
   1c5c4:	07212a23          	sw	s2,116(sp)
   1c5c8:	03812603          	lw	a2,56(sp)
   1c5cc:	03c12683          	lw	a3,60(sp)
   1c5d0:	00050c93          	mv	s9,a0
   1c5d4:	00058c13          	mv	s8,a1
   1c5d8:	07012503          	lw	a0,112(sp)
   1c5dc:	07412583          	lw	a1,116(sp)
   1c5e0:	001d0d13          	addi	s10,s10,1
   1c5e4:	9d9f50ef          	jal	11fbc <__muldf3>
   1c5e8:	00058993          	mv	s3,a1
   1c5ec:	00050d93          	mv	s11,a0
   1c5f0:	811f60ef          	jal	12e00 <__fixdfsi>
   1c5f4:	00050913          	mv	s2,a0
   1c5f8:	889f60ef          	jal	12e80 <__floatsidf>
   1c5fc:	07312e23          	sw	s3,124(sp)
   1c600:	07b12c23          	sw	s11,120(sp)
   1c604:	00050613          	mv	a2,a0
   1c608:	00058693          	mv	a3,a1
   1c60c:	07812503          	lw	a0,120(sp)
   1c610:	07c12583          	lw	a1,124(sp)
   1c614:	85cf60ef          	jal	12670 <__subdf3>
   1c618:	09912023          	sw	s9,128(sp)
   1c61c:	09812223          	sw	s8,132(sp)
   1c620:	08012603          	lw	a2,128(sp)
   1c624:	08412683          	lw	a3,132(sp)
   1c628:	03090793          	addi	a5,s2,48
   1c62c:	fefd0fa3          	sb	a5,-1(s10)
   1c630:	00050993          	mv	s3,a0
   1c634:	00058913          	mv	s2,a1
   1c638:	8b5f50ef          	jal	11eec <__ledf2>
   1c63c:	00055463          	bgez	a0,1c644 <__gdtoa+0x848>
   1c640:	4300106f          	j	1da70 <__gdtoa+0x1c74>
   1c644:	06812503          	lw	a0,104(sp)
   1c648:	06c12583          	lw	a1,108(sp)
   1c64c:	00098613          	mv	a2,s3
   1c650:	00090693          	mv	a3,s2
   1c654:	81cf60ef          	jal	12670 <__subdf3>
   1c658:	000c8613          	mv	a2,s9
   1c65c:	000c0693          	mv	a3,s8
   1c660:	88df50ef          	jal	11eec <__ledf2>
   1c664:	00050793          	mv	a5,a0
   1c668:	03812603          	lw	a2,56(sp)
   1c66c:	03c12683          	lw	a3,60(sp)
   1c670:	000c8513          	mv	a0,s9
   1c674:	000c0593          	mv	a1,s8
   1c678:	f207d6e3          	bgez	a5,1c5a4 <__gdtoa+0x7a8>
   1c67c:	0a012783          	lw	a5,160(sp)
   1c680:	0a812d83          	lw	s11,168(sp)
   1c684:	0c012403          	lw	s0,192(sp)
   1c688:	0c812f83          	lw	t6,200(sp)
   1c68c:	fffd4c03          	lbu	s8,-1(s10)
   1c690:	00178b93          	addi	s7,a5,1
   1c694:	03900693          	li	a3,57
   1c698:	0140006f          	j	1c6ac <__gdtoa+0x8b0>
   1c69c:	00fd9463          	bne	s11,a5,1c6a4 <__gdtoa+0x8a8>
   1c6a0:	0040106f          	j	1d6a4 <__gdtoa+0x18a8>
   1c6a4:	fff7cc03          	lbu	s8,-1(a5)
   1c6a8:	00078d13          	mv	s10,a5
   1c6ac:	fffd0793          	addi	a5,s10,-1
   1c6b0:	fedc06e3          	beq	s8,a3,1c69c <__gdtoa+0x8a0>
   1c6b4:	001c0693          	addi	a3,s8,1
   1c6b8:	0ff6f693          	zext.b	a3,a3
   1c6bc:	00d78023          	sb	a3,0(a5)
   1c6c0:	000b8493          	mv	s1,s7
   1c6c4:	02000b13          	li	s6,32
   1c6c8:	01012583          	lw	a1,16(sp)
   1c6cc:	00040513          	mv	a0,s0
   1c6d0:	01f12423          	sw	t6,8(sp)
   1c6d4:	3cd010ef          	jal	1e2a0 <_Bfree>
   1c6d8:	00012783          	lw	a5,0(sp)
   1c6dc:	000d0023          	sb	zero,0(s10)
   1c6e0:	00812f83          	lw	t6,8(sp)
   1c6e4:	0097a023          	sw	s1,0(a5)
   1c6e8:	00412783          	lw	a5,4(sp)
   1c6ec:	00078463          	beqz	a5,1c6f4 <__gdtoa+0x8f8>
   1c6f0:	01a7a023          	sw	s10,0(a5)
   1c6f4:	000fa783          	lw	a5,0(t6)
   1c6f8:	1f812403          	lw	s0,504(sp)
   1c6fc:	1f412483          	lw	s1,500(sp)
   1c700:	0167e7b3          	or	a5,a5,s6
   1c704:	1f012903          	lw	s2,496(sp)
   1c708:	1ec12983          	lw	s3,492(sp)
   1c70c:	1e812a03          	lw	s4,488(sp)
   1c710:	1e412a83          	lw	s5,484(sp)
   1c714:	1dc12b83          	lw	s7,476(sp)
   1c718:	1d812c03          	lw	s8,472(sp)
   1c71c:	1d412c83          	lw	s9,468(sp)
   1c720:	00ffa023          	sw	a5,0(t6)
   1c724:	ad5ff06f          	j	1c1f8 <__gdtoa+0x3fc>
   1c728:	00050593          	mv	a1,a0
   1c72c:	01012503          	lw	a0,16(sp)
   1c730:	179010ef          	jal	1e0a8 <__rshift_D2A>
   1c734:	1bc12683          	lw	a3,444(sp)
   1c738:	00812783          	lw	a5,8(sp)
   1c73c:	01c12f83          	lw	t6,28(sp)
   1c740:	40da8ab3          	sub	s5,s5,a3
   1c744:	00f687b3          	add	a5,a3,a5
   1c748:	04f12823          	sw	a5,80(sp)
   1c74c:	815ff06f          	j	1bf60 <__gdtoa+0x164>
   1c750:	02012703          	lw	a4,32(sp)
   1c754:	04f12423          	sw	a5,72(sp)
   1c758:	04012023          	sw	zero,64(sp)
   1c75c:	00f70733          	add	a4,a4,a5
   1c760:	02e12023          	sw	a4,32(sp)
   1c764:	b85ff06f          	j	1c2e8 <__gdtoa+0x4ec>
   1c768:	1f812403          	lw	s0,504(sp)
   1c76c:	1ec12983          	lw	s3,492(sp)
   1c770:	1e812a03          	lw	s4,488(sp)
   1c774:	1dc12b83          	lw	s7,476(sp)
   1c778:	a7dff06f          	j	1c1f4 <__gdtoa+0x3f8>
   1c77c:	00100693          	li	a3,1
   1c780:	419687b3          	sub	a5,a3,s9
   1c784:	02f12823          	sw	a5,48(sp)
   1c788:	02012023          	sw	zero,32(sp)
   1c78c:	b39ff06f          	j	1c2c4 <__gdtoa+0x4c8>
   1c790:	01c12783          	lw	a5,28(sp)
   1c794:	06012223          	sw	zero,100(sp)
   1c798:	fff78793          	addi	a5,a5,-1
   1c79c:	00f12e23          	sw	a5,28(sp)
   1c7a0:	b19ff06f          	j	1c2b8 <__gdtoa+0x4bc>
   1c7a4:	05012783          	lw	a5,80(sp)
   1c7a8:	1a07cc63          	bltz	a5,1c960 <__gdtoa+0xb64>
   1c7ac:	01c12783          	lw	a5,28(sp)
   1c7b0:	00e00693          	li	a3,14
   1c7b4:	1af6c663          	blt	a3,a5,1c960 <__gdtoa+0xb64>
   1c7b8:	000216b7          	lui	a3,0x21
   1c7bc:	5c868693          	addi	a3,a3,1480 # 215c8 <__mprec_tens>
   1c7c0:	00379793          	slli	a5,a5,0x3
   1c7c4:	00d787b3          	add	a5,a5,a3
   1c7c8:	0047a803          	lw	a6,4(a5)
   1c7cc:	0007a783          	lw	a5,0(a5)
   1c7d0:	01012623          	sw	a6,12(sp)
   1c7d4:	00f12423          	sw	a5,8(sp)
   1c7d8:	01412783          	lw	a5,20(sp)
   1c7dc:	2007c8e3          	bltz	a5,1d1ec <__gdtoa+0x13f0>
   1c7e0:	06812a83          	lw	s5,104(sp)
   1c7e4:	00c12d03          	lw	s10,12(sp)
   1c7e8:	00812c83          	lw	s9,8(sp)
   1c7ec:	09512423          	sw	s5,136(sp)
   1c7f0:	09812623          	sw	s8,140(sp)
   1c7f4:	08812503          	lw	a0,136(sp)
   1c7f8:	08c12583          	lw	a1,140(sp)
   1c7fc:	00100793          	li	a5,1
   1c800:	000d0693          	mv	a3,s10
   1c804:	000c8613          	mv	a2,s9
   1c808:	01f12a23          	sw	t6,20(sp)
   1c80c:	1af12e23          	sw	a5,444(sp)
   1c810:	dbdf40ef          	jal	115cc <__divdf3>
   1c814:	decf60ef          	jal	12e00 <__fixdfsi>
   1c818:	00050993          	mv	s3,a0
   1c81c:	e64f60ef          	jal	12e80 <__floatsidf>
   1c820:	000d0693          	mv	a3,s10
   1c824:	000c8613          	mv	a2,s9
   1c828:	f94f50ef          	jal	11fbc <__muldf3>
   1c82c:	09512823          	sw	s5,144(sp)
   1c830:	09812a23          	sw	s8,148(sp)
   1c834:	00050613          	mv	a2,a0
   1c838:	00058693          	mv	a3,a1
   1c83c:	09012503          	lw	a0,144(sp)
   1c840:	09412583          	lw	a1,148(sp)
   1c844:	001d8d13          	addi	s10,s11,1
   1c848:	e29f50ef          	jal	12670 <__subdf3>
   1c84c:	01c12703          	lw	a4,28(sp)
   1c850:	03098793          	addi	a5,s3,48
   1c854:	00000613          	li	a2,0
   1c858:	00000693          	li	a3,0
   1c85c:	00fd8023          	sb	a5,0(s11)
   1c860:	00170b93          	addi	s7,a4,1
   1c864:	00050a93          	mv	s5,a0
   1c868:	00058a13          	mv	s4,a1
   1c86c:	d24f50ef          	jal	11d90 <__eqdf2>
   1c870:	01412f83          	lw	t6,20(sp)
   1c874:	000b8493          	mv	s1,s7
   1c878:	e40508e3          	beqz	a0,1c6c8 <__gdtoa+0x8cc>
   1c87c:	02812903          	lw	s2,40(sp)
   1c880:	00812c23          	sw	s0,24(sp)
   1c884:	8381ac03          	lw	s8,-1992(gp) # 226f0 <__global_locale+0x1a8>
   1c888:	83c1ac83          	lw	s9,-1988(gp) # 226f4 <__global_locale+0x1ac>
   1c88c:	03612423          	sw	s6,40(sp)
   1c890:	01712a23          	sw	s7,20(sp)
   1c894:	01f12e23          	sw	t6,28(sp)
   1c898:	03712023          	sw	s7,32(sp)
   1c89c:	000a8413          	mv	s0,s5
   1c8a0:	000a0493          	mv	s1,s4
   1c8a4:	0700006f          	j	1c914 <__gdtoa+0xb18>
   1c8a8:	1bc12e23          	sw	t3,444(sp)
   1c8ac:	f10f50ef          	jal	11fbc <__muldf3>
   1c8b0:	00812603          	lw	a2,8(sp)
   1c8b4:	00c12683          	lw	a3,12(sp)
   1c8b8:	00050493          	mv	s1,a0
   1c8bc:	00058413          	mv	s0,a1
   1c8c0:	d0df40ef          	jal	115cc <__divdf3>
   1c8c4:	d3cf60ef          	jal	12e00 <__fixdfsi>
   1c8c8:	00050993          	mv	s3,a0
   1c8cc:	db4f60ef          	jal	12e80 <__floatsidf>
   1c8d0:	00812603          	lw	a2,8(sp)
   1c8d4:	00c12683          	lw	a3,12(sp)
   1c8d8:	001d0d13          	addi	s10,s10,1
   1c8dc:	ee0f50ef          	jal	11fbc <__muldf3>
   1c8e0:	00050613          	mv	a2,a0
   1c8e4:	00058693          	mv	a3,a1
   1c8e8:	00048513          	mv	a0,s1
   1c8ec:	00040593          	mv	a1,s0
   1c8f0:	d81f50ef          	jal	12670 <__subdf3>
   1c8f4:	03098813          	addi	a6,s3,48
   1c8f8:	00000613          	li	a2,0
   1c8fc:	00000693          	li	a3,0
   1c900:	ff0d0fa3          	sb	a6,-1(s10)
   1c904:	00050413          	mv	s0,a0
   1c908:	00058493          	mv	s1,a1
   1c90c:	c84f50ef          	jal	11d90 <__eqdf2>
   1c910:	0c0504e3          	beqz	a0,1d1d8 <__gdtoa+0x13dc>
   1c914:	1bc12303          	lw	t1,444(sp)
   1c918:	000c0613          	mv	a2,s8
   1c91c:	000c8693          	mv	a3,s9
   1c920:	00040513          	mv	a0,s0
   1c924:	00048593          	mv	a1,s1
   1c928:	00130e13          	addi	t3,t1,1
   1c92c:	f7231ee3          	bne	t1,s2,1c8a8 <__gdtoa+0xaac>
   1c930:	03812703          	lw	a4,56(sp)
   1c934:	01c12f83          	lw	t6,28(sp)
   1c938:	02012b83          	lw	s7,32(sp)
   1c93c:	01812403          	lw	s0,24(sp)
   1c940:	01412483          	lw	s1,20(sp)
   1c944:	4c0700e3          	beqz	a4,1d604 <__gdtoa+0x1808>
   1c948:	00100793          	li	a5,1
   1c94c:	01000b13          	li	s6,16
   1c950:	d6f71ce3          	bne	a4,a5,1c6c8 <__gdtoa+0x8cc>
   1c954:	fffd4c03          	lbu	s8,-1(s10)
   1c958:	d3dff06f          	j	1c694 <__gdtoa+0x898>
   1c95c:	02012c23          	sw	zero,56(sp)
   1c960:	05812783          	lw	a5,88(sp)
   1c964:	48078e63          	beqz	a5,1ce00 <__gdtoa+0x1004>
   1c968:	01812783          	lw	a5,24(sp)
   1c96c:	415b8833          	sub	a6,s7,s5
   1c970:	00180c93          	addi	s9,a6,1
   1c974:	0047a603          	lw	a2,4(a5)
   1c978:	05012783          	lw	a5,80(sp)
   1c97c:	1b912e23          	sw	s9,444(sp)
   1c980:	41078833          	sub	a6,a5,a6
   1c984:	78c85663          	bge	a6,a2,1d110 <__gdtoa+0x1314>
   1c988:	ffd98693          	addi	a3,s3,-3
   1c98c:	ffd6f693          	andi	a3,a3,-3
   1c990:	60068e63          	beqz	a3,1cfac <__gdtoa+0x11b0>
   1c994:	40c78633          	sub	a2,a5,a2
   1c998:	00160c93          	addi	s9,a2,1
   1c99c:	1b912e23          	sw	s9,444(sp)
   1c9a0:	00100613          	li	a2,1
   1c9a4:	04012483          	lw	s1,64(sp)
   1c9a8:	01365a63          	bge	a2,s3,1c9bc <__gdtoa+0xbc0>
   1c9ac:	02812783          	lw	a5,40(sp)
   1c9b0:	00f05663          	blez	a5,1c9bc <__gdtoa+0xbc0>
   1c9b4:	0197d463          	bge	a5,s9,1c9bc <__gdtoa+0xbc0>
   1c9b8:	10c0106f          	j	1dac4 <__gdtoa+0x1cc8>
   1c9bc:	02012783          	lw	a5,32(sp)
   1c9c0:	00100593          	li	a1,1
   1c9c4:	00040513          	mv	a0,s0
   1c9c8:	019787b3          	add	a5,a5,s9
   1c9cc:	05f12823          	sw	t6,80(sp)
   1c9d0:	02f12023          	sw	a5,32(sp)
   1c9d4:	3ed010ef          	jal	1e5c0 <__i2b>
   1c9d8:	00050c13          	mv	s8,a0
   1c9dc:	fe050a63          	beqz	a0,1c1d0 <__gdtoa+0x3d4>
   1c9e0:	03012783          	lw	a5,48(sp)
   1c9e4:	05012f83          	lw	t6,80(sp)
   1c9e8:	160798e3          	bnez	a5,1d358 <__gdtoa+0x155c>
   1c9ec:	04012783          	lw	a5,64(sp)
   1c9f0:	03912823          	sw	s9,48(sp)
   1c9f4:	00000913          	li	s2,0
   1c9f8:	02078463          	beqz	a5,1ca20 <__gdtoa+0xc24>
   1c9fc:	080496e3          	bnez	s1,1d288 <__gdtoa+0x148c>
   1ca00:	04012603          	lw	a2,64(sp)
   1ca04:	01012583          	lw	a1,16(sp)
   1ca08:	00040513          	mv	a0,s0
   1ca0c:	05f12823          	sw	t6,80(sp)
   1ca10:	72d010ef          	jal	1e93c <__pow5mult>
   1ca14:	00a12823          	sw	a0,16(sp)
   1ca18:	05012f83          	lw	t6,80(sp)
   1ca1c:	fa050a63          	beqz	a0,1c1d0 <__gdtoa+0x3d4>
   1ca20:	00100593          	li	a1,1
   1ca24:	00040513          	mv	a0,s0
   1ca28:	05f12823          	sw	t6,80(sp)
   1ca2c:	395010ef          	jal	1e5c0 <__i2b>
   1ca30:	00050b93          	mv	s7,a0
   1ca34:	f8050e63          	beqz	a0,1c1d0 <__gdtoa+0x3d4>
   1ca38:	04812783          	lw	a5,72(sp)
   1ca3c:	05012f83          	lw	t6,80(sp)
   1ca40:	68079263          	bnez	a5,1d0c4 <__gdtoa+0x12c8>
   1ca44:	00100693          	li	a3,1
   1ca48:	01f00513          	li	a0,31
   1ca4c:	7136de63          	bge	a3,s3,1d168 <__gdtoa+0x136c>
   1ca50:	02012783          	lw	a5,32(sp)
   1ca54:	40f50ab3          	sub	s5,a0,a5
   1ca58:	03012783          	lw	a5,48(sp)
   1ca5c:	ffca8a93          	addi	s5,s5,-4
   1ca60:	01fafa93          	andi	s5,s5,31
   1ca64:	00fa8633          	add	a2,s5,a5
   1ca68:	1b512e23          	sw	s5,444(sp)
   1ca6c:	000a8793          	mv	a5,s5
   1ca70:	40c04263          	bgtz	a2,1ce74 <__gdtoa+0x1078>
   1ca74:	02012703          	lw	a4,32(sp)
   1ca78:	00e78633          	add	a2,a5,a4
   1ca7c:	f2c04c63          	bgtz	a2,1c1b4 <__gdtoa+0x3b8>
   1ca80:	06412783          	lw	a5,100(sp)
   1ca84:	40079a63          	bnez	a5,1ce98 <__gdtoa+0x109c>
   1ca88:	02812783          	lw	a5,40(sp)
   1ca8c:	5af05463          	blez	a5,1d034 <__gdtoa+0x1238>
   1ca90:	05812783          	lw	a5,88(sp)
   1ca94:	46078263          	beqz	a5,1cef8 <__gdtoa+0x10fc>
   1ca98:	012a8633          	add	a2,s5,s2
   1ca9c:	08c04ee3          	bgtz	a2,1d338 <__gdtoa+0x153c>
   1caa0:	04812783          	lw	a5,72(sp)
   1caa4:	000c0e93          	mv	t4,s8
   1caa8:	100796e3          	bnez	a5,1d3b4 <__gdtoa+0x15b8>
   1caac:	000d8c93          	mv	s9,s11
   1cab0:	01b12423          	sw	s11,8(sp)
   1cab4:	01012d03          	lw	s10,16(sp)
   1cab8:	00100693          	li	a3,1
   1cabc:	00200493          	li	s1,2
   1cac0:	000e8d93          	mv	s11,t4
   1cac4:	01f12a23          	sw	t6,20(sp)
   1cac8:	0a40006f          	j	1cb6c <__gdtoa+0xd70>
   1cacc:	00040513          	mv	a0,s0
   1cad0:	7d0010ef          	jal	1e2a0 <_Bfree>
   1cad4:	3c0acee3          	bltz	s5,1d6b0 <__gdtoa+0x18b4>
   1cad8:	013aeab3          	or	s5,s5,s3
   1cadc:	000a9863          	bnez	s5,1caec <__gdtoa+0xcf0>
   1cae0:	000a2783          	lw	a5,0(s4)
   1cae4:	0017f793          	andi	a5,a5,1
   1cae8:	3c0784e3          	beqz	a5,1d6b0 <__gdtoa+0x18b4>
   1caec:	03812783          	lw	a5,56(sp)
   1caf0:	00978463          	beq	a5,s1,1caf8 <__gdtoa+0xcfc>
   1caf4:	6f90006f          	j	1d9ec <__gdtoa+0x1bf0>
   1caf8:	016c8023          	sb	s6,0(s9)
   1cafc:	1bc12783          	lw	a5,444(sp)
   1cb00:	02812703          	lw	a4,40(sp)
   1cb04:	001c8c93          	addi	s9,s9,1
   1cb08:	60e78ee3          	beq	a5,a4,1d924 <__gdtoa+0x1b28>
   1cb0c:	000d0593          	mv	a1,s10
   1cb10:	00000693          	li	a3,0
   1cb14:	00a00613          	li	a2,10
   1cb18:	00040513          	mv	a0,s0
   1cb1c:	7a8010ef          	jal	1e2c4 <__multadd>
   1cb20:	00050d13          	mv	s10,a0
   1cb24:	ea050663          	beqz	a0,1c1d0 <__gdtoa+0x3d4>
   1cb28:	000c0593          	mv	a1,s8
   1cb2c:	00000693          	li	a3,0
   1cb30:	00a00613          	li	a2,10
   1cb34:	00040513          	mv	a0,s0
   1cb38:	21bc0863          	beq	s8,s11,1cd48 <__gdtoa+0xf4c>
   1cb3c:	788010ef          	jal	1e2c4 <__multadd>
   1cb40:	00050c13          	mv	s8,a0
   1cb44:	e8050663          	beqz	a0,1c1d0 <__gdtoa+0x3d4>
   1cb48:	000d8593          	mv	a1,s11
   1cb4c:	00000693          	li	a3,0
   1cb50:	00a00613          	li	a2,10
   1cb54:	00040513          	mv	a0,s0
   1cb58:	76c010ef          	jal	1e2c4 <__multadd>
   1cb5c:	00050d93          	mv	s11,a0
   1cb60:	e6050863          	beqz	a0,1c1d0 <__gdtoa+0x3d4>
   1cb64:	1bc12683          	lw	a3,444(sp)
   1cb68:	00168693          	addi	a3,a3,1
   1cb6c:	000b8593          	mv	a1,s7
   1cb70:	000d0513          	mv	a0,s10
   1cb74:	1ad12e23          	sw	a3,444(sp)
   1cb78:	2b4010ef          	jal	1de2c <__quorem_D2A>
   1cb7c:	00050913          	mv	s2,a0
   1cb80:	000c0593          	mv	a1,s8
   1cb84:	000d0513          	mv	a0,s10
   1cb88:	0a8020ef          	jal	1ec30 <__mcmp>
   1cb8c:	000b8593          	mv	a1,s7
   1cb90:	00050a93          	mv	s5,a0
   1cb94:	000d8613          	mv	a2,s11
   1cb98:	00040513          	mv	a0,s0
   1cb9c:	0ec020ef          	jal	1ec88 <__mdiff>
   1cba0:	03090b13          	addi	s6,s2,48
   1cba4:	00050593          	mv	a1,a0
   1cba8:	e2050463          	beqz	a0,1c1d0 <__gdtoa+0x3d4>
   1cbac:	00c52783          	lw	a5,12(a0)
   1cbb0:	f0079ee3          	bnez	a5,1cacc <__gdtoa+0xcd0>
   1cbb4:	00a12823          	sw	a0,16(sp)
   1cbb8:	000d0513          	mv	a0,s10
   1cbbc:	074020ef          	jal	1ec30 <__mcmp>
   1cbc0:	01012583          	lw	a1,16(sp)
   1cbc4:	00050693          	mv	a3,a0
   1cbc8:	00040513          	mv	a0,s0
   1cbcc:	00d12823          	sw	a3,16(sp)
   1cbd0:	6d0010ef          	jal	1e2a0 <_Bfree>
   1cbd4:	01012683          	lw	a3,16(sp)
   1cbd8:	0136e733          	or	a4,a3,s3
   1cbdc:	00070463          	beqz	a4,1cbe4 <__gdtoa+0xde8>
   1cbe0:	0400106f          	j	1dc20 <__gdtoa+0x1e24>
   1cbe4:	000a2783          	lw	a5,0(s4)
   1cbe8:	0017f793          	andi	a5,a5,1
   1cbec:	16079863          	bnez	a5,1cd5c <__gdtoa+0xf60>
   1cbf0:	03812783          	lw	a5,56(sp)
   1cbf4:	00079463          	bnez	a5,1cbfc <__gdtoa+0xe00>
   1cbf8:	7290006f          	j	1db20 <__gdtoa+0x1d24>
   1cbfc:	ef504ee3          	bgtz	s5,1caf8 <__gdtoa+0xcfc>
   1cc00:	010d2603          	lw	a2,16(s10)
   1cc04:	01a12823          	sw	s10,16(sp)
   1cc08:	00100693          	li	a3,1
   1cc0c:	000b0813          	mv	a6,s6
   1cc10:	000d8e93          	mv	t4,s11
   1cc14:	01412f83          	lw	t6,20(sp)
   1cc18:	00812d83          	lw	s11,8(sp)
   1cc1c:	00070b13          	mv	s6,a4
   1cc20:	000d0793          	mv	a5,s10
   1cc24:	00c6c463          	blt	a3,a2,1cc2c <__gdtoa+0xe30>
   1cc28:	0540106f          	j	1dc7c <__gdtoa+0x1e80>
   1cc2c:	03812783          	lw	a5,56(sp)
   1cc30:	00200693          	li	a3,2
   1cc34:	00d79463          	bne	a5,a3,1cc3c <__gdtoa+0xe40>
   1cc38:	7a90006f          	j	1dbe0 <__gdtoa+0x1de4>
   1cc3c:	01012903          	lw	s2,16(sp)
   1cc40:	00080493          	mv	s1,a6
   1cc44:	000e8a13          	mv	s4,t4
   1cc48:	000f8a93          	mv	s5,t6
   1cc4c:	0240006f          	j	1cc70 <__gdtoa+0xe74>
   1cc50:	674010ef          	jal	1e2c4 <__multadd>
   1cc54:	000b8593          	mv	a1,s7
   1cc58:	00050913          	mv	s2,a0
   1cc5c:	d6050a63          	beqz	a0,1c1d0 <__gdtoa+0x3d4>
   1cc60:	1cc010ef          	jal	1de2c <__quorem_D2A>
   1cc64:	00048a13          	mv	s4,s1
   1cc68:	00098c93          	mv	s9,s3
   1cc6c:	03050493          	addi	s1,a0,48
   1cc70:	000a0593          	mv	a1,s4
   1cc74:	000b8513          	mv	a0,s7
   1cc78:	7b9010ef          	jal	1ec30 <__mcmp>
   1cc7c:	00050793          	mv	a5,a0
   1cc80:	00000693          	li	a3,0
   1cc84:	00a00613          	li	a2,10
   1cc88:	000a0593          	mv	a1,s4
   1cc8c:	00040513          	mv	a0,s0
   1cc90:	001c8993          	addi	s3,s9,1
   1cc94:	00f04463          	bgtz	a5,1cc9c <__gdtoa+0xea0>
   1cc98:	7290006f          	j	1dbc0 <__gdtoa+0x1dc4>
   1cc9c:	fe998fa3          	sb	s1,-1(s3)
   1cca0:	624010ef          	jal	1e2c4 <__multadd>
   1cca4:	00050493          	mv	s1,a0
   1cca8:	00000693          	li	a3,0
   1ccac:	00a00613          	li	a2,10
   1ccb0:	00090593          	mv	a1,s2
   1ccb4:	00040513          	mv	a0,s0
   1ccb8:	d0048c63          	beqz	s1,1c1d0 <__gdtoa+0x3d4>
   1ccbc:	f94c1ae3          	bne	s8,s4,1cc50 <__gdtoa+0xe54>
   1ccc0:	00048c13          	mv	s8,s1
   1ccc4:	f8dff06f          	j	1cc50 <__gdtoa+0xe54>
   1ccc8:	05412783          	lw	a5,84(sp)
   1cccc:	00000993          	li	s3,0
   1ccd0:	3fd78693          	addi	a3,a5,1021
   1ccd4:	7f86b493          	sltiu	s1,a3,2040
   1ccd8:	000b8513          	mv	a0,s7
   1ccdc:	03f12c23          	sw	t6,56(sp)
   1cce0:	9a0f60ef          	jal	12e80 <__floatsidf>
   1cce4:	8281a603          	lw	a2,-2008(gp) # 226e0 <__global_locale+0x198>
   1cce8:	82c1a683          	lw	a3,-2004(gp) # 226e4 <__global_locale+0x19c>
   1ccec:	ad0f50ef          	jal	11fbc <__muldf3>
   1ccf0:	910f60ef          	jal	12e00 <__fixdfsi>
   1ccf4:	fff00793          	li	a5,-1
   1ccf8:	00350593          	addi	a1,a0,3
   1ccfc:	08f12c23          	sw	a5,152(sp)
   1cd00:	02f12423          	sw	a5,40(sp)
   1cd04:	00100793          	li	a5,1
   1cd08:	03812f83          	lw	t6,56(sp)
   1cd0c:	00058693          	mv	a3,a1
   1cd10:	00012a23          	sw	zero,20(sp)
   1cd14:	04f12c23          	sw	a5,88(sp)
   1cd18:	e28ff06f          	j	1c340 <__gdtoa+0x544>
   1cd1c:	00100793          	li	a5,1
   1cd20:	00000493          	li	s1,0
   1cd24:	04f12c23          	sw	a5,88(sp)
   1cd28:	01412583          	lw	a1,20(sp)
   1cd2c:	00b04463          	bgtz	a1,1cd34 <__gdtoa+0xf38>
   1cd30:	00100593          	li	a1,1
   1cd34:	00058693          	mv	a3,a1
   1cd38:	08b12c23          	sw	a1,152(sp)
   1cd3c:	02b12423          	sw	a1,40(sp)
   1cd40:	00b12a23          	sw	a1,20(sp)
   1cd44:	dfcff06f          	j	1c340 <__gdtoa+0x544>
   1cd48:	57c010ef          	jal	1e2c4 <__multadd>
   1cd4c:	00050c13          	mv	s8,a0
   1cd50:	c8050063          	beqz	a0,1c1d0 <__gdtoa+0x3d4>
   1cd54:	00050d93          	mv	s11,a0
   1cd58:	e0dff06f          	j	1cb64 <__gdtoa+0xd68>
   1cd5c:	d80adee3          	bgez	s5,1caf8 <__gdtoa+0xcfc>
   1cd60:	03812783          	lw	a5,56(sp)
   1cd64:	01a12823          	sw	s10,16(sp)
   1cd68:	000b0813          	mv	a6,s6
   1cd6c:	000d8e93          	mv	t4,s11
   1cd70:	01412f83          	lw	t6,20(sp)
   1cd74:	00812d83          	lw	s11,8(sp)
   1cd78:	00070b13          	mv	s6,a4
   1cd7c:	6e0796e3          	bnez	a5,1dc68 <__gdtoa+0x1e6c>
   1cd80:	01012783          	lw	a5,16(sp)
   1cd84:	00100693          	li	a3,1
   1cd88:	01000b13          	li	s6,16
   1cd8c:	0107a603          	lw	a2,16(a5)
   1cd90:	00dc89b3          	add	s3,s9,a3
   1cd94:	60c6dee3          	bge	a3,a2,1dbb0 <__gdtoa+0x1db4>
   1cd98:	000c0a13          	mv	s4,s8
   1cd9c:	00098d13          	mv	s10,s3
   1cda0:	010c8023          	sb	a6,0(s9)
   1cda4:	000e8c13          	mv	s8,t4
   1cda8:	000b8593          	mv	a1,s7
   1cdac:	00040513          	mv	a0,s0
   1cdb0:	01f12423          	sw	t6,8(sp)
   1cdb4:	4ec010ef          	jal	1e2a0 <_Bfree>
   1cdb8:	00812f83          	lw	t6,8(sp)
   1cdbc:	760c0263          	beqz	s8,1d520 <__gdtoa+0x1724>
   1cdc0:	000a0e63          	beqz	s4,1cddc <__gdtoa+0xfe0>
   1cdc4:	018a0c63          	beq	s4,s8,1cddc <__gdtoa+0xfe0>
   1cdc8:	000a0593          	mv	a1,s4
   1cdcc:	00040513          	mv	a0,s0
   1cdd0:	01f12423          	sw	t6,8(sp)
   1cdd4:	4cc010ef          	jal	1e2a0 <_Bfree>
   1cdd8:	00812f83          	lw	t6,8(sp)
   1cddc:	000c0593          	mv	a1,s8
   1cde0:	00040513          	mv	a0,s0
   1cde4:	01f12423          	sw	t6,8(sp)
   1cde8:	4b8010ef          	jal	1e2a0 <_Bfree>
   1cdec:	01c12783          	lw	a5,28(sp)
   1cdf0:	00812f83          	lw	t6,8(sp)
   1cdf4:	00178493          	addi	s1,a5,1
   1cdf8:	8d1ff06f          	j	1c6c8 <__gdtoa+0x8cc>
   1cdfc:	02012c23          	sw	zero,56(sp)
   1ce00:	03012783          	lw	a5,48(sp)
   1ce04:	30079e63          	bnez	a5,1d120 <__gdtoa+0x1324>
   1ce08:	04012783          	lw	a5,64(sp)
   1ce0c:	00000913          	li	s2,0
   1ce10:	00000c13          	li	s8,0
   1ce14:	c00786e3          	beqz	a5,1ca20 <__gdtoa+0xc24>
   1ce18:	04012603          	lw	a2,64(sp)
   1ce1c:	01012583          	lw	a1,16(sp)
   1ce20:	00040513          	mv	a0,s0
   1ce24:	05f12823          	sw	t6,80(sp)
   1ce28:	315010ef          	jal	1e93c <__pow5mult>
   1ce2c:	00a12823          	sw	a0,16(sp)
   1ce30:	ba050063          	beqz	a0,1c1d0 <__gdtoa+0x3d4>
   1ce34:	03012903          	lw	s2,48(sp)
   1ce38:	05012f83          	lw	t6,80(sp)
   1ce3c:	00000c13          	li	s8,0
   1ce40:	be1ff06f          	j	1ca20 <__gdtoa+0xc24>
   1ce44:	05412783          	lw	a5,84(sp)
   1ce48:	00400593          	li	a1,4
   1ce4c:	3fd78693          	addi	a3,a5,1021
   1ce50:	7f86b493          	sltiu	s1,a3,2040
   1ce54:	50b98a63          	beq	s3,a1,1d368 <__gdtoa+0x156c>
   1ce58:	34c98663          	beq	s3,a2,1d1a4 <__gdtoa+0x13a8>
   1ce5c:	00200693          	li	a3,2
   1ce60:	50d98a63          	beq	s3,a3,1d374 <__gdtoa+0x1578>
   1ce64:	00300693          	li	a3,3
   1ce68:	04012c23          	sw	zero,88(sp)
   1ce6c:	cad98863          	beq	s3,a3,1c31c <__gdtoa+0x520>
   1ce70:	e69ff06f          	j	1ccd8 <__gdtoa+0xedc>
   1ce74:	01012583          	lw	a1,16(sp)
   1ce78:	00040513          	mv	a0,s0
   1ce7c:	01f12423          	sw	t6,8(sp)
   1ce80:	425010ef          	jal	1eaa4 <__lshift>
   1ce84:	00a12823          	sw	a0,16(sp)
   1ce88:	b4050463          	beqz	a0,1c1d0 <__gdtoa+0x3d4>
   1ce8c:	1bc12783          	lw	a5,444(sp)
   1ce90:	00812f83          	lw	t6,8(sp)
   1ce94:	be1ff06f          	j	1ca74 <__gdtoa+0xc78>
   1ce98:	01012503          	lw	a0,16(sp)
   1ce9c:	000b8593          	mv	a1,s7
   1cea0:	01f12423          	sw	t6,8(sp)
   1cea4:	58d010ef          	jal	1ec30 <__mcmp>
   1cea8:	00812f83          	lw	t6,8(sp)
   1ceac:	bc055ee3          	bgez	a0,1ca88 <__gdtoa+0xc8c>
   1ceb0:	01c12783          	lw	a5,28(sp)
   1ceb4:	01012583          	lw	a1,16(sp)
   1ceb8:	00000693          	li	a3,0
   1cebc:	fff78793          	addi	a5,a5,-1
   1cec0:	00a00613          	li	a2,10
   1cec4:	00040513          	mv	a0,s0
   1cec8:	00f12e23          	sw	a5,28(sp)
   1cecc:	3f8010ef          	jal	1e2c4 <__multadd>
   1ced0:	00a12823          	sw	a0,16(sp)
   1ced4:	ae050e63          	beqz	a0,1c1d0 <__gdtoa+0x3d4>
   1ced8:	05812783          	lw	a5,88(sp)
   1cedc:	00812f83          	lw	t6,8(sp)
   1cee0:	340796e3          	bnez	a5,1da2c <__gdtoa+0x1c30>
   1cee4:	09812783          	lw	a5,152(sp)
   1cee8:	02f12423          	sw	a5,40(sp)
   1ceec:	00f04663          	bgtz	a5,1cef8 <__gdtoa+0x10fc>
   1cef0:	00200793          	li	a5,2
   1cef4:	1537c463          	blt	a5,s3,1d03c <__gdtoa+0x1240>
   1cef8:	02812903          	lw	s2,40(sp)
   1cefc:	01012483          	lw	s1,16(sp)
   1cf00:	000d8c93          	mv	s9,s11
   1cf04:	00100693          	li	a3,1
   1cf08:	000f8993          	mv	s3,t6
   1cf0c:	0180006f          	j	1cf24 <__gdtoa+0x1128>
   1cf10:	3b4010ef          	jal	1e2c4 <__multadd>
   1cf14:	00050493          	mv	s1,a0
   1cf18:	aa050c63          	beqz	a0,1c1d0 <__gdtoa+0x3d4>
   1cf1c:	1bc12683          	lw	a3,444(sp)
   1cf20:	00168693          	addi	a3,a3,1
   1cf24:	000b8593          	mv	a1,s7
   1cf28:	00048513          	mv	a0,s1
   1cf2c:	1ad12e23          	sw	a3,444(sp)
   1cf30:	6fd000ef          	jal	1de2c <__quorem_D2A>
   1cf34:	03050813          	addi	a6,a0,48
   1cf38:	010c8023          	sb	a6,0(s9)
   1cf3c:	1bc12783          	lw	a5,444(sp)
   1cf40:	001c8c93          	addi	s9,s9,1
   1cf44:	00000693          	li	a3,0
   1cf48:	00a00613          	li	a2,10
   1cf4c:	00048593          	mv	a1,s1
   1cf50:	00040513          	mv	a0,s0
   1cf54:	fb27cee3          	blt	a5,s2,1cf10 <__gdtoa+0x1114>
   1cf58:	00912823          	sw	s1,16(sp)
   1cf5c:	00098f93          	mv	t6,s3
   1cf60:	00000a13          	li	s4,0
   1cf64:	03812783          	lw	a5,56(sp)
   1cf68:	5e078663          	beqz	a5,1d554 <__gdtoa+0x1758>
   1cf6c:	00200693          	li	a3,2
   1cf70:	62d78463          	beq	a5,a3,1d598 <__gdtoa+0x179c>
   1cf74:	01012783          	lw	a5,16(sp)
   1cf78:	00100693          	li	a3,1
   1cf7c:	0107a603          	lw	a2,16(a5)
   1cf80:	38c6c663          	blt	a3,a2,1d30c <__gdtoa+0x1510>
   1cf84:	0147a683          	lw	a3,20(a5)
   1cf88:	38069263          	bnez	a3,1d30c <__gdtoa+0x1510>
   1cf8c:	00d036b3          	snez	a3,a3
   1cf90:	00469b13          	slli	s6,a3,0x4
   1cf94:	03000613          	li	a2,48
   1cf98:	000c8d13          	mv	s10,s9
   1cf9c:	fffcc783          	lbu	a5,-1(s9)
   1cfa0:	fffc8c93          	addi	s9,s9,-1
   1cfa4:	fec78ae3          	beq	a5,a2,1cf98 <__gdtoa+0x119c>
   1cfa8:	e01ff06f          	j	1cda8 <__gdtoa+0xfac>
   1cfac:	02812703          	lw	a4,40(sp)
   1cfb0:	04012683          	lw	a3,64(sp)
   1cfb4:	fff70793          	addi	a5,a4,-1
   1cfb8:	2af6c463          	blt	a3,a5,1d260 <__gdtoa+0x1464>
   1cfbc:	40f684b3          	sub	s1,a3,a5
   1cfc0:	260750e3          	bgez	a4,1da20 <__gdtoa+0x1c24>
   1cfc4:	03012783          	lw	a5,48(sp)
   1cfc8:	02812703          	lw	a4,40(sp)
   1cfcc:	00100593          	li	a1,1
   1cfd0:	00040513          	mv	a0,s0
   1cfd4:	05f12823          	sw	t6,80(sp)
   1cfd8:	1a012e23          	sw	zero,444(sp)
   1cfdc:	40e78933          	sub	s2,a5,a4
   1cfe0:	5e0010ef          	jal	1e5c0 <__i2b>
   1cfe4:	05012f83          	lw	t6,80(sp)
   1cfe8:	00050c13          	mv	s8,a0
   1cfec:	9e050263          	beqz	a0,1c1d0 <__gdtoa+0x3d4>
   1cff0:	02012783          	lw	a5,32(sp)
   1cff4:	02f05a63          	blez	a5,1d028 <__gdtoa+0x122c>
   1cff8:	02012783          	lw	a5,32(sp)
   1cffc:	00090693          	mv	a3,s2
   1d000:	0127d463          	bge	a5,s2,1d008 <__gdtoa+0x120c>
   1d004:	00078693          	mv	a3,a5
   1d008:	03012783          	lw	a5,48(sp)
   1d00c:	1ad12e23          	sw	a3,444(sp)
   1d010:	40d90933          	sub	s2,s2,a3
   1d014:	40d787b3          	sub	a5,a5,a3
   1d018:	02f12823          	sw	a5,48(sp)
   1d01c:	02012783          	lw	a5,32(sp)
   1d020:	40d787b3          	sub	a5,a5,a3
   1d024:	02f12023          	sw	a5,32(sp)
   1d028:	04012783          	lw	a5,64(sp)
   1d02c:	9c0798e3          	bnez	a5,1c9fc <__gdtoa+0xc00>
   1d030:	9f1ff06f          	j	1ca20 <__gdtoa+0xc24>
   1d034:	00200793          	li	a5,2
   1d038:	a537dce3          	bge	a5,s3,1ca90 <__gdtoa+0xc94>
   1d03c:	000b8593          	mv	a1,s7
   1d040:	00000693          	li	a3,0
   1d044:	00500613          	li	a2,5
   1d048:	00040513          	mv	a0,s0
   1d04c:	01f12423          	sw	t6,8(sp)
   1d050:	274010ef          	jal	1e2c4 <__multadd>
   1d054:	00050593          	mv	a1,a0
   1d058:	96050c63          	beqz	a0,1c1d0 <__gdtoa+0x3d4>
   1d05c:	02812783          	lw	a5,40(sp)
   1d060:	00812f83          	lw	t6,8(sp)
   1d064:	56079663          	bnez	a5,1d5d0 <__gdtoa+0x17d4>
   1d068:	00a12423          	sw	a0,8(sp)
   1d06c:	01012503          	lw	a0,16(sp)
   1d070:	01f12c23          	sw	t6,24(sp)
   1d074:	3bd010ef          	jal	1ec30 <__mcmp>
   1d078:	00812583          	lw	a1,8(sp)
   1d07c:	01812f83          	lw	t6,24(sp)
   1d080:	54a05863          	blez	a0,1d5d0 <__gdtoa+0x17d4>
   1d084:	03100793          	li	a5,49
   1d088:	00fd8023          	sb	a5,0(s11)
   1d08c:	01c12783          	lw	a5,28(sp)
   1d090:	00040513          	mv	a0,s0
   1d094:	01f12423          	sw	t6,8(sp)
   1d098:	00178993          	addi	s3,a5,1
   1d09c:	204010ef          	jal	1e2a0 <_Bfree>
   1d0a0:	00812f83          	lw	t6,8(sp)
   1d0a4:	001d8d13          	addi	s10,s11,1
   1d0a8:	400c0ae3          	beqz	s8,1dcbc <__gdtoa+0x1ec0>
   1d0ac:	01312e23          	sw	s3,28(sp)
   1d0b0:	02000b13          	li	s6,32
   1d0b4:	d29ff06f          	j	1cddc <__gdtoa+0xfe0>
   1d0b8:	00100693          	li	a3,1
   1d0bc:	00068593          	mv	a1,a3
   1d0c0:	a80ff06f          	j	1c340 <__gdtoa+0x544>
   1d0c4:	00050593          	mv	a1,a0
   1d0c8:	00078613          	mv	a2,a5
   1d0cc:	00040513          	mv	a0,s0
   1d0d0:	06d010ef          	jal	1e93c <__pow5mult>
   1d0d4:	00050b93          	mv	s7,a0
   1d0d8:	00051463          	bnez	a0,1d0e0 <__gdtoa+0x12e4>
   1d0dc:	8f4ff06f          	j	1c1d0 <__gdtoa+0x3d4>
   1d0e0:	00100693          	li	a3,1
   1d0e4:	05012f83          	lw	t6,80(sp)
   1d0e8:	2936da63          	bge	a3,s3,1d37c <__gdtoa+0x1580>
   1d0ec:	010ba783          	lw	a5,16(s7)
   1d0f0:	01f12423          	sw	t6,8(sp)
   1d0f4:	00279793          	slli	a5,a5,0x2
   1d0f8:	00fb87b3          	add	a5,s7,a5
   1d0fc:	0107a503          	lw	a0,16(a5)
   1d100:	330010ef          	jal	1e430 <__hi0bits>
   1d104:	00812f83          	lw	t6,8(sp)
   1d108:	05612423          	sw	s6,72(sp)
   1d10c:	945ff06f          	j	1ca50 <__gdtoa+0xc54>
   1d110:	00100613          	li	a2,1
   1d114:	e9364ce3          	blt	a2,s3,1cfac <__gdtoa+0x11b0>
   1d118:	04012483          	lw	s1,64(sp)
   1d11c:	8a1ff06f          	j	1c9bc <__gdtoa+0xbc0>
   1d120:	02012783          	lw	a5,32(sp)
   1d124:	2e078263          	beqz	a5,1d408 <__gdtoa+0x160c>
   1d128:	03012783          	lw	a5,48(sp)
   1d12c:	02012703          	lw	a4,32(sp)
   1d130:	00078693          	mv	a3,a5
   1d134:	00f75463          	bge	a4,a5,1d13c <__gdtoa+0x1340>
   1d138:	00070693          	mv	a3,a4
   1d13c:	03012783          	lw	a5,48(sp)
   1d140:	1ad12e23          	sw	a3,444(sp)
   1d144:	40d78933          	sub	s2,a5,a3
   1d148:	02012783          	lw	a5,32(sp)
   1d14c:	03212823          	sw	s2,48(sp)
   1d150:	40d787b3          	sub	a5,a5,a3
   1d154:	02f12023          	sw	a5,32(sp)
   1d158:	04012783          	lw	a5,64(sp)
   1d15c:	ca079ee3          	bnez	a5,1ce18 <__gdtoa+0x101c>
   1d160:	00000c13          	li	s8,0
   1d164:	8bdff06f          	j	1ca20 <__gdtoa+0xc24>
   1d168:	8eda94e3          	bne	s5,a3,1ca50 <__gdtoa+0xc54>
   1d16c:	01812783          	lw	a5,24(sp)
   1d170:	0047a683          	lw	a3,4(a5)
   1d174:	00812783          	lw	a5,8(sp)
   1d178:	00168693          	addi	a3,a3,1
   1d17c:	8cf6dae3          	bge	a3,a5,1ca50 <__gdtoa+0xc54>
   1d180:	03012783          	lw	a5,48(sp)
   1d184:	05512423          	sw	s5,72(sp)
   1d188:	00178793          	addi	a5,a5,1
   1d18c:	02f12823          	sw	a5,48(sp)
   1d190:	02012783          	lw	a5,32(sp)
   1d194:	00178793          	addi	a5,a5,1
   1d198:	02f12023          	sw	a5,32(sp)
   1d19c:	8b5ff06f          	j	1ca50 <__gdtoa+0xc54>
   1d1a0:	00000493          	li	s1,0
   1d1a4:	00100793          	li	a5,1
   1d1a8:	00500993          	li	s3,5
   1d1ac:	04f12c23          	sw	a5,88(sp)
   1d1b0:	96cff06f          	j	1c31c <__gdtoa+0x520>
   1d1b4:	00100693          	li	a3,1
   1d1b8:	419687b3          	sub	a5,a3,s9
   1d1bc:	02f12823          	sw	a5,48(sp)
   1d1c0:	01c12783          	lw	a5,28(sp)
   1d1c4:	06012223          	sw	zero,100(sp)
   1d1c8:	04012023          	sw	zero,64(sp)
   1d1cc:	02f12023          	sw	a5,32(sp)
   1d1d0:	04f12423          	sw	a5,72(sp)
   1d1d4:	914ff06f          	j	1c2e8 <__gdtoa+0x4ec>
   1d1d8:	02812b03          	lw	s6,40(sp)
   1d1dc:	01412483          	lw	s1,20(sp)
   1d1e0:	01812403          	lw	s0,24(sp)
   1d1e4:	01c12f83          	lw	t6,28(sp)
   1d1e8:	ce0ff06f          	j	1c6c8 <__gdtoa+0x8cc>
   1d1ec:	02812783          	lw	a5,40(sp)
   1d1f0:	def04863          	bgtz	a5,1c7e0 <__gdtoa+0x9e4>
   1d1f4:	32079c63          	bnez	a5,1d52c <__gdtoa+0x1730>
   1d1f8:	8501a603          	lw	a2,-1968(gp) # 22708 <__global_locale+0x1c0>
   1d1fc:	8541a683          	lw	a3,-1964(gp) # 2270c <__global_locale+0x1c4>
   1d200:	00812503          	lw	a0,8(sp)
   1d204:	00c12583          	lw	a1,12(sp)
   1d208:	01f12c23          	sw	t6,24(sp)
   1d20c:	db1f40ef          	jal	11fbc <__muldf3>
   1d210:	06812783          	lw	a5,104(sp)
   1d214:	17812223          	sw	s8,356(sp)
   1d218:	16412683          	lw	a3,356(sp)
   1d21c:	16f12023          	sw	a5,352(sp)
   1d220:	16012603          	lw	a2,352(sp)
   1d224:	bf9f40ef          	jal	11e1c <__gedf2>
   1d228:	01812f83          	lw	t6,24(sp)
   1d22c:	01f12423          	sw	t6,8(sp)
   1d230:	30055063          	bgez	a0,1d530 <__gdtoa+0x1734>
   1d234:	03100793          	li	a5,49
   1d238:	00fd8023          	sb	a5,0(s11)
   1d23c:	00000593          	li	a1,0
   1d240:	00040513          	mv	a0,s0
   1d244:	05c010ef          	jal	1e2a0 <_Bfree>
   1d248:	01c12783          	lw	a5,28(sp)
   1d24c:	00812f83          	lw	t6,8(sp)
   1d250:	001d8d13          	addi	s10,s11,1
   1d254:	00278493          	addi	s1,a5,2
   1d258:	02000b13          	li	s6,32
   1d25c:	c6cff06f          	j	1c6c8 <__gdtoa+0x8cc>
   1d260:	04012703          	lw	a4,64(sp)
   1d264:	02812c83          	lw	s9,40(sp)
   1d268:	04f12023          	sw	a5,64(sp)
   1d26c:	40e786b3          	sub	a3,a5,a4
   1d270:	04812703          	lw	a4,72(sp)
   1d274:	1b912e23          	sw	s9,444(sp)
   1d278:	00000493          	li	s1,0
   1d27c:	00d70733          	add	a4,a4,a3
   1d280:	04e12423          	sw	a4,72(sp)
   1d284:	f38ff06f          	j	1c9bc <__gdtoa+0xbc0>
   1d288:	000c0593          	mv	a1,s8
   1d28c:	00048613          	mv	a2,s1
   1d290:	00040513          	mv	a0,s0
   1d294:	05f12823          	sw	t6,80(sp)
   1d298:	6a4010ef          	jal	1e93c <__pow5mult>
   1d29c:	00050c13          	mv	s8,a0
   1d2a0:	00051463          	bnez	a0,1d2a8 <__gdtoa+0x14ac>
   1d2a4:	f2dfe06f          	j	1c1d0 <__gdtoa+0x3d4>
   1d2a8:	01012b83          	lw	s7,16(sp)
   1d2ac:	00050593          	mv	a1,a0
   1d2b0:	00040513          	mv	a0,s0
   1d2b4:	000b8613          	mv	a2,s7
   1d2b8:	3b8010ef          	jal	1e670 <__multiply>
   1d2bc:	00050c93          	mv	s9,a0
   1d2c0:	00051463          	bnez	a0,1d2c8 <__gdtoa+0x14cc>
   1d2c4:	f0dfe06f          	j	1c1d0 <__gdtoa+0x3d4>
   1d2c8:	000b8593          	mv	a1,s7
   1d2cc:	00040513          	mv	a0,s0
   1d2d0:	7d1000ef          	jal	1e2a0 <_Bfree>
   1d2d4:	04012783          	lw	a5,64(sp)
   1d2d8:	01912823          	sw	s9,16(sp)
   1d2dc:	05012f83          	lw	t6,80(sp)
   1d2e0:	409787b3          	sub	a5,a5,s1
   1d2e4:	04f12023          	sw	a5,64(sp)
   1d2e8:	f2078c63          	beqz	a5,1ca20 <__gdtoa+0xc24>
   1d2ec:	f14ff06f          	j	1ca00 <__gdtoa+0xc04>
   1d2f0:	000c0a13          	mv	s4,s8
   1d2f4:	000c8693          	mv	a3,s9
   1d2f8:	001c8993          	addi	s3,s9,1
   1d2fc:	000e8c13          	mv	s8,t4
   1d300:	03900613          	li	a2,57
   1d304:	00098c93          	mv	s9,s3
   1d308:	00c68023          	sb	a2,0(a3)
   1d30c:	03900613          	li	a2,57
   1d310:	0080006f          	j	1d318 <__gdtoa+0x151c>
   1d314:	2b9d8063          	beq	s11,s9,1d5b4 <__gdtoa+0x17b8>
   1d318:	fffcc683          	lbu	a3,-1(s9)
   1d31c:	000c8d13          	mv	s10,s9
   1d320:	fffc8c93          	addi	s9,s9,-1
   1d324:	fec688e3          	beq	a3,a2,1d314 <__gdtoa+0x1518>
   1d328:	00168693          	addi	a3,a3,1
   1d32c:	00dc8023          	sb	a3,0(s9)
   1d330:	02000b13          	li	s6,32
   1d334:	a75ff06f          	j	1cda8 <__gdtoa+0xfac>
   1d338:	000c0593          	mv	a1,s8
   1d33c:	00040513          	mv	a0,s0
   1d340:	01f12423          	sw	t6,8(sp)
   1d344:	760010ef          	jal	1eaa4 <__lshift>
   1d348:	00812f83          	lw	t6,8(sp)
   1d34c:	00050c13          	mv	s8,a0
   1d350:	f4051863          	bnez	a0,1caa0 <__gdtoa+0xca4>
   1d354:	e7dfe06f          	j	1c1d0 <__gdtoa+0x3d4>
   1d358:	00078913          	mv	s2,a5
   1d35c:	019787b3          	add	a5,a5,s9
   1d360:	02f12823          	sw	a5,48(sp)
   1d364:	c8dff06f          	j	1cff0 <__gdtoa+0x11f4>
   1d368:	00100793          	li	a5,1
   1d36c:	04f12c23          	sw	a5,88(sp)
   1d370:	9b9ff06f          	j	1cd28 <__gdtoa+0xf2c>
   1d374:	04012c23          	sw	zero,88(sp)
   1d378:	9b1ff06f          	j	1cd28 <__gdtoa+0xf2c>
   1d37c:	d6da98e3          	bne	s5,a3,1d0ec <__gdtoa+0x12f0>
   1d380:	01812783          	lw	a5,24(sp)
   1d384:	0047a683          	lw	a3,4(a5)
   1d388:	00812783          	lw	a5,8(sp)
   1d38c:	00168693          	addi	a3,a3,1
   1d390:	d4f6dee3          	bge	a3,a5,1d0ec <__gdtoa+0x12f0>
   1d394:	03012783          	lw	a5,48(sp)
   1d398:	000a8b13          	mv	s6,s5
   1d39c:	00178793          	addi	a5,a5,1
   1d3a0:	02f12823          	sw	a5,48(sp)
   1d3a4:	02012783          	lw	a5,32(sp)
   1d3a8:	00178793          	addi	a5,a5,1
   1d3ac:	02f12023          	sw	a5,32(sp)
   1d3b0:	d3dff06f          	j	1d0ec <__gdtoa+0x12f0>
   1d3b4:	004c2583          	lw	a1,4(s8)
   1d3b8:	00040513          	mv	a0,s0
   1d3bc:	01f12423          	sw	t6,8(sp)
   1d3c0:	631000ef          	jal	1e1f0 <_Balloc>
   1d3c4:	00050a93          	mv	s5,a0
   1d3c8:	00051463          	bnez	a0,1d3d0 <__gdtoa+0x15d4>
   1d3cc:	e05fe06f          	j	1c1d0 <__gdtoa+0x3d4>
   1d3d0:	010c2603          	lw	a2,16(s8)
   1d3d4:	00cc0593          	addi	a1,s8,12
   1d3d8:	00c50513          	addi	a0,a0,12
   1d3dc:	00260613          	addi	a2,a2,2
   1d3e0:	00261613          	slli	a2,a2,0x2
   1d3e4:	b28fe0ef          	jal	1b70c <memcpy>
   1d3e8:	000a8593          	mv	a1,s5
   1d3ec:	00040513          	mv	a0,s0
   1d3f0:	00100613          	li	a2,1
   1d3f4:	6b0010ef          	jal	1eaa4 <__lshift>
   1d3f8:	00812f83          	lw	t6,8(sp)
   1d3fc:	00050e93          	mv	t4,a0
   1d400:	ea051663          	bnez	a0,1caac <__gdtoa+0xcb0>
   1d404:	dcdfe06f          	j	1c1d0 <__gdtoa+0x3d4>
   1d408:	04012783          	lw	a5,64(sp)
   1d40c:	a00796e3          	bnez	a5,1ce18 <__gdtoa+0x101c>
   1d410:	03012903          	lw	s2,48(sp)
   1d414:	00000c13          	li	s8,0
   1d418:	e08ff06f          	j	1ca20 <__gdtoa+0xc24>
   1d41c:	16912823          	sw	s1,368(sp)
   1d420:	16912c23          	sw	s1,376(sp)
   1d424:	17812a23          	sw	s8,372(sp)
   1d428:	17812e23          	sw	s8,380(sp)
   1d42c:	17012603          	lw	a2,368(sp)
   1d430:	17412683          	lw	a3,372(sp)
   1d434:	17812503          	lw	a0,376(sp)
   1d438:	17c12583          	lw	a1,380(sp)
   1d43c:	03f12c23          	sw	t6,56(sp)
   1d440:	a0df30ef          	jal	10e4c <__adddf3>
   1d444:	8481a603          	lw	a2,-1976(gp) # 22700 <__global_locale+0x1b8>
   1d448:	84c1a683          	lw	a3,-1972(gp) # 22704 <__global_locale+0x1bc>
   1d44c:	a01f30ef          	jal	10e4c <__adddf3>
   1d450:	03812f83          	lw	t6,56(sp)
   1d454:	fcc006b7          	lui	a3,0xfcc00
   1d458:	00050913          	mv	s2,a0
   1d45c:	00b68cb3          	add	s9,a3,a1
   1d460:	06012783          	lw	a5,96(sp)
   1d464:	8501a603          	lw	a2,-1968(gp) # 22708 <__global_locale+0x1c0>
   1d468:	0cf12423          	sw	a5,200(sp)
   1d46c:	09c12783          	lw	a5,156(sp)
   1d470:	8541a683          	lw	a3,-1964(gp) # 2270c <__global_locale+0x1c4>
   1d474:	0c812503          	lw	a0,200(sp)
   1d478:	0cf12623          	sw	a5,204(sp)
   1d47c:	0cc12583          	lw	a1,204(sp)
   1d480:	03f12c23          	sw	t6,56(sp)
   1d484:	9ecf50ef          	jal	12670 <__subdf3>
   1d488:	0d212823          	sw	s2,208(sp)
   1d48c:	0d912a23          	sw	s9,212(sp)
   1d490:	0d012603          	lw	a2,208(sp)
   1d494:	0d412683          	lw	a3,212(sp)
   1d498:	00050c13          	mv	s8,a0
   1d49c:	00058493          	mv	s1,a1
   1d4a0:	97df40ef          	jal	11e1c <__gedf2>
   1d4a4:	03812f83          	lw	t6,56(sp)
   1d4a8:	50a04c63          	bgtz	a0,1d9c0 <__gdtoa+0x1bc4>
   1d4ac:	800006b7          	lui	a3,0x80000
   1d4b0:	00dcc6b3          	xor	a3,s9,a3
   1d4b4:	0d212c23          	sw	s2,216(sp)
   1d4b8:	0f812023          	sw	s8,224(sp)
   1d4bc:	0e912223          	sw	s1,228(sp)
   1d4c0:	0cd12e23          	sw	a3,220(sp)
   1d4c4:	0e012503          	lw	a0,224(sp)
   1d4c8:	0e412583          	lw	a1,228(sp)
   1d4cc:	0d812603          	lw	a2,216(sp)
   1d4d0:	0dc12683          	lw	a3,220(sp)
   1d4d4:	a19f40ef          	jal	11eec <__ledf2>
   1d4d8:	03812f83          	lw	t6,56(sp)
   1d4dc:	04054863          	bltz	a0,1d52c <__gdtoa+0x1730>
   1d4e0:	06012783          	lw	a5,96(sp)
   1d4e4:	09c12c03          	lw	s8,156(sp)
   1d4e8:	00021e37          	lui	t3,0x21
   1d4ec:	06f12423          	sw	a5,104(sp)
   1d4f0:	05012783          	lw	a5,80(sp)
   1d4f4:	c607c463          	bltz	a5,1c95c <__gdtoa+0xb60>
   1d4f8:	5c8e2783          	lw	a5,1480(t3) # 215c8 <__mprec_tens>
   1d4fc:	5cce2803          	lw	a6,1484(t3)
   1d500:	02012c23          	sw	zero,56(sp)
   1d504:	00f12423          	sw	a5,8(sp)
   1d508:	01412783          	lw	a5,20(sp)
   1d50c:	01012623          	sw	a6,12(sp)
   1d510:	ac07d863          	bgez	a5,1c7e0 <__gdtoa+0x9e4>
   1d514:	02812783          	lw	a5,40(sp)
   1d518:	ac079463          	bnez	a5,1c7e0 <__gdtoa+0x9e4>
   1d51c:	cddff06f          	j	1d1f8 <__gdtoa+0x13fc>
   1d520:	01c12783          	lw	a5,28(sp)
   1d524:	00178493          	addi	s1,a5,1
   1d528:	9a0ff06f          	j	1c6c8 <__gdtoa+0x8cc>
   1d52c:	01f12423          	sw	t6,8(sp)
   1d530:	00000593          	li	a1,0
   1d534:	00040513          	mv	a0,s0
   1d538:	569000ef          	jal	1e2a0 <_Bfree>
   1d53c:	01412783          	lw	a5,20(sp)
   1d540:	00812f83          	lw	t6,8(sp)
   1d544:	000d8d13          	mv	s10,s11
   1d548:	40f004b3          	neg	s1,a5
   1d54c:	01000b13          	li	s6,16
   1d550:	978ff06f          	j	1c6c8 <__gdtoa+0x8cc>
   1d554:	01012583          	lw	a1,16(sp)
   1d558:	00100613          	li	a2,1
   1d55c:	00040513          	mv	a0,s0
   1d560:	01f12423          	sw	t6,8(sp)
   1d564:	01012a23          	sw	a6,20(sp)
   1d568:	53c010ef          	jal	1eaa4 <__lshift>
   1d56c:	00a12823          	sw	a0,16(sp)
   1d570:	00051463          	bnez	a0,1d578 <__gdtoa+0x177c>
   1d574:	c5dfe06f          	j	1c1d0 <__gdtoa+0x3d4>
   1d578:	000b8593          	mv	a1,s7
   1d57c:	6b4010ef          	jal	1ec30 <__mcmp>
   1d580:	00812f83          	lw	t6,8(sp)
   1d584:	d8a044e3          	bgtz	a0,1d30c <__gdtoa+0x1510>
   1d588:	00051863          	bnez	a0,1d598 <__gdtoa+0x179c>
   1d58c:	01412803          	lw	a6,20(sp)
   1d590:	00187813          	andi	a6,a6,1
   1d594:	d6081ce3          	bnez	a6,1d30c <__gdtoa+0x1510>
   1d598:	01012783          	lw	a5,16(sp)
   1d59c:	00100693          	li	a3,1
   1d5a0:	01000b13          	li	s6,16
   1d5a4:	0107a603          	lw	a2,16(a5)
   1d5a8:	9ec6c6e3          	blt	a3,a2,1cf94 <__gdtoa+0x1198>
   1d5ac:	0147a683          	lw	a3,20(a5)
   1d5b0:	9ddff06f          	j	1cf8c <__gdtoa+0x1190>
   1d5b4:	01c12703          	lw	a4,28(sp)
   1d5b8:	03100793          	li	a5,49
   1d5bc:	00fd8023          	sb	a5,0(s11)
   1d5c0:	00170713          	addi	a4,a4,1
   1d5c4:	00e12e23          	sw	a4,28(sp)
   1d5c8:	02000b13          	li	s6,32
   1d5cc:	fdcff06f          	j	1cda8 <__gdtoa+0xfac>
   1d5d0:	01412783          	lw	a5,20(sp)
   1d5d4:	00040513          	mv	a0,s0
   1d5d8:	01f12423          	sw	t6,8(sp)
   1d5dc:	fff7c793          	not	a5,a5
   1d5e0:	00f12e23          	sw	a5,28(sp)
   1d5e4:	4bd000ef          	jal	1e2a0 <_Bfree>
   1d5e8:	00812f83          	lw	t6,8(sp)
   1d5ec:	000d8d13          	mv	s10,s11
   1d5f0:	01000b13          	li	s6,16
   1d5f4:	fe0c1463          	bnez	s8,1cddc <__gdtoa+0xfe0>
   1d5f8:	01412783          	lw	a5,20(sp)
   1d5fc:	40f004b3          	neg	s1,a5
   1d600:	8c8ff06f          	j	1c6c8 <__gdtoa+0x8cc>
   1d604:	0ea12423          	sw	a0,232(sp)
   1d608:	0eb12623          	sw	a1,236(sp)
   1d60c:	0ea12823          	sw	a0,240(sp)
   1d610:	0eb12a23          	sw	a1,244(sp)
   1d614:	0e812603          	lw	a2,232(sp)
   1d618:	0ec12683          	lw	a3,236(sp)
   1d61c:	0f012503          	lw	a0,240(sp)
   1d620:	0f412583          	lw	a1,244(sp)
   1d624:	01f12a23          	sw	t6,20(sp)
   1d628:	825f30ef          	jal	10e4c <__adddf3>
   1d62c:	00812603          	lw	a2,8(sp)
   1d630:	00c12683          	lw	a3,12(sp)
   1d634:	00050a93          	mv	s5,a0
   1d638:	00058a13          	mv	s4,a1
   1d63c:	fe0f40ef          	jal	11e1c <__gedf2>
   1d640:	fffd4c03          	lbu	s8,-1(s10)
   1d644:	01412f83          	lw	t6,20(sp)
   1d648:	00a05463          	blez	a0,1d650 <__gdtoa+0x1854>
   1d64c:	848ff06f          	j	1c694 <__gdtoa+0x898>
   1d650:	17512423          	sw	s5,360(sp)
   1d654:	17412623          	sw	s4,364(sp)
   1d658:	16812503          	lw	a0,360(sp)
   1d65c:	16c12583          	lw	a1,364(sp)
   1d660:	00812603          	lw	a2,8(sp)
   1d664:	00c12683          	lw	a3,12(sp)
   1d668:	f28f40ef          	jal	11d90 <__eqdf2>
   1d66c:	01412f83          	lw	t6,20(sp)
   1d670:	00051863          	bnez	a0,1d680 <__gdtoa+0x1884>
   1d674:	0019f993          	andi	s3,s3,1
   1d678:	00098463          	beqz	s3,1d680 <__gdtoa+0x1884>
   1d67c:	818ff06f          	j	1c694 <__gdtoa+0x898>
   1d680:	000d0793          	mv	a5,s10
   1d684:	01000b13          	li	s6,16
   1d688:	03000613          	li	a2,48
   1d68c:	fff7c703          	lbu	a4,-1(a5)
   1d690:	00078d13          	mv	s10,a5
   1d694:	fff78793          	addi	a5,a5,-1
   1d698:	fec70ae3          	beq	a4,a2,1d68c <__gdtoa+0x1890>
   1d69c:	000b8493          	mv	s1,s7
   1d6a0:	828ff06f          	j	1c6c8 <__gdtoa+0x8cc>
   1d6a4:	001b8b93          	addi	s7,s7,1
   1d6a8:	03100693          	li	a3,49
   1d6ac:	810ff06f          	j	1c6bc <__gdtoa+0x8c0>
   1d6b0:	03812783          	lw	a5,56(sp)
   1d6b4:	01a12823          	sw	s10,16(sp)
   1d6b8:	000d8e93          	mv	t4,s11
   1d6bc:	01412f83          	lw	t6,20(sp)
   1d6c0:	00812d83          	lw	s11,8(sp)
   1d6c4:	000b0813          	mv	a6,s6
   1d6c8:	00078e63          	beqz	a5,1d6e4 <__gdtoa+0x18e8>
   1d6cc:	01012783          	lw	a5,16(sp)
   1d6d0:	00100693          	li	a3,1
   1d6d4:	0107a603          	lw	a2,16(a5)
   1d6d8:	d4c6ca63          	blt	a3,a2,1cc2c <__gdtoa+0xe30>
   1d6dc:	0147a683          	lw	a3,20(a5)
   1d6e0:	d4069663          	bnez	a3,1cc2c <__gdtoa+0xe30>
   1d6e4:	01012583          	lw	a1,16(sp)
   1d6e8:	00100613          	li	a2,1
   1d6ec:	00040513          	mv	a0,s0
   1d6f0:	01f12c23          	sw	t6,24(sp)
   1d6f4:	01d12a23          	sw	t4,20(sp)
   1d6f8:	01012423          	sw	a6,8(sp)
   1d6fc:	3a8010ef          	jal	1eaa4 <__lshift>
   1d700:	00a12823          	sw	a0,16(sp)
   1d704:	00051463          	bnez	a0,1d70c <__gdtoa+0x1910>
   1d708:	ac9fe06f          	j	1c1d0 <__gdtoa+0x3d4>
   1d70c:	000b8593          	mv	a1,s7
   1d710:	520010ef          	jal	1ec30 <__mcmp>
   1d714:	00812803          	lw	a6,8(sp)
   1d718:	01412e83          	lw	t4,20(sp)
   1d71c:	01812f83          	lw	t6,24(sp)
   1d720:	46a05c63          	blez	a0,1db98 <__gdtoa+0x1d9c>
   1d724:	03900693          	li	a3,57
   1d728:	bcd804e3          	beq	a6,a3,1d2f0 <__gdtoa+0x14f4>
   1d72c:	02000793          	li	a5,32
   1d730:	03190813          	addi	a6,s2,49
   1d734:	02f12c23          	sw	a5,56(sp)
   1d738:	e48ff06f          	j	1cd80 <__gdtoa+0xf84>
   1d73c:	13212823          	sw	s2,304(sp)
   1d740:	13912a23          	sw	s9,308(sp)
   1d744:	13012503          	lw	a0,304(sp)
   1d748:	13412583          	lw	a1,308(sp)
   1d74c:	0fc12023          	sw	t3,224(sp)
   1d750:	0df12823          	sw	t6,208(sp)
   1d754:	869f40ef          	jal	11fbc <__muldf3>
   1d758:	8381a783          	lw	a5,-1992(gp) # 226f0 <__global_locale+0x1a8>
   1d75c:	83c1a803          	lw	a6,-1988(gp) # 226f4 <__global_locale+0x1ac>
   1d760:	06812683          	lw	a3,104(sp)
   1d764:	00100613          	li	a2,1
   1d768:	000d8d13          	mv	s10,s11
   1d76c:	00068913          	mv	s2,a3
   1d770:	00068b93          	mv	s7,a3
   1d774:	00000693          	li	a3,0
   1d778:	0bb12423          	sw	s11,168(sp)
   1d77c:	0d312c23          	sw	s3,216(sp)
   1d780:	0f212c23          	sw	s2,248(sp)
   1d784:	02f12c23          	sw	a5,56(sp)
   1d788:	05412903          	lw	s2,84(sp)
   1d78c:	03012e23          	sw	a6,60(sp)
   1d790:	06a12823          	sw	a0,112(sp)
   1d794:	06b12423          	sw	a1,104(sp)
   1d798:	1ac12e23          	sw	a2,444(sp)
   1d79c:	07512c23          	sw	s5,120(sp)
   1d7a0:	09612023          	sw	s6,128(sp)
   1d7a4:	00068d93          	mv	s11,a3
   1d7a8:	0c812023          	sw	s0,192(sp)
   1d7ac:	0d412423          	sw	s4,200(sp)
   1d7b0:	05812a23          	sw	s8,84(sp)
   1d7b4:	000b8993          	mv	s3,s7
   1d7b8:	0180006f          	j	1d7d0 <__gdtoa+0x19d4>
   1d7bc:	1a612e23          	sw	t1,444(sp)
   1d7c0:	ffcf40ef          	jal	11fbc <__muldf3>
   1d7c4:	00050993          	mv	s3,a0
   1d7c8:	00058c13          	mv	s8,a1
   1d7cc:	00100d93          	li	s11,1
   1d7d0:	00098513          	mv	a0,s3
   1d7d4:	000c0593          	mv	a1,s8
   1d7d8:	e28f50ef          	jal	12e00 <__fixdfsi>
   1d7dc:	00050c93          	mv	s9,a0
   1d7e0:	02050463          	beqz	a0,1d808 <__gdtoa+0x1a0c>
   1d7e4:	e9cf50ef          	jal	12e80 <__floatsidf>
   1d7e8:	00050613          	mv	a2,a0
   1d7ec:	00058693          	mv	a3,a1
   1d7f0:	00098513          	mv	a0,s3
   1d7f4:	000c0593          	mv	a1,s8
   1d7f8:	e79f40ef          	jal	12670 <__subdf3>
   1d7fc:	00050993          	mv	s3,a0
   1d800:	00058c13          	mv	s8,a1
   1d804:	00100d93          	li	s11,1
   1d808:	030c8793          	addi	a5,s9,48
   1d80c:	0ff7f793          	zext.b	a5,a5
   1d810:	00fd0023          	sb	a5,0(s10)
   1d814:	1bc12883          	lw	a7,444(sp)
   1d818:	001d0d13          	addi	s10,s10,1
   1d81c:	03812603          	lw	a2,56(sp)
   1d820:	03c12683          	lw	a3,60(sp)
   1d824:	00098513          	mv	a0,s3
   1d828:	000c0593          	mv	a1,s8
   1d82c:	00188313          	addi	t1,a7,1
   1d830:	f92896e3          	bne	a7,s2,1d7bc <__gdtoa+0x19c0>
   1d834:	000d8693          	mv	a3,s11
   1d838:	07812a83          	lw	s5,120(sp)
   1d83c:	08012b03          	lw	s6,128(sp)
   1d840:	0a812d83          	lw	s11,168(sp)
   1d844:	0c012403          	lw	s0,192(sp)
   1d848:	0c812a03          	lw	s4,200(sp)
   1d84c:	0d012f83          	lw	t6,208(sp)
   1d850:	0e012e03          	lw	t3,224(sp)
   1d854:	0f812903          	lw	s2,248(sp)
   1d858:	05412483          	lw	s1,84(sp)
   1d85c:	0d812983          	lw	s3,216(sp)
   1d860:	00078c13          	mv	s8,a5
   1d864:	00068663          	beqz	a3,1d870 <__gdtoa+0x1a74>
   1d868:	00050913          	mv	s2,a0
   1d86c:	00058493          	mv	s1,a1
   1d870:	06812783          	lw	a5,104(sp)
   1d874:	07012b83          	lw	s7,112(sp)
   1d878:	12f12e23          	sw	a5,316(sp)
   1d87c:	13712c23          	sw	s7,312(sp)
   1d880:	8581a603          	lw	a2,-1960(gp) # 22710 <__global_locale+0x1c8>
   1d884:	85c1a683          	lw	a3,-1956(gp) # 22714 <__global_locale+0x1cc>
   1d888:	13812503          	lw	a0,312(sp)
   1d88c:	13c12583          	lw	a1,316(sp)
   1d890:	03f12c23          	sw	t6,56(sp)
   1d894:	05c12a23          	sw	t3,84(sp)
   1d898:	db4f30ef          	jal	10e4c <__adddf3>
   1d89c:	15212023          	sw	s2,320(sp)
   1d8a0:	14912223          	sw	s1,324(sp)
   1d8a4:	14012603          	lw	a2,320(sp)
   1d8a8:	14412683          	lw	a3,324(sp)
   1d8ac:	e40f40ef          	jal	11eec <__ledf2>
   1d8b0:	03812f83          	lw	t6,56(sp)
   1d8b4:	20054263          	bltz	a0,1dab8 <__gdtoa+0x1cbc>
   1d8b8:	06812783          	lw	a5,104(sp)
   1d8bc:	15712423          	sw	s7,328(sp)
   1d8c0:	14812603          	lw	a2,328(sp)
   1d8c4:	14f12623          	sw	a5,332(sp)
   1d8c8:	14c12683          	lw	a3,332(sp)
   1d8cc:	8581a503          	lw	a0,-1960(gp) # 22710 <__global_locale+0x1c8>
   1d8d0:	85c1a583          	lw	a1,-1956(gp) # 22714 <__global_locale+0x1cc>
   1d8d4:	d9df40ef          	jal	12670 <__subdf3>
   1d8d8:	15212823          	sw	s2,336(sp)
   1d8dc:	14912a23          	sw	s1,340(sp)
   1d8e0:	15012603          	lw	a2,336(sp)
   1d8e4:	15412683          	lw	a3,340(sp)
   1d8e8:	d34f40ef          	jal	11e1c <__gedf2>
   1d8ec:	03812f83          	lw	t6,56(sp)
   1d8f0:	05412e03          	lw	t3,84(sp)
   1d8f4:	26a04463          	bgtz	a0,1db5c <__gdtoa+0x1d60>
   1d8f8:	06012783          	lw	a5,96(sp)
   1d8fc:	09c12c03          	lw	s8,156(sp)
   1d900:	06f12423          	sw	a5,104(sp)
   1d904:	05012783          	lw	a5,80(sp)
   1d908:	ce07ca63          	bltz	a5,1cdfc <__gdtoa+0x1000>
   1d90c:	5c8e2783          	lw	a5,1480(t3)
   1d910:	5cce2803          	lw	a6,1484(t3)
   1d914:	02012c23          	sw	zero,56(sp)
   1d918:	00f12423          	sw	a5,8(sp)
   1d91c:	01012623          	sw	a6,12(sp)
   1d920:	ec1fe06f          	j	1c7e0 <__gdtoa+0x9e4>
   1d924:	000d8e93          	mv	t4,s11
   1d928:	000c0a13          	mv	s4,s8
   1d92c:	00812d83          	lw	s11,8(sp)
   1d930:	01412f83          	lw	t6,20(sp)
   1d934:	000b0813          	mv	a6,s6
   1d938:	01a12823          	sw	s10,16(sp)
   1d93c:	000e8c13          	mv	s8,t4
   1d940:	e24ff06f          	j	1cf64 <__gdtoa+0x1168>
   1d944:	ac090ce3          	beqz	s2,1d41c <__gdtoa+0x1620>
   1d948:	09812d03          	lw	s10,152(sp)
   1d94c:	b9a05ae3          	blez	s10,1d4e0 <__gdtoa+0x16e4>
   1d950:	0f812e23          	sw	s8,252(sp)
   1d954:	0e912c23          	sw	s1,248(sp)
   1d958:	8381a603          	lw	a2,-1992(gp) # 226f0 <__global_locale+0x1a8>
   1d95c:	0f812503          	lw	a0,248(sp)
   1d960:	83c1a683          	lw	a3,-1988(gp) # 226f4 <__global_locale+0x1ac>
   1d964:	0fc12583          	lw	a1,252(sp)
   1d968:	0df12023          	sw	t6,192(sp)
   1d96c:	e50f40ef          	jal	11fbc <__muldf3>
   1d970:	8401a603          	lw	a2,-1984(gp) # 226f8 <__global_locale+0x1b0>
   1d974:	8441a683          	lw	a3,-1980(gp) # 226fc <__global_locale+0x1b4>
   1d978:	00058c13          	mv	s8,a1
   1d97c:	06a12423          	sw	a0,104(sp)
   1d980:	0aa12423          	sw	a0,168(sp)
   1d984:	02b12c23          	sw	a1,56(sp)
   1d988:	e34f40ef          	jal	11fbc <__muldf3>
   1d98c:	8481a603          	lw	a2,-1976(gp) # 22700 <__global_locale+0x1b8>
   1d990:	84c1a683          	lw	a3,-1972(gp) # 22704 <__global_locale+0x1bc>
   1d994:	cb8f30ef          	jal	10e4c <__adddf3>
   1d998:	fcc006b7          	lui	a3,0xfcc00
   1d99c:	fff00793          	li	a5,-1
   1d9a0:	0a812703          	lw	a4,168(sp)
   1d9a4:	0c012f83          	lw	t6,192(sp)
   1d9a8:	00050913          	mv	s2,a0
   1d9ac:	00b68cb3          	add	s9,a3,a1
   1d9b0:	05a12a23          	sw	s10,84(sp)
   1d9b4:	0af12023          	sw	a5,160(sp)
   1d9b8:	000c0f13          	mv	t5,s8
   1d9bc:	aa5fe06f          	j	1c460 <__gdtoa+0x664>
   1d9c0:	03100793          	li	a5,49
   1d9c4:	00fd8023          	sb	a5,0(s11)
   1d9c8:	00000593          	li	a1,0
   1d9cc:	00040513          	mv	a0,s0
   1d9d0:	01f12423          	sw	t6,8(sp)
   1d9d4:	0cd000ef          	jal	1e2a0 <_Bfree>
   1d9d8:	00812f83          	lw	t6,8(sp)
   1d9dc:	001d8d13          	addi	s10,s11,1
   1d9e0:	00200493          	li	s1,2
   1d9e4:	02000b13          	li	s6,32
   1d9e8:	ce1fe06f          	j	1c6c8 <__gdtoa+0x8cc>
   1d9ec:	01a12823          	sw	s10,16(sp)
   1d9f0:	03900693          	li	a3,57
   1d9f4:	000d8e93          	mv	t4,s11
   1d9f8:	01412f83          	lw	t6,20(sp)
   1d9fc:	00812d83          	lw	s11,8(sp)
   1da00:	8edb08e3          	beq	s6,a3,1d2f0 <__gdtoa+0x14f4>
   1da04:	001b0813          	addi	a6,s6,1
   1da08:	000c0a13          	mv	s4,s8
   1da0c:	010c8023          	sb	a6,0(s9)
   1da10:	001c8d13          	addi	s10,s9,1
   1da14:	000e8c13          	mv	s8,t4
   1da18:	02000b13          	li	s6,32
   1da1c:	b8cff06f          	j	1cda8 <__gdtoa+0xfac>
   1da20:	1ae12e23          	sw	a4,444(sp)
   1da24:	00070c93          	mv	s9,a4
   1da28:	f95fe06f          	j	1c9bc <__gdtoa+0xbc0>
   1da2c:	000c0593          	mv	a1,s8
   1da30:	00000693          	li	a3,0
   1da34:	00a00613          	li	a2,10
   1da38:	00040513          	mv	a0,s0
   1da3c:	089000ef          	jal	1e2c4 <__multadd>
   1da40:	00050c13          	mv	s8,a0
   1da44:	00051463          	bnez	a0,1da4c <__gdtoa+0x1c50>
   1da48:	f88fe06f          	j	1c1d0 <__gdtoa+0x3d4>
   1da4c:	09812783          	lw	a5,152(sp)
   1da50:	00812f83          	lw	t6,8(sp)
   1da54:	02f12423          	sw	a5,40(sp)
   1da58:	00f05463          	blez	a5,1da60 <__gdtoa+0x1c64>
   1da5c:	83cff06f          	j	1ca98 <__gdtoa+0xc9c>
   1da60:	00200793          	li	a5,2
   1da64:	0137c463          	blt	a5,s3,1da6c <__gdtoa+0x1c70>
   1da68:	830ff06f          	j	1ca98 <__gdtoa+0xc9c>
   1da6c:	dd0ff06f          	j	1d03c <__gdtoa+0x1240>
   1da70:	0a812d83          	lw	s11,168(sp)
   1da74:	0c012403          	lw	s0,192(sp)
   1da78:	0c812f83          	lw	t6,200(sp)
   1da7c:	00098493          	mv	s1,s3
   1da80:	12912423          	sw	s1,296(sp)
   1da84:	13212623          	sw	s2,300(sp)
   1da88:	12812503          	lw	a0,296(sp)
   1da8c:	12c12583          	lw	a1,300(sp)
   1da90:	00000613          	li	a2,0
   1da94:	00000693          	li	a3,0
   1da98:	01f12423          	sw	t6,8(sp)
   1da9c:	af4f40ef          	jal	11d90 <__eqdf2>
   1daa0:	0a012783          	lw	a5,160(sp)
   1daa4:	00a03b33          	snez	s6,a0
   1daa8:	00812f83          	lw	t6,8(sp)
   1daac:	00178493          	addi	s1,a5,1
   1dab0:	004b1b13          	slli	s6,s6,0x4
   1dab4:	c15fe06f          	j	1c6c8 <__gdtoa+0x8cc>
   1dab8:	0a012783          	lw	a5,160(sp)
   1dabc:	00178b93          	addi	s7,a5,1
   1dac0:	bd5fe06f          	j	1c694 <__gdtoa+0x898>
   1dac4:	00078713          	mv	a4,a5
   1dac8:	fff78793          	addi	a5,a5,-1
   1dacc:	f8f4ca63          	blt	s1,a5,1d260 <__gdtoa+0x1464>
   1dad0:	40f484b3          	sub	s1,s1,a5
   1dad4:	1ae12e23          	sw	a4,444(sp)
   1dad8:	00070c93          	mv	s9,a4
   1dadc:	ee1fe06f          	j	1c9bc <__gdtoa+0xbc0>
   1dae0:	06012783          	lw	a5,96(sp)
   1dae4:	0d012b83          	lw	s7,208(sp)
   1dae8:	0d812a83          	lw	s5,216(sp)
   1daec:	06f12423          	sw	a5,104(sp)
   1daf0:	05012783          	lw	a5,80(sp)
   1daf4:	0e012b03          	lw	s6,224(sp)
   1daf8:	0a812d83          	lw	s11,168(sp)
   1dafc:	0c012403          	lw	s0,192(sp)
   1db00:	0f812a03          	lw	s4,248(sp)
   1db04:	0c812f83          	lw	t6,200(sp)
   1db08:	10012983          	lw	s3,256(sp)
   1db0c:	10812e03          	lw	t3,264(sp)
   1db10:	09c12c03          	lw	s8,156(sp)
   1db14:	9e07d2e3          	bgez	a5,1d4f8 <__gdtoa+0x16fc>
   1db18:	02012c23          	sw	zero,56(sp)
   1db1c:	e4dfe06f          	j	1c968 <__gdtoa+0xb6c>
   1db20:	01a12823          	sw	s10,16(sp)
   1db24:	03900693          	li	a3,57
   1db28:	000d8e93          	mv	t4,s11
   1db2c:	01412f83          	lw	t6,20(sp)
   1db30:	00812d83          	lw	s11,8(sp)
   1db34:	000b0813          	mv	a6,s6
   1db38:	fadb0c63          	beq	s6,a3,1d2f0 <__gdtoa+0x14f4>
   1db3c:	0b505863          	blez	s5,1dbec <__gdtoa+0x1df0>
   1db40:	03190813          	addi	a6,s2,49
   1db44:	02000b13          	li	s6,32
   1db48:	000c0a13          	mv	s4,s8
   1db4c:	010c8023          	sb	a6,0(s9)
   1db50:	001c8d13          	addi	s10,s9,1
   1db54:	000e8c13          	mv	s8,t4
   1db58:	a50ff06f          	j	1cda8 <__gdtoa+0xfac>
   1db5c:	15212c23          	sw	s2,344(sp)
   1db60:	14912e23          	sw	s1,348(sp)
   1db64:	15812503          	lw	a0,344(sp)
   1db68:	15c12583          	lw	a1,348(sp)
   1db6c:	00000613          	li	a2,0
   1db70:	00000693          	li	a3,0
   1db74:	01f12423          	sw	t6,8(sp)
   1db78:	a18f40ef          	jal	11d90 <__eqdf2>
   1db7c:	0a012703          	lw	a4,160(sp)
   1db80:	00a03b33          	snez	s6,a0
   1db84:	00812f83          	lw	t6,8(sp)
   1db88:	000d0793          	mv	a5,s10
   1db8c:	00170b93          	addi	s7,a4,1
   1db90:	004b1b13          	slli	s6,s6,0x4
   1db94:	af5ff06f          	j	1d688 <__gdtoa+0x188c>
   1db98:	00051663          	bnez	a0,1dba4 <__gdtoa+0x1da8>
   1db9c:	00187693          	andi	a3,a6,1
   1dba0:	b80692e3          	bnez	a3,1d724 <__gdtoa+0x1928>
   1dba4:	02000793          	li	a5,32
   1dba8:	02f12c23          	sw	a5,56(sp)
   1dbac:	9d4ff06f          	j	1cd80 <__gdtoa+0xf84>
   1dbb0:	0147a683          	lw	a3,20(a5)
   1dbb4:	9e069263          	bnez	a3,1cd98 <__gdtoa+0xf9c>
   1dbb8:	03812b03          	lw	s6,56(sp)
   1dbbc:	9dcff06f          	j	1cd98 <__gdtoa+0xf9c>
   1dbc0:	01212823          	sw	s2,16(sp)
   1dbc4:	03900693          	li	a3,57
   1dbc8:	000a0e93          	mv	t4,s4
   1dbcc:	000a8f93          	mv	t6,s5
   1dbd0:	04d48063          	beq	s1,a3,1dc10 <__gdtoa+0x1e14>
   1dbd4:	00148813          	addi	a6,s1,1
   1dbd8:	02000b13          	li	s6,32
   1dbdc:	9bcff06f          	j	1cd98 <__gdtoa+0xf9c>
   1dbe0:	01000b13          	li	s6,16
   1dbe4:	001c8993          	addi	s3,s9,1
   1dbe8:	9b0ff06f          	j	1cd98 <__gdtoa+0xf9c>
   1dbec:	01012783          	lw	a5,16(sp)
   1dbf0:	00100693          	li	a3,1
   1dbf4:	01000b13          	li	s6,16
   1dbf8:	0107a603          	lw	a2,16(a5)
   1dbfc:	f4c6c6e3          	blt	a3,a2,1db48 <__gdtoa+0x1d4c>
   1dc00:	0147ab03          	lw	s6,20(a5)
   1dc04:	01603b33          	snez	s6,s6
   1dc08:	004b1b13          	slli	s6,s6,0x4
   1dc0c:	f3dff06f          	j	1db48 <__gdtoa+0x1d4c>
   1dc10:	000c0a13          	mv	s4,s8
   1dc14:	000c8693          	mv	a3,s9
   1dc18:	00058c13          	mv	s8,a1
   1dc1c:	ee4ff06f          	j	1d300 <__gdtoa+0x1504>
   1dc20:	020ac263          	bltz	s5,1dc44 <__gdtoa+0x1e48>
   1dc24:	013aeab3          	or	s5,s5,s3
   1dc28:	000a9863          	bnez	s5,1dc38 <__gdtoa+0x1e3c>
   1dc2c:	000a2783          	lw	a5,0(s4)
   1dc30:	0017f793          	andi	a5,a5,1
   1dc34:	00078863          	beqz	a5,1dc44 <__gdtoa+0x1e48>
   1dc38:	00d04463          	bgtz	a3,1dc40 <__gdtoa+0x1e44>
   1dc3c:	ebdfe06f          	j	1caf8 <__gdtoa+0xcfc>
   1dc40:	eadfe06f          	j	1caec <__gdtoa+0xcf0>
   1dc44:	03812703          	lw	a4,56(sp)
   1dc48:	01a12823          	sw	s10,16(sp)
   1dc4c:	000d8e93          	mv	t4,s11
   1dc50:	01412f83          	lw	t6,20(sp)
   1dc54:	00812d83          	lw	s11,8(sp)
   1dc58:	000b0813          	mv	a6,s6
   1dc5c:	02071a63          	bnez	a4,1dc90 <__gdtoa+0x1e94>
   1dc60:	92d05063          	blez	a3,1cd80 <__gdtoa+0xf84>
   1dc64:	a81ff06f          	j	1d6e4 <__gdtoa+0x18e8>
   1dc68:	010d2603          	lw	a2,16(s10)
   1dc6c:	00100693          	li	a3,1
   1dc70:	000d0793          	mv	a5,s10
   1dc74:	00c6d463          	bge	a3,a2,1dc7c <__gdtoa+0x1e80>
   1dc78:	fb5fe06f          	j	1cc2c <__gdtoa+0xe30>
   1dc7c:	0147a683          	lw	a3,20(a5)
   1dc80:	00068463          	beqz	a3,1dc88 <__gdtoa+0x1e8c>
   1dc84:	fa9fe06f          	j	1cc2c <__gdtoa+0xe30>
   1dc88:	001c8993          	addi	s3,s9,1
   1dc8c:	90cff06f          	j	1cd98 <__gdtoa+0xf9c>
   1dc90:	010d2583          	lw	a1,16(s10)
   1dc94:	00100613          	li	a2,1
   1dc98:	00b65463          	bge	a2,a1,1dca0 <__gdtoa+0x1ea4>
   1dc9c:	f91fe06f          	j	1cc2c <__gdtoa+0xe30>
   1dca0:	014d2603          	lw	a2,20(s10)
   1dca4:	00060463          	beqz	a2,1dcac <__gdtoa+0x1eb0>
   1dca8:	f85fe06f          	j	1cc2c <__gdtoa+0xe30>
   1dcac:	a2d04ce3          	bgtz	a3,1d6e4 <__gdtoa+0x18e8>
   1dcb0:	00000b13          	li	s6,0
   1dcb4:	001c8993          	addi	s3,s9,1
   1dcb8:	8e0ff06f          	j	1cd98 <__gdtoa+0xf9c>
   1dcbc:	01c12783          	lw	a5,28(sp)
   1dcc0:	02000b13          	li	s6,32
   1dcc4:	00278493          	addi	s1,a5,2
   1dcc8:	a01fe06f          	j	1c6c8 <__gdtoa+0x8cc>

0001dccc <__rv_alloc_D2A.part.0>:
   1dccc:	000216b7          	lui	a3,0x21
   1dcd0:	00021537          	lui	a0,0x21
   1dcd4:	ff010113          	addi	sp,sp,-16
   1dcd8:	22868693          	addi	a3,a3,552 # 21228 <_getpid_r+0xf0>
   1dcdc:	23c50513          	addi	a0,a0,572 # 2123c <_getpid_r+0x104>
   1dce0:	00000613          	li	a2,0
   1dce4:	03900593          	li	a1,57
   1dce8:	00112623          	sw	ra,12(sp)
   1dcec:	2fd010ef          	jal	1f7e8 <__assert_func>

0001dcf0 <__rv_alloc_D2A>:
   1dcf0:	ff010113          	addi	sp,sp,-16
   1dcf4:	00812423          	sw	s0,8(sp)
   1dcf8:	00112623          	sw	ra,12(sp)
   1dcfc:	01700693          	li	a3,23
   1dd00:	00050413          	mv	s0,a0
   1dd04:	00100713          	li	a4,1
   1dd08:	00400793          	li	a5,4
   1dd0c:	04b6f063          	bgeu	a3,a1,1dd4c <__rv_alloc_D2A+0x5c>
   1dd10:	00179793          	slli	a5,a5,0x1
   1dd14:	01478693          	addi	a3,a5,20
   1dd18:	00070613          	mv	a2,a4
   1dd1c:	00170713          	addi	a4,a4,1
   1dd20:	fed5f8e3          	bgeu	a1,a3,1dd10 <__rv_alloc_D2A+0x20>
   1dd24:	00060593          	mv	a1,a2
   1dd28:	02c42e23          	sw	a2,60(s0)
   1dd2c:	00040513          	mv	a0,s0
   1dd30:	4c0000ef          	jal	1e1f0 <_Balloc>
   1dd34:	02050263          	beqz	a0,1dd58 <__rv_alloc_D2A+0x68>
   1dd38:	00c12083          	lw	ra,12(sp)
   1dd3c:	02a42c23          	sw	a0,56(s0)
   1dd40:	00812403          	lw	s0,8(sp)
   1dd44:	01010113          	addi	sp,sp,16
   1dd48:	00008067          	ret
   1dd4c:	02052e23          	sw	zero,60(a0)
   1dd50:	00000593          	li	a1,0
   1dd54:	fd9ff06f          	j	1dd2c <__rv_alloc_D2A+0x3c>
   1dd58:	f75ff0ef          	jal	1dccc <__rv_alloc_D2A.part.0>

0001dd5c <__nrv_alloc_D2A>:
   1dd5c:	ff010113          	addi	sp,sp,-16
   1dd60:	00812423          	sw	s0,8(sp)
   1dd64:	00912223          	sw	s1,4(sp)
   1dd68:	01212023          	sw	s2,0(sp)
   1dd6c:	00112623          	sw	ra,12(sp)
   1dd70:	01700813          	li	a6,23
   1dd74:	00050493          	mv	s1,a0
   1dd78:	00058413          	mv	s0,a1
   1dd7c:	00060913          	mv	s2,a2
   1dd80:	00100713          	li	a4,1
   1dd84:	00400793          	li	a5,4
   1dd88:	06d87a63          	bgeu	a6,a3,1ddfc <__nrv_alloc_D2A+0xa0>
   1dd8c:	00179793          	slli	a5,a5,0x1
   1dd90:	01478813          	addi	a6,a5,20
   1dd94:	00070593          	mv	a1,a4
   1dd98:	00170713          	addi	a4,a4,1
   1dd9c:	ff06f8e3          	bgeu	a3,a6,1dd8c <__nrv_alloc_D2A+0x30>
   1dda0:	02b4ae23          	sw	a1,60(s1)
   1dda4:	00048513          	mv	a0,s1
   1dda8:	448000ef          	jal	1e1f0 <_Balloc>
   1ddac:	06050263          	beqz	a0,1de10 <__nrv_alloc_D2A+0xb4>
   1ddb0:	02a4ac23          	sw	a0,56(s1)
   1ddb4:	00044783          	lbu	a5,0(s0)
   1ddb8:	00140593          	addi	a1,s0,1
   1ddbc:	00f50023          	sb	a5,0(a0)
   1ddc0:	04078463          	beqz	a5,1de08 <__nrv_alloc_D2A+0xac>
   1ddc4:	00050793          	mv	a5,a0
   1ddc8:	0005c703          	lbu	a4,0(a1)
   1ddcc:	00158593          	addi	a1,a1,1
   1ddd0:	00178793          	addi	a5,a5,1
   1ddd4:	00e78023          	sb	a4,0(a5)
   1ddd8:	fe0718e3          	bnez	a4,1ddc8 <__nrv_alloc_D2A+0x6c>
   1dddc:	00090463          	beqz	s2,1dde4 <__nrv_alloc_D2A+0x88>
   1dde0:	00f92023          	sw	a5,0(s2)
   1dde4:	00c12083          	lw	ra,12(sp)
   1dde8:	00812403          	lw	s0,8(sp)
   1ddec:	00412483          	lw	s1,4(sp)
   1ddf0:	00012903          	lw	s2,0(sp)
   1ddf4:	01010113          	addi	sp,sp,16
   1ddf8:	00008067          	ret
   1ddfc:	02052e23          	sw	zero,60(a0)
   1de00:	00000593          	li	a1,0
   1de04:	fa1ff06f          	j	1dda4 <__nrv_alloc_D2A+0x48>
   1de08:	00050793          	mv	a5,a0
   1de0c:	fd1ff06f          	j	1dddc <__nrv_alloc_D2A+0x80>
   1de10:	ebdff0ef          	jal	1dccc <__rv_alloc_D2A.part.0>

0001de14 <__freedtoa>:
   1de14:	03c52683          	lw	a3,60(a0)
   1de18:	00100713          	li	a4,1
   1de1c:	00d71733          	sll	a4,a4,a3
   1de20:	00e5a423          	sw	a4,8(a1)
   1de24:	00d5a223          	sw	a3,4(a1)
   1de28:	4780006f          	j	1e2a0 <_Bfree>

0001de2c <__quorem_D2A>:
   1de2c:	fb010113          	addi	sp,sp,-80
   1de30:	04912223          	sw	s1,68(sp)
   1de34:	01052783          	lw	a5,16(a0)
   1de38:	0105a483          	lw	s1,16(a1)
   1de3c:	04112623          	sw	ra,76(sp)
   1de40:	2297cc63          	blt	a5,s1,1e078 <__quorem_D2A+0x24c>
   1de44:	fff48493          	addi	s1,s1,-1
   1de48:	03512a23          	sw	s5,52(sp)
   1de4c:	03712623          	sw	s7,44(sp)
   1de50:	00249a93          	slli	s5,s1,0x2
   1de54:	01458b93          	addi	s7,a1,20
   1de58:	05212023          	sw	s2,64(sp)
   1de5c:	03312e23          	sw	s3,60(sp)
   1de60:	015b8933          	add	s2,s7,s5
   1de64:	01450993          	addi	s3,a0,20
   1de68:	015987b3          	add	a5,s3,s5
   1de6c:	03812423          	sw	s8,40(sp)
   1de70:	00092c03          	lw	s8,0(s2)
   1de74:	03912223          	sw	s9,36(sp)
   1de78:	0007ac83          	lw	s9,0(a5)
   1de7c:	001c0c13          	addi	s8,s8,1
   1de80:	03412c23          	sw	s4,56(sp)
   1de84:	03612823          	sw	s6,48(sp)
   1de88:	00050a13          	mv	s4,a0
   1de8c:	00058b13          	mv	s6,a1
   1de90:	000c8513          	mv	a0,s9
   1de94:	000c0593          	mv	a1,s8
   1de98:	04812423          	sw	s0,72(sp)
   1de9c:	00f12623          	sw	a5,12(sp)
   1dea0:	830f80ef          	jal	15ed0 <__hidden___udivsi3>
   1dea4:	00050413          	mv	s0,a0
   1dea8:	0f8ce463          	bltu	s9,s8,1df90 <__quorem_D2A+0x164>
   1deac:	03a12023          	sw	s10,32(sp)
   1deb0:	01b12e23          	sw	s11,28(sp)
   1deb4:	000b8d13          	mv	s10,s7
   1deb8:	00098c93          	mv	s9,s3
   1debc:	00000c13          	li	s8,0
   1dec0:	00000a93          	li	s5,0
   1dec4:	000d2d83          	lw	s11,0(s10)
   1dec8:	00040593          	mv	a1,s0
   1decc:	004c8c93          	addi	s9,s9,4
   1ded0:	010d9513          	slli	a0,s11,0x10
   1ded4:	01055513          	srli	a0,a0,0x10
   1ded8:	fcdf70ef          	jal	15ea4 <__mulsi3>
   1dedc:	00050793          	mv	a5,a0
   1dee0:	00040593          	mv	a1,s0
   1dee4:	010dd513          	srli	a0,s11,0x10
   1dee8:	01878c33          	add	s8,a5,s8
   1deec:	fb9f70ef          	jal	15ea4 <__mulsi3>
   1def0:	ffcca783          	lw	a5,-4(s9)
   1def4:	010c1593          	slli	a1,s8,0x10
   1def8:	0105d593          	srli	a1,a1,0x10
   1defc:	01079713          	slli	a4,a5,0x10
   1df00:	01075713          	srli	a4,a4,0x10
   1df04:	010c5c13          	srli	s8,s8,0x10
   1df08:	40b70733          	sub	a4,a4,a1
   1df0c:	41570733          	sub	a4,a4,s5
   1df10:	01850533          	add	a0,a0,s8
   1df14:	01075693          	srli	a3,a4,0x10
   1df18:	01051613          	slli	a2,a0,0x10
   1df1c:	01065613          	srli	a2,a2,0x10
   1df20:	0016f693          	andi	a3,a3,1
   1df24:	00c686b3          	add	a3,a3,a2
   1df28:	0107d793          	srli	a5,a5,0x10
   1df2c:	40d787b3          	sub	a5,a5,a3
   1df30:	01071713          	slli	a4,a4,0x10
   1df34:	01079693          	slli	a3,a5,0x10
   1df38:	01075713          	srli	a4,a4,0x10
   1df3c:	00e6e733          	or	a4,a3,a4
   1df40:	004d0d13          	addi	s10,s10,4
   1df44:	0107d793          	srli	a5,a5,0x10
   1df48:	feecae23          	sw	a4,-4(s9)
   1df4c:	01055c13          	srli	s8,a0,0x10
   1df50:	0017fa93          	andi	s5,a5,1
   1df54:	f7a978e3          	bgeu	s2,s10,1dec4 <__quorem_D2A+0x98>
   1df58:	00c12703          	lw	a4,12(sp)
   1df5c:	00072783          	lw	a5,0(a4)
   1df60:	12079663          	bnez	a5,1e08c <__quorem_D2A+0x260>
   1df64:	ffc70a93          	addi	s5,a4,-4
   1df68:	0159e863          	bltu	s3,s5,1df78 <__quorem_D2A+0x14c>
   1df6c:	0180006f          	j	1df84 <__quorem_D2A+0x158>
   1df70:	fff48493          	addi	s1,s1,-1
   1df74:	0159f863          	bgeu	s3,s5,1df84 <__quorem_D2A+0x158>
   1df78:	000aa783          	lw	a5,0(s5)
   1df7c:	ffca8a93          	addi	s5,s5,-4
   1df80:	fe0788e3          	beqz	a5,1df70 <__quorem_D2A+0x144>
   1df84:	02012d03          	lw	s10,32(sp)
   1df88:	01c12d83          	lw	s11,28(sp)
   1df8c:	009a2823          	sw	s1,16(s4)
   1df90:	000b0593          	mv	a1,s6
   1df94:	000a0513          	mv	a0,s4
   1df98:	499000ef          	jal	1ec30 <__mcmp>
   1df9c:	0a054263          	bltz	a0,1e040 <__quorem_D2A+0x214>
   1dfa0:	00098593          	mv	a1,s3
   1dfa4:	00000513          	li	a0,0
   1dfa8:	0005a783          	lw	a5,0(a1)
   1dfac:	000ba683          	lw	a3,0(s7)
   1dfb0:	00458593          	addi	a1,a1,4
   1dfb4:	01079713          	slli	a4,a5,0x10
   1dfb8:	01069813          	slli	a6,a3,0x10
   1dfbc:	01085813          	srli	a6,a6,0x10
   1dfc0:	01075713          	srli	a4,a4,0x10
   1dfc4:	41070733          	sub	a4,a4,a6
   1dfc8:	40a70733          	sub	a4,a4,a0
   1dfcc:	0106d613          	srli	a2,a3,0x10
   1dfd0:	01075693          	srli	a3,a4,0x10
   1dfd4:	0016f693          	andi	a3,a3,1
   1dfd8:	00c686b3          	add	a3,a3,a2
   1dfdc:	0107d793          	srli	a5,a5,0x10
   1dfe0:	40d787b3          	sub	a5,a5,a3
   1dfe4:	01071713          	slli	a4,a4,0x10
   1dfe8:	01079693          	slli	a3,a5,0x10
   1dfec:	01075713          	srli	a4,a4,0x10
   1dff0:	00e6e733          	or	a4,a3,a4
   1dff4:	004b8b93          	addi	s7,s7,4
   1dff8:	0107d793          	srli	a5,a5,0x10
   1dffc:	fee5ae23          	sw	a4,-4(a1)
   1e000:	0017f513          	andi	a0,a5,1
   1e004:	fb7972e3          	bgeu	s2,s7,1dfa8 <__quorem_D2A+0x17c>
   1e008:	00249793          	slli	a5,s1,0x2
   1e00c:	00f987b3          	add	a5,s3,a5
   1e010:	0007a703          	lw	a4,0(a5)
   1e014:	02071463          	bnez	a4,1e03c <__quorem_D2A+0x210>
   1e018:	ffc78793          	addi	a5,a5,-4
   1e01c:	00f9e863          	bltu	s3,a5,1e02c <__quorem_D2A+0x200>
   1e020:	0180006f          	j	1e038 <__quorem_D2A+0x20c>
   1e024:	fff48493          	addi	s1,s1,-1
   1e028:	00f9f863          	bgeu	s3,a5,1e038 <__quorem_D2A+0x20c>
   1e02c:	0007a703          	lw	a4,0(a5)
   1e030:	ffc78793          	addi	a5,a5,-4
   1e034:	fe0708e3          	beqz	a4,1e024 <__quorem_D2A+0x1f8>
   1e038:	009a2823          	sw	s1,16(s4)
   1e03c:	00140413          	addi	s0,s0,1
   1e040:	04c12083          	lw	ra,76(sp)
   1e044:	00040513          	mv	a0,s0
   1e048:	04812403          	lw	s0,72(sp)
   1e04c:	04012903          	lw	s2,64(sp)
   1e050:	03c12983          	lw	s3,60(sp)
   1e054:	03812a03          	lw	s4,56(sp)
   1e058:	03412a83          	lw	s5,52(sp)
   1e05c:	03012b03          	lw	s6,48(sp)
   1e060:	02c12b83          	lw	s7,44(sp)
   1e064:	02812c03          	lw	s8,40(sp)
   1e068:	02412c83          	lw	s9,36(sp)
   1e06c:	04412483          	lw	s1,68(sp)
   1e070:	05010113          	addi	sp,sp,80
   1e074:	00008067          	ret
   1e078:	04c12083          	lw	ra,76(sp)
   1e07c:	04412483          	lw	s1,68(sp)
   1e080:	00000513          	li	a0,0
   1e084:	05010113          	addi	sp,sp,80
   1e088:	00008067          	ret
   1e08c:	000b0593          	mv	a1,s6
   1e090:	000a0513          	mv	a0,s4
   1e094:	02012d03          	lw	s10,32(sp)
   1e098:	01c12d83          	lw	s11,28(sp)
   1e09c:	395000ef          	jal	1ec30 <__mcmp>
   1e0a0:	f00550e3          	bgez	a0,1dfa0 <__quorem_D2A+0x174>
   1e0a4:	f9dff06f          	j	1e040 <__quorem_D2A+0x214>

0001e0a8 <__rshift_D2A>:
   1e0a8:	01052803          	lw	a6,16(a0)
   1e0ac:	4055de13          	srai	t3,a1,0x5
   1e0b0:	010e4863          	blt	t3,a6,1e0c0 <__rshift_D2A+0x18>
   1e0b4:	00052823          	sw	zero,16(a0)
   1e0b8:	00052a23          	sw	zero,20(a0)
   1e0bc:	00008067          	ret
   1e0c0:	01450313          	addi	t1,a0,20
   1e0c4:	00281613          	slli	a2,a6,0x2
   1e0c8:	002e1793          	slli	a5,t3,0x2
   1e0cc:	01f5f593          	andi	a1,a1,31
   1e0d0:	00c30633          	add	a2,t1,a2
   1e0d4:	00f307b3          	add	a5,t1,a5
   1e0d8:	06058263          	beqz	a1,1e13c <__rshift_D2A+0x94>
   1e0dc:	0007a683          	lw	a3,0(a5)
   1e0e0:	02000e93          	li	t4,32
   1e0e4:	00478793          	addi	a5,a5,4
   1e0e8:	00b6d6b3          	srl	a3,a3,a1
   1e0ec:	40be8eb3          	sub	t4,t4,a1
   1e0f0:	08c7f463          	bgeu	a5,a2,1e178 <__rshift_D2A+0xd0>
   1e0f4:	00030893          	mv	a7,t1
   1e0f8:	0007a703          	lw	a4,0(a5)
   1e0fc:	00488893          	addi	a7,a7,4
   1e100:	00478793          	addi	a5,a5,4
   1e104:	01d71733          	sll	a4,a4,t4
   1e108:	00d76733          	or	a4,a4,a3
   1e10c:	fee8ae23          	sw	a4,-4(a7)
   1e110:	ffc7a683          	lw	a3,-4(a5)
   1e114:	00b6d6b3          	srl	a3,a3,a1
   1e118:	fec7e0e3          	bltu	a5,a2,1e0f8 <__rshift_D2A+0x50>
   1e11c:	41c80833          	sub	a6,a6,t3
   1e120:	00281813          	slli	a6,a6,0x2
   1e124:	01030833          	add	a6,t1,a6
   1e128:	fed82e23          	sw	a3,-4(a6)
   1e12c:	ffc80813          	addi	a6,a6,-4
   1e130:	02068a63          	beqz	a3,1e164 <__rshift_D2A+0xbc>
   1e134:	00480813          	addi	a6,a6,4
   1e138:	02c0006f          	j	1e164 <__rshift_D2A+0xbc>
   1e13c:	00030713          	mv	a4,t1
   1e140:	f6c7fae3          	bgeu	a5,a2,1e0b4 <__rshift_D2A+0xc>
   1e144:	0007a683          	lw	a3,0(a5)
   1e148:	00478793          	addi	a5,a5,4
   1e14c:	00470713          	addi	a4,a4,4
   1e150:	fed72e23          	sw	a3,-4(a4)
   1e154:	fec7e8e3          	bltu	a5,a2,1e144 <__rshift_D2A+0x9c>
   1e158:	41c80833          	sub	a6,a6,t3
   1e15c:	00281813          	slli	a6,a6,0x2
   1e160:	01030833          	add	a6,t1,a6
   1e164:	406807b3          	sub	a5,a6,t1
   1e168:	4027d793          	srai	a5,a5,0x2
   1e16c:	00f52823          	sw	a5,16(a0)
   1e170:	f46804e3          	beq	a6,t1,1e0b8 <__rshift_D2A+0x10>
   1e174:	00008067          	ret
   1e178:	00d52a23          	sw	a3,20(a0)
   1e17c:	f2068ce3          	beqz	a3,1e0b4 <__rshift_D2A+0xc>
   1e180:	00030813          	mv	a6,t1
   1e184:	00480813          	addi	a6,a6,4
   1e188:	fddff06f          	j	1e164 <__rshift_D2A+0xbc>

0001e18c <__trailz_D2A>:
   1e18c:	01052703          	lw	a4,16(a0)
   1e190:	fe010113          	addi	sp,sp,-32
   1e194:	01450513          	addi	a0,a0,20
   1e198:	00271713          	slli	a4,a4,0x2
   1e19c:	00812c23          	sw	s0,24(sp)
   1e1a0:	00112e23          	sw	ra,28(sp)
   1e1a4:	00e50733          	add	a4,a0,a4
   1e1a8:	00000413          	li	s0,0
   1e1ac:	00e56a63          	bltu	a0,a4,1e1c0 <__trailz_D2A+0x34>
   1e1b0:	02c0006f          	j	1e1dc <__trailz_D2A+0x50>
   1e1b4:	00450513          	addi	a0,a0,4
   1e1b8:	02040413          	addi	s0,s0,32
   1e1bc:	02e57063          	bgeu	a0,a4,1e1dc <__trailz_D2A+0x50>
   1e1c0:	00052783          	lw	a5,0(a0)
   1e1c4:	fe0788e3          	beqz	a5,1e1b4 <__trailz_D2A+0x28>
   1e1c8:	00e57a63          	bgeu	a0,a4,1e1dc <__trailz_D2A+0x50>
   1e1cc:	00c10513          	addi	a0,sp,12
   1e1d0:	00f12623          	sw	a5,12(sp)
   1e1d4:	2e8000ef          	jal	1e4bc <__lo0bits>
   1e1d8:	00a40433          	add	s0,s0,a0
   1e1dc:	01c12083          	lw	ra,28(sp)
   1e1e0:	00040513          	mv	a0,s0
   1e1e4:	01812403          	lw	s0,24(sp)
   1e1e8:	02010113          	addi	sp,sp,32
   1e1ec:	00008067          	ret

0001e1f0 <_Balloc>:
   1e1f0:	04452783          	lw	a5,68(a0)
   1e1f4:	ff010113          	addi	sp,sp,-16
   1e1f8:	00812423          	sw	s0,8(sp)
   1e1fc:	00912223          	sw	s1,4(sp)
   1e200:	00112623          	sw	ra,12(sp)
   1e204:	00050413          	mv	s0,a0
   1e208:	00058493          	mv	s1,a1
   1e20c:	02078c63          	beqz	a5,1e244 <_Balloc+0x54>
   1e210:	00249713          	slli	a4,s1,0x2
   1e214:	00e787b3          	add	a5,a5,a4
   1e218:	0007a503          	lw	a0,0(a5)
   1e21c:	04050463          	beqz	a0,1e264 <_Balloc+0x74>
   1e220:	00052703          	lw	a4,0(a0)
   1e224:	00e7a023          	sw	a4,0(a5)
   1e228:	00052823          	sw	zero,16(a0)
   1e22c:	00052623          	sw	zero,12(a0)
   1e230:	00c12083          	lw	ra,12(sp)
   1e234:	00812403          	lw	s0,8(sp)
   1e238:	00412483          	lw	s1,4(sp)
   1e23c:	01010113          	addi	sp,sp,16
   1e240:	00008067          	ret
   1e244:	02100613          	li	a2,33
   1e248:	00400593          	li	a1,4
   1e24c:	5e8010ef          	jal	1f834 <_calloc_r>
   1e250:	04a42223          	sw	a0,68(s0)
   1e254:	00050793          	mv	a5,a0
   1e258:	fa051ce3          	bnez	a0,1e210 <_Balloc+0x20>
   1e25c:	00000513          	li	a0,0
   1e260:	fd1ff06f          	j	1e230 <_Balloc+0x40>
   1e264:	00100593          	li	a1,1
   1e268:	01212023          	sw	s2,0(sp)
   1e26c:	00959933          	sll	s2,a1,s1
   1e270:	00590613          	addi	a2,s2,5
   1e274:	00040513          	mv	a0,s0
   1e278:	00261613          	slli	a2,a2,0x2
   1e27c:	5b8010ef          	jal	1f834 <_calloc_r>
   1e280:	00050a63          	beqz	a0,1e294 <_Balloc+0xa4>
   1e284:	01252423          	sw	s2,8(a0)
   1e288:	00952223          	sw	s1,4(a0)
   1e28c:	00012903          	lw	s2,0(sp)
   1e290:	f99ff06f          	j	1e228 <_Balloc+0x38>
   1e294:	00012903          	lw	s2,0(sp)
   1e298:	00000513          	li	a0,0
   1e29c:	f95ff06f          	j	1e230 <_Balloc+0x40>

0001e2a0 <_Bfree>:
   1e2a0:	02058063          	beqz	a1,1e2c0 <_Bfree+0x20>
   1e2a4:	0045a703          	lw	a4,4(a1)
   1e2a8:	04452783          	lw	a5,68(a0)
   1e2ac:	00271713          	slli	a4,a4,0x2
   1e2b0:	00e787b3          	add	a5,a5,a4
   1e2b4:	0007a703          	lw	a4,0(a5)
   1e2b8:	00e5a023          	sw	a4,0(a1)
   1e2bc:	00b7a023          	sw	a1,0(a5)
   1e2c0:	00008067          	ret

0001e2c4 <__multadd>:
   1e2c4:	fd010113          	addi	sp,sp,-48
   1e2c8:	01312e23          	sw	s3,28(sp)
   1e2cc:	0105a983          	lw	s3,16(a1)
   1e2d0:	02812423          	sw	s0,40(sp)
   1e2d4:	02912223          	sw	s1,36(sp)
   1e2d8:	03212023          	sw	s2,32(sp)
   1e2dc:	01412c23          	sw	s4,24(sp)
   1e2e0:	01512a23          	sw	s5,20(sp)
   1e2e4:	01612823          	sw	s6,16(sp)
   1e2e8:	02112623          	sw	ra,44(sp)
   1e2ec:	01712623          	sw	s7,12(sp)
   1e2f0:	00058a13          	mv	s4,a1
   1e2f4:	00050a93          	mv	s5,a0
   1e2f8:	00060913          	mv	s2,a2
   1e2fc:	00068413          	mv	s0,a3
   1e300:	01458493          	addi	s1,a1,20
   1e304:	00000b13          	li	s6,0
   1e308:	0004ab83          	lw	s7,0(s1)
   1e30c:	00090593          	mv	a1,s2
   1e310:	00448493          	addi	s1,s1,4
   1e314:	010b9513          	slli	a0,s7,0x10
   1e318:	01055513          	srli	a0,a0,0x10
   1e31c:	b89f70ef          	jal	15ea4 <__mulsi3>
   1e320:	00050793          	mv	a5,a0
   1e324:	00090593          	mv	a1,s2
   1e328:	010bd513          	srli	a0,s7,0x10
   1e32c:	00878433          	add	s0,a5,s0
   1e330:	b75f70ef          	jal	15ea4 <__mulsi3>
   1e334:	01045793          	srli	a5,s0,0x10
   1e338:	00f50533          	add	a0,a0,a5
   1e33c:	01041413          	slli	s0,s0,0x10
   1e340:	01045413          	srli	s0,s0,0x10
   1e344:	01051793          	slli	a5,a0,0x10
   1e348:	008787b3          	add	a5,a5,s0
   1e34c:	001b0b13          	addi	s6,s6,1
   1e350:	fef4ae23          	sw	a5,-4(s1)
   1e354:	01055413          	srli	s0,a0,0x10
   1e358:	fb3b48e3          	blt	s6,s3,1e308 <__multadd+0x44>
   1e35c:	02040063          	beqz	s0,1e37c <__multadd+0xb8>
   1e360:	008a2783          	lw	a5,8(s4)
   1e364:	04f9d463          	bge	s3,a5,1e3ac <__multadd+0xe8>
   1e368:	00299793          	slli	a5,s3,0x2
   1e36c:	00fa07b3          	add	a5,s4,a5
   1e370:	0087aa23          	sw	s0,20(a5)
   1e374:	00198993          	addi	s3,s3,1
   1e378:	013a2823          	sw	s3,16(s4)
   1e37c:	02c12083          	lw	ra,44(sp)
   1e380:	02812403          	lw	s0,40(sp)
   1e384:	02412483          	lw	s1,36(sp)
   1e388:	02012903          	lw	s2,32(sp)
   1e38c:	01c12983          	lw	s3,28(sp)
   1e390:	01412a83          	lw	s5,20(sp)
   1e394:	01012b03          	lw	s6,16(sp)
   1e398:	00c12b83          	lw	s7,12(sp)
   1e39c:	000a0513          	mv	a0,s4
   1e3a0:	01812a03          	lw	s4,24(sp)
   1e3a4:	03010113          	addi	sp,sp,48
   1e3a8:	00008067          	ret
   1e3ac:	004a2583          	lw	a1,4(s4)
   1e3b0:	000a8513          	mv	a0,s5
   1e3b4:	00158593          	addi	a1,a1,1
   1e3b8:	e39ff0ef          	jal	1e1f0 <_Balloc>
   1e3bc:	00050493          	mv	s1,a0
   1e3c0:	04050a63          	beqz	a0,1e414 <__multadd+0x150>
   1e3c4:	010a2603          	lw	a2,16(s4)
   1e3c8:	00ca0593          	addi	a1,s4,12
   1e3cc:	00c50513          	addi	a0,a0,12
   1e3d0:	00260613          	addi	a2,a2,2
   1e3d4:	00261613          	slli	a2,a2,0x2
   1e3d8:	b34fd0ef          	jal	1b70c <memcpy>
   1e3dc:	004a2703          	lw	a4,4(s4)
   1e3e0:	044aa783          	lw	a5,68(s5)
   1e3e4:	00271713          	slli	a4,a4,0x2
   1e3e8:	00e787b3          	add	a5,a5,a4
   1e3ec:	0007a703          	lw	a4,0(a5)
   1e3f0:	00ea2023          	sw	a4,0(s4)
   1e3f4:	0147a023          	sw	s4,0(a5)
   1e3f8:	00048a13          	mv	s4,s1
   1e3fc:	00299793          	slli	a5,s3,0x2
   1e400:	00fa07b3          	add	a5,s4,a5
   1e404:	0087aa23          	sw	s0,20(a5)
   1e408:	00198993          	addi	s3,s3,1
   1e40c:	013a2823          	sw	s3,16(s4)
   1e410:	f6dff06f          	j	1e37c <__multadd+0xb8>
   1e414:	000216b7          	lui	a3,0x21
   1e418:	00021537          	lui	a0,0x21
   1e41c:	22868693          	addi	a3,a3,552 # 21228 <_getpid_r+0xf0>
   1e420:	2bc50513          	addi	a0,a0,700 # 212bc <_getpid_r+0x184>
   1e424:	00000613          	li	a2,0
   1e428:	0ba00593          	li	a1,186
   1e42c:	3bc010ef          	jal	1f7e8 <__assert_func>

0001e430 <__hi0bits>:
   1e430:	00050793          	mv	a5,a0
   1e434:	00010737          	lui	a4,0x10
   1e438:	00000513          	li	a0,0
   1e43c:	00e7f663          	bgeu	a5,a4,1e448 <__hi0bits+0x18>
   1e440:	01079793          	slli	a5,a5,0x10
   1e444:	01000513          	li	a0,16
   1e448:	01000737          	lui	a4,0x1000
   1e44c:	00e7f663          	bgeu	a5,a4,1e458 <__hi0bits+0x28>
   1e450:	00850513          	addi	a0,a0,8
   1e454:	00879793          	slli	a5,a5,0x8
   1e458:	10000737          	lui	a4,0x10000
   1e45c:	00e7ee63          	bltu	a5,a4,1e478 <__hi0bits+0x48>
   1e460:	40000737          	lui	a4,0x40000
   1e464:	02e7fe63          	bgeu	a5,a4,1e4a0 <__hi0bits+0x70>
   1e468:	00279713          	slli	a4,a5,0x2
   1e46c:	04074463          	bltz	a4,1e4b4 <__hi0bits+0x84>
   1e470:	00350513          	addi	a0,a0,3
   1e474:	00008067          	ret
   1e478:	00479713          	slli	a4,a5,0x4
   1e47c:	400006b7          	lui	a3,0x40000
   1e480:	00450513          	addi	a0,a0,4
   1e484:	02d77063          	bgeu	a4,a3,1e4a4 <__hi0bits+0x74>
   1e488:	00679793          	slli	a5,a5,0x6
   1e48c:	0207c463          	bltz	a5,1e4b4 <__hi0bits+0x84>
   1e490:	00179713          	slli	a4,a5,0x1
   1e494:	fc074ee3          	bltz	a4,1e470 <__hi0bits+0x40>
   1e498:	02000513          	li	a0,32
   1e49c:	00008067          	ret
   1e4a0:	00078713          	mv	a4,a5
   1e4a4:	fff74713          	not	a4,a4
   1e4a8:	01f75713          	srli	a4,a4,0x1f
   1e4ac:	00e50533          	add	a0,a0,a4
   1e4b0:	00008067          	ret
   1e4b4:	00250513          	addi	a0,a0,2
   1e4b8:	00008067          	ret

0001e4bc <__lo0bits>:
   1e4bc:	00052783          	lw	a5,0(a0)
   1e4c0:	00050713          	mv	a4,a0
   1e4c4:	0077f693          	andi	a3,a5,7
   1e4c8:	02068c63          	beqz	a3,1e500 <__lo0bits+0x44>
   1e4cc:	0017f693          	andi	a3,a5,1
   1e4d0:	00000513          	li	a0,0
   1e4d4:	02069463          	bnez	a3,1e4fc <__lo0bits+0x40>
   1e4d8:	0027f693          	andi	a3,a5,2
   1e4dc:	0c068063          	beqz	a3,1e59c <__lo0bits+0xe0>
   1e4e0:	0017d793          	srli	a5,a5,0x1
   1e4e4:	00f72023          	sw	a5,0(a4) # 40000000 <__global_pointer$+0x3ffdd148>
   1e4e8:	00100513          	li	a0,1
   1e4ec:	00008067          	ret
   1e4f0:	0037d793          	srli	a5,a5,0x3
   1e4f4:	0c079263          	bnez	a5,1e5b8 <__lo0bits+0xfc>
   1e4f8:	02000513          	li	a0,32
   1e4fc:	00008067          	ret
   1e500:	01079693          	slli	a3,a5,0x10
   1e504:	0106d693          	srli	a3,a3,0x10
   1e508:	04069263          	bnez	a3,1e54c <__lo0bits+0x90>
   1e50c:	0107d793          	srli	a5,a5,0x10
   1e510:	0ff7f693          	zext.b	a3,a5
   1e514:	01000513          	li	a0,16
   1e518:	00069663          	bnez	a3,1e524 <__lo0bits+0x68>
   1e51c:	01800513          	li	a0,24
   1e520:	0087d793          	srli	a5,a5,0x8
   1e524:	00f7f693          	andi	a3,a5,15
   1e528:	04068e63          	beqz	a3,1e584 <__lo0bits+0xc8>
   1e52c:	0037f693          	andi	a3,a5,3
   1e530:	02068e63          	beqz	a3,1e56c <__lo0bits+0xb0>
   1e534:	0017f693          	andi	a3,a5,1
   1e538:	00069663          	bnez	a3,1e544 <__lo0bits+0x88>
   1e53c:	00150513          	addi	a0,a0,1
   1e540:	0017d793          	srli	a5,a5,0x1
   1e544:	00f72023          	sw	a5,0(a4)
   1e548:	00008067          	ret
   1e54c:	0ff7f693          	zext.b	a3,a5
   1e550:	04068063          	beqz	a3,1e590 <__lo0bits+0xd4>
   1e554:	00f7f693          	andi	a3,a5,15
   1e558:	04069a63          	bnez	a3,1e5ac <__lo0bits+0xf0>
   1e55c:	00400513          	li	a0,4
   1e560:	0047d793          	srli	a5,a5,0x4
   1e564:	0037f693          	andi	a3,a5,3
   1e568:	fc0696e3          	bnez	a3,1e534 <__lo0bits+0x78>
   1e56c:	0027d693          	srli	a3,a5,0x2
   1e570:	0016f613          	andi	a2,a3,1
   1e574:	f6060ee3          	beqz	a2,1e4f0 <__lo0bits+0x34>
   1e578:	00250513          	addi	a0,a0,2
   1e57c:	00068793          	mv	a5,a3
   1e580:	fc5ff06f          	j	1e544 <__lo0bits+0x88>
   1e584:	00450513          	addi	a0,a0,4
   1e588:	0047d793          	srli	a5,a5,0x4
   1e58c:	fd9ff06f          	j	1e564 <__lo0bits+0xa8>
   1e590:	00800513          	li	a0,8
   1e594:	0087d793          	srli	a5,a5,0x8
   1e598:	f8dff06f          	j	1e524 <__lo0bits+0x68>
   1e59c:	0027d793          	srli	a5,a5,0x2
   1e5a0:	00f72023          	sw	a5,0(a4)
   1e5a4:	00200513          	li	a0,2
   1e5a8:	00008067          	ret
   1e5ac:	0037d793          	srli	a5,a5,0x3
   1e5b0:	00300513          	li	a0,3
   1e5b4:	f91ff06f          	j	1e544 <__lo0bits+0x88>
   1e5b8:	00350513          	addi	a0,a0,3
   1e5bc:	f89ff06f          	j	1e544 <__lo0bits+0x88>

0001e5c0 <__i2b>:
   1e5c0:	04452783          	lw	a5,68(a0)
   1e5c4:	ff010113          	addi	sp,sp,-16
   1e5c8:	00812423          	sw	s0,8(sp)
   1e5cc:	00912223          	sw	s1,4(sp)
   1e5d0:	00112623          	sw	ra,12(sp)
   1e5d4:	00050413          	mv	s0,a0
   1e5d8:	00058493          	mv	s1,a1
   1e5dc:	02078c63          	beqz	a5,1e614 <__i2b+0x54>
   1e5e0:	0047a503          	lw	a0,4(a5)
   1e5e4:	06050263          	beqz	a0,1e648 <__i2b+0x88>
   1e5e8:	00052703          	lw	a4,0(a0)
   1e5ec:	00e7a223          	sw	a4,4(a5)
   1e5f0:	00c12083          	lw	ra,12(sp)
   1e5f4:	00812403          	lw	s0,8(sp)
   1e5f8:	00100793          	li	a5,1
   1e5fc:	00952a23          	sw	s1,20(a0)
   1e600:	00052623          	sw	zero,12(a0)
   1e604:	00f52823          	sw	a5,16(a0)
   1e608:	00412483          	lw	s1,4(sp)
   1e60c:	01010113          	addi	sp,sp,16
   1e610:	00008067          	ret
   1e614:	02100613          	li	a2,33
   1e618:	00400593          	li	a1,4
   1e61c:	218010ef          	jal	1f834 <_calloc_r>
   1e620:	04a42223          	sw	a0,68(s0)
   1e624:	00050793          	mv	a5,a0
   1e628:	fa051ce3          	bnez	a0,1e5e0 <__i2b+0x20>
   1e62c:	000216b7          	lui	a3,0x21
   1e630:	00021537          	lui	a0,0x21
   1e634:	22868693          	addi	a3,a3,552 # 21228 <_getpid_r+0xf0>
   1e638:	2bc50513          	addi	a0,a0,700 # 212bc <_getpid_r+0x184>
   1e63c:	00000613          	li	a2,0
   1e640:	14500593          	li	a1,325
   1e644:	1a4010ef          	jal	1f7e8 <__assert_func>
   1e648:	00040513          	mv	a0,s0
   1e64c:	01c00613          	li	a2,28
   1e650:	00100593          	li	a1,1
   1e654:	1e0010ef          	jal	1f834 <_calloc_r>
   1e658:	fc050ae3          	beqz	a0,1e62c <__i2b+0x6c>
   1e65c:	00100713          	li	a4,1
   1e660:	00200793          	li	a5,2
   1e664:	00e52223          	sw	a4,4(a0)
   1e668:	00f52423          	sw	a5,8(a0)
   1e66c:	f85ff06f          	j	1e5f0 <__i2b+0x30>

0001e670 <__multiply>:
   1e670:	fb010113          	addi	sp,sp,-80
   1e674:	03312e23          	sw	s3,60(sp)
   1e678:	03812423          	sw	s8,40(sp)
   1e67c:	01062983          	lw	s3,16(a2)
   1e680:	0105ac03          	lw	s8,16(a1)
   1e684:	04812423          	sw	s0,72(sp)
   1e688:	03412c23          	sw	s4,56(sp)
   1e68c:	04112623          	sw	ra,76(sp)
   1e690:	03712623          	sw	s7,44(sp)
   1e694:	00058a13          	mv	s4,a1
   1e698:	00060413          	mv	s0,a2
   1e69c:	013c4c63          	blt	s8,s3,1e6b4 <__multiply+0x44>
   1e6a0:	00098713          	mv	a4,s3
   1e6a4:	00058413          	mv	s0,a1
   1e6a8:	000c0993          	mv	s3,s8
   1e6ac:	00060a13          	mv	s4,a2
   1e6b0:	00070c13          	mv	s8,a4
   1e6b4:	00842783          	lw	a5,8(s0)
   1e6b8:	00442583          	lw	a1,4(s0)
   1e6bc:	01898bb3          	add	s7,s3,s8
   1e6c0:	0177a7b3          	slt	a5,a5,s7
   1e6c4:	00f585b3          	add	a1,a1,a5
   1e6c8:	b29ff0ef          	jal	1e1f0 <_Balloc>
   1e6cc:	00a12623          	sw	a0,12(sp)
   1e6d0:	22050a63          	beqz	a0,1e904 <__multiply+0x294>
   1e6d4:	00c12783          	lw	a5,12(sp)
   1e6d8:	03512a23          	sw	s5,52(sp)
   1e6dc:	03612823          	sw	s6,48(sp)
   1e6e0:	002b9a93          	slli	s5,s7,0x2
   1e6e4:	01478b13          	addi	s6,a5,20
   1e6e8:	015b0ab3          	add	s5,s6,s5
   1e6ec:	000b0793          	mv	a5,s6
   1e6f0:	015b7863          	bgeu	s6,s5,1e700 <__multiply+0x90>
   1e6f4:	0007a023          	sw	zero,0(a5)
   1e6f8:	00478793          	addi	a5,a5,4
   1e6fc:	ff57ece3          	bltu	a5,s5,1e6f4 <__multiply+0x84>
   1e700:	01440793          	addi	a5,s0,20
   1e704:	014a0a13          	addi	s4,s4,20
   1e708:	002c1c13          	slli	s8,s8,0x2
   1e70c:	00299993          	slli	s3,s3,0x2
   1e710:	018a0c33          	add	s8,s4,s8
   1e714:	00f12423          	sw	a5,8(sp)
   1e718:	013789b3          	add	s3,a5,s3
   1e71c:	198a7c63          	bgeu	s4,s8,1e8b4 <__multiply+0x244>
   1e720:	04912223          	sw	s1,68(sp)
   1e724:	05212023          	sw	s2,64(sp)
   1e728:	03912223          	sw	s9,36(sp)
   1e72c:	03a12023          	sw	s10,32(sp)
   1e730:	01b12e23          	sw	s11,28(sp)
   1e734:	01540793          	addi	a5,s0,21
   1e738:	00012223          	sw	zero,4(sp)
   1e73c:	02f9ec63          	bltu	s3,a5,1e774 <__multiply+0x104>
   1e740:	000a2903          	lw	s2,0(s4)
   1e744:	40898433          	sub	s0,s3,s0
   1e748:	feb40413          	addi	s0,s0,-21
   1e74c:	ffc47793          	andi	a5,s0,-4
   1e750:	01091493          	slli	s1,s2,0x10
   1e754:	00f12223          	sw	a5,4(sp)
   1e758:	0104d493          	srli	s1,s1,0x10
   1e75c:	02049463          	bnez	s1,1e784 <__multiply+0x114>
   1e760:	01095913          	srli	s2,s2,0x10
   1e764:	0a091863          	bnez	s2,1e814 <__multiply+0x1a4>
   1e768:	004a0a13          	addi	s4,s4,4
   1e76c:	004b0b13          	addi	s6,s6,4
   1e770:	138a7863          	bgeu	s4,s8,1e8a0 <__multiply+0x230>
   1e774:	000a2903          	lw	s2,0(s4)
   1e778:	01091493          	slli	s1,s2,0x10
   1e77c:	0104d493          	srli	s1,s1,0x10
   1e780:	fe0480e3          	beqz	s1,1e760 <__multiply+0xf0>
   1e784:	00812c83          	lw	s9,8(sp)
   1e788:	000b0d13          	mv	s10,s6
   1e78c:	00000413          	li	s0,0
   1e790:	000cad83          	lw	s11,0(s9)
   1e794:	000d2903          	lw	s2,0(s10)
   1e798:	00048593          	mv	a1,s1
   1e79c:	010d9513          	slli	a0,s11,0x10
   1e7a0:	01055513          	srli	a0,a0,0x10
   1e7a4:	f00f70ef          	jal	15ea4 <__mulsi3>
   1e7a8:	01091813          	slli	a6,s2,0x10
   1e7ac:	00050793          	mv	a5,a0
   1e7b0:	01085813          	srli	a6,a6,0x10
   1e7b4:	010787b3          	add	a5,a5,a6
   1e7b8:	010dd513          	srli	a0,s11,0x10
   1e7bc:	00048593          	mv	a1,s1
   1e7c0:	00878433          	add	s0,a5,s0
   1e7c4:	01095913          	srli	s2,s2,0x10
   1e7c8:	edcf70ef          	jal	15ea4 <__mulsi3>
   1e7cc:	01045793          	srli	a5,s0,0x10
   1e7d0:	01250533          	add	a0,a0,s2
   1e7d4:	00f50533          	add	a0,a0,a5
   1e7d8:	01041413          	slli	s0,s0,0x10
   1e7dc:	01045413          	srli	s0,s0,0x10
   1e7e0:	01051793          	slli	a5,a0,0x10
   1e7e4:	0087e7b3          	or	a5,a5,s0
   1e7e8:	004c8c93          	addi	s9,s9,4
   1e7ec:	00fd2023          	sw	a5,0(s10)
   1e7f0:	004d0d13          	addi	s10,s10,4
   1e7f4:	01055413          	srli	s0,a0,0x10
   1e7f8:	f93cece3          	bltu	s9,s3,1e790 <__multiply+0x120>
   1e7fc:	00412783          	lw	a5,4(sp)
   1e800:	00fb07b3          	add	a5,s6,a5
   1e804:	0087a223          	sw	s0,4(a5)
   1e808:	000a2903          	lw	s2,0(s4)
   1e80c:	01095913          	srli	s2,s2,0x10
   1e810:	f4090ce3          	beqz	s2,1e768 <__multiply+0xf8>
   1e814:	000b2403          	lw	s0,0(s6)
   1e818:	00812d83          	lw	s11,8(sp)
   1e81c:	000b0d13          	mv	s10,s6
   1e820:	00040493          	mv	s1,s0
   1e824:	00000c93          	li	s9,0
   1e828:	000dd503          	lhu	a0,0(s11)
   1e82c:	00090593          	mv	a1,s2
   1e830:	0104d493          	srli	s1,s1,0x10
   1e834:	e70f70ef          	jal	15ea4 <__mulsi3>
   1e838:	019507b3          	add	a5,a0,s9
   1e83c:	00978cb3          	add	s9,a5,s1
   1e840:	01041413          	slli	s0,s0,0x10
   1e844:	01045413          	srli	s0,s0,0x10
   1e848:	010c9613          	slli	a2,s9,0x10
   1e84c:	00866633          	or	a2,a2,s0
   1e850:	00cd2023          	sw	a2,0(s10)
   1e854:	002dd503          	lhu	a0,2(s11)
   1e858:	004d2483          	lw	s1,4(s10)
   1e85c:	00090593          	mv	a1,s2
   1e860:	e44f70ef          	jal	15ea4 <__mulsi3>
   1e864:	01049613          	slli	a2,s1,0x10
   1e868:	01065613          	srli	a2,a2,0x10
   1e86c:	010cd793          	srli	a5,s9,0x10
   1e870:	00c50433          	add	s0,a0,a2
   1e874:	004d8d93          	addi	s11,s11,4
   1e878:	00f40433          	add	s0,s0,a5
   1e87c:	004d0d13          	addi	s10,s10,4
   1e880:	01045c93          	srli	s9,s0,0x10
   1e884:	fb3de2e3          	bltu	s11,s3,1e828 <__multiply+0x1b8>
   1e888:	00412783          	lw	a5,4(sp)
   1e88c:	004a0a13          	addi	s4,s4,4
   1e890:	00fb07b3          	add	a5,s6,a5
   1e894:	0087a223          	sw	s0,4(a5)
   1e898:	004b0b13          	addi	s6,s6,4
   1e89c:	ed8a6ce3          	bltu	s4,s8,1e774 <__multiply+0x104>
   1e8a0:	04412483          	lw	s1,68(sp)
   1e8a4:	04012903          	lw	s2,64(sp)
   1e8a8:	02412c83          	lw	s9,36(sp)
   1e8ac:	02012d03          	lw	s10,32(sp)
   1e8b0:	01c12d83          	lw	s11,28(sp)
   1e8b4:	01704863          	bgtz	s7,1e8c4 <__multiply+0x254>
   1e8b8:	0180006f          	j	1e8d0 <__multiply+0x260>
   1e8bc:	fffb8b93          	addi	s7,s7,-1
   1e8c0:	000b8863          	beqz	s7,1e8d0 <__multiply+0x260>
   1e8c4:	ffcaa783          	lw	a5,-4(s5)
   1e8c8:	ffca8a93          	addi	s5,s5,-4
   1e8cc:	fe0788e3          	beqz	a5,1e8bc <__multiply+0x24c>
   1e8d0:	00c12783          	lw	a5,12(sp)
   1e8d4:	04c12083          	lw	ra,76(sp)
   1e8d8:	04812403          	lw	s0,72(sp)
   1e8dc:	0177a823          	sw	s7,16(a5)
   1e8e0:	03412a83          	lw	s5,52(sp)
   1e8e4:	03012b03          	lw	s6,48(sp)
   1e8e8:	03c12983          	lw	s3,60(sp)
   1e8ec:	03812a03          	lw	s4,56(sp)
   1e8f0:	02c12b83          	lw	s7,44(sp)
   1e8f4:	02812c03          	lw	s8,40(sp)
   1e8f8:	00078513          	mv	a0,a5
   1e8fc:	05010113          	addi	sp,sp,80
   1e900:	00008067          	ret
   1e904:	000216b7          	lui	a3,0x21
   1e908:	00021537          	lui	a0,0x21
   1e90c:	22868693          	addi	a3,a3,552 # 21228 <_getpid_r+0xf0>
   1e910:	2bc50513          	addi	a0,a0,700 # 212bc <_getpid_r+0x184>
   1e914:	00000613          	li	a2,0
   1e918:	16200593          	li	a1,354
   1e91c:	04912223          	sw	s1,68(sp)
   1e920:	05212023          	sw	s2,64(sp)
   1e924:	03512a23          	sw	s5,52(sp)
   1e928:	03612823          	sw	s6,48(sp)
   1e92c:	03912223          	sw	s9,36(sp)
   1e930:	03a12023          	sw	s10,32(sp)
   1e934:	01b12e23          	sw	s11,28(sp)
   1e938:	6b1000ef          	jal	1f7e8 <__assert_func>

0001e93c <__pow5mult>:
   1e93c:	fe010113          	addi	sp,sp,-32
   1e940:	00812c23          	sw	s0,24(sp)
   1e944:	01212823          	sw	s2,16(sp)
   1e948:	01312623          	sw	s3,12(sp)
   1e94c:	00112e23          	sw	ra,28(sp)
   1e950:	00367793          	andi	a5,a2,3
   1e954:	00060413          	mv	s0,a2
   1e958:	00050993          	mv	s3,a0
   1e95c:	00058913          	mv	s2,a1
   1e960:	0c079a63          	bnez	a5,1ea34 <__pow5mult+0xf8>
   1e964:	40245413          	srai	s0,s0,0x2
   1e968:	0a040863          	beqz	s0,1ea18 <__pow5mult+0xdc>
   1e96c:	00912a23          	sw	s1,20(sp)
   1e970:	0409a483          	lw	s1,64(s3)
   1e974:	0e048263          	beqz	s1,1ea58 <__pow5mult+0x11c>
   1e978:	00147793          	andi	a5,s0,1
   1e97c:	40145413          	srai	s0,s0,0x1
   1e980:	00079e63          	bnez	a5,1e99c <__pow5mult+0x60>
   1e984:	0004a503          	lw	a0,0(s1)
   1e988:	04050a63          	beqz	a0,1e9dc <__pow5mult+0xa0>
   1e98c:	00050493          	mv	s1,a0
   1e990:	00147793          	andi	a5,s0,1
   1e994:	40145413          	srai	s0,s0,0x1
   1e998:	fe0786e3          	beqz	a5,1e984 <__pow5mult+0x48>
   1e99c:	00048613          	mv	a2,s1
   1e9a0:	00090593          	mv	a1,s2
   1e9a4:	00098513          	mv	a0,s3
   1e9a8:	cc9ff0ef          	jal	1e670 <__multiply>
   1e9ac:	02090063          	beqz	s2,1e9cc <__pow5mult+0x90>
   1e9b0:	00492703          	lw	a4,4(s2)
   1e9b4:	0449a783          	lw	a5,68(s3)
   1e9b8:	00271713          	slli	a4,a4,0x2
   1e9bc:	00e787b3          	add	a5,a5,a4
   1e9c0:	0007a703          	lw	a4,0(a5)
   1e9c4:	00e92023          	sw	a4,0(s2)
   1e9c8:	0127a023          	sw	s2,0(a5)
   1e9cc:	02040863          	beqz	s0,1e9fc <__pow5mult+0xc0>
   1e9d0:	00050913          	mv	s2,a0
   1e9d4:	0004a503          	lw	a0,0(s1)
   1e9d8:	fa051ae3          	bnez	a0,1e98c <__pow5mult+0x50>
   1e9dc:	00048613          	mv	a2,s1
   1e9e0:	00048593          	mv	a1,s1
   1e9e4:	00098513          	mv	a0,s3
   1e9e8:	c89ff0ef          	jal	1e670 <__multiply>
   1e9ec:	00a4a023          	sw	a0,0(s1)
   1e9f0:	00052023          	sw	zero,0(a0)
   1e9f4:	00050493          	mv	s1,a0
   1e9f8:	f99ff06f          	j	1e990 <__pow5mult+0x54>
   1e9fc:	01c12083          	lw	ra,28(sp)
   1ea00:	01812403          	lw	s0,24(sp)
   1ea04:	01412483          	lw	s1,20(sp)
   1ea08:	01012903          	lw	s2,16(sp)
   1ea0c:	00c12983          	lw	s3,12(sp)
   1ea10:	02010113          	addi	sp,sp,32
   1ea14:	00008067          	ret
   1ea18:	01c12083          	lw	ra,28(sp)
   1ea1c:	01812403          	lw	s0,24(sp)
   1ea20:	00c12983          	lw	s3,12(sp)
   1ea24:	00090513          	mv	a0,s2
   1ea28:	01012903          	lw	s2,16(sp)
   1ea2c:	02010113          	addi	sp,sp,32
   1ea30:	00008067          	ret
   1ea34:	00021737          	lui	a4,0x21
   1ea38:	5bc70713          	addi	a4,a4,1468 # 215bc <p05.0>
   1ea3c:	00279793          	slli	a5,a5,0x2
   1ea40:	00f707b3          	add	a5,a4,a5
   1ea44:	ffc7a603          	lw	a2,-4(a5)
   1ea48:	00000693          	li	a3,0
   1ea4c:	879ff0ef          	jal	1e2c4 <__multadd>
   1ea50:	00050913          	mv	s2,a0
   1ea54:	f11ff06f          	j	1e964 <__pow5mult+0x28>
   1ea58:	00100593          	li	a1,1
   1ea5c:	00098513          	mv	a0,s3
   1ea60:	f90ff0ef          	jal	1e1f0 <_Balloc>
   1ea64:	00050493          	mv	s1,a0
   1ea68:	02050063          	beqz	a0,1ea88 <__pow5mult+0x14c>
   1ea6c:	27100713          	li	a4,625
   1ea70:	00100793          	li	a5,1
   1ea74:	00e52a23          	sw	a4,20(a0)
   1ea78:	00f52823          	sw	a5,16(a0)
   1ea7c:	04a9a023          	sw	a0,64(s3)
   1ea80:	00052023          	sw	zero,0(a0)
   1ea84:	ef5ff06f          	j	1e978 <__pow5mult+0x3c>
   1ea88:	000216b7          	lui	a3,0x21
   1ea8c:	00021537          	lui	a0,0x21
   1ea90:	22868693          	addi	a3,a3,552 # 21228 <_getpid_r+0xf0>
   1ea94:	2bc50513          	addi	a0,a0,700 # 212bc <_getpid_r+0x184>
   1ea98:	00000613          	li	a2,0
   1ea9c:	14500593          	li	a1,325
   1eaa0:	549000ef          	jal	1f7e8 <__assert_func>

0001eaa4 <__lshift>:
   1eaa4:	fe010113          	addi	sp,sp,-32
   1eaa8:	01312623          	sw	s3,12(sp)
   1eaac:	0105a983          	lw	s3,16(a1)
   1eab0:	0085a783          	lw	a5,8(a1)
   1eab4:	01512223          	sw	s5,4(sp)
   1eab8:	40565a93          	srai	s5,a2,0x5
   1eabc:	013a89b3          	add	s3,s5,s3
   1eac0:	00812c23          	sw	s0,24(sp)
   1eac4:	00912a23          	sw	s1,20(sp)
   1eac8:	01212823          	sw	s2,16(sp)
   1eacc:	01412423          	sw	s4,8(sp)
   1ead0:	00112e23          	sw	ra,28(sp)
   1ead4:	00198493          	addi	s1,s3,1
   1ead8:	00058413          	mv	s0,a1
   1eadc:	00060a13          	mv	s4,a2
   1eae0:	0045a583          	lw	a1,4(a1)
   1eae4:	00050913          	mv	s2,a0
   1eae8:	0097d863          	bge	a5,s1,1eaf8 <__lshift+0x54>
   1eaec:	00179793          	slli	a5,a5,0x1
   1eaf0:	00158593          	addi	a1,a1,1
   1eaf4:	fe97cce3          	blt	a5,s1,1eaec <__lshift+0x48>
   1eaf8:	00090513          	mv	a0,s2
   1eafc:	ef4ff0ef          	jal	1e1f0 <_Balloc>
   1eb00:	10050a63          	beqz	a0,1ec14 <__lshift+0x170>
   1eb04:	01450813          	addi	a6,a0,20
   1eb08:	03505463          	blez	s5,1eb30 <__lshift+0x8c>
   1eb0c:	005a8713          	addi	a4,s5,5
   1eb10:	00271713          	slli	a4,a4,0x2
   1eb14:	00e50733          	add	a4,a0,a4
   1eb18:	00080793          	mv	a5,a6
   1eb1c:	00478793          	addi	a5,a5,4
   1eb20:	fe07ae23          	sw	zero,-4(a5)
   1eb24:	fee79ce3          	bne	a5,a4,1eb1c <__lshift+0x78>
   1eb28:	002a9a93          	slli	s5,s5,0x2
   1eb2c:	01580833          	add	a6,a6,s5
   1eb30:	01042883          	lw	a7,16(s0)
   1eb34:	01440793          	addi	a5,s0,20
   1eb38:	01fa7613          	andi	a2,s4,31
   1eb3c:	00289893          	slli	a7,a7,0x2
   1eb40:	011788b3          	add	a7,a5,a7
   1eb44:	0a060263          	beqz	a2,1ebe8 <__lshift+0x144>
   1eb48:	02000593          	li	a1,32
   1eb4c:	40c585b3          	sub	a1,a1,a2
   1eb50:	00080313          	mv	t1,a6
   1eb54:	00000693          	li	a3,0
   1eb58:	0007a703          	lw	a4,0(a5)
   1eb5c:	00430313          	addi	t1,t1,4
   1eb60:	00478793          	addi	a5,a5,4
   1eb64:	00c71733          	sll	a4,a4,a2
   1eb68:	00d76733          	or	a4,a4,a3
   1eb6c:	fee32e23          	sw	a4,-4(t1)
   1eb70:	ffc7a683          	lw	a3,-4(a5)
   1eb74:	00b6d6b3          	srl	a3,a3,a1
   1eb78:	ff17e0e3          	bltu	a5,a7,1eb58 <__lshift+0xb4>
   1eb7c:	01540793          	addi	a5,s0,21
   1eb80:	00000713          	li	a4,0
   1eb84:	00f8e863          	bltu	a7,a5,1eb94 <__lshift+0xf0>
   1eb88:	408888b3          	sub	a7,a7,s0
   1eb8c:	feb88893          	addi	a7,a7,-21
   1eb90:	ffc8f713          	andi	a4,a7,-4
   1eb94:	00e80833          	add	a6,a6,a4
   1eb98:	00d82223          	sw	a3,4(a6)
   1eb9c:	00069463          	bnez	a3,1eba4 <__lshift+0x100>
   1eba0:	00098493          	mv	s1,s3
   1eba4:	00442703          	lw	a4,4(s0)
   1eba8:	04492783          	lw	a5,68(s2)
   1ebac:	00952823          	sw	s1,16(a0)
   1ebb0:	00271713          	slli	a4,a4,0x2
   1ebb4:	00e787b3          	add	a5,a5,a4
   1ebb8:	0007a703          	lw	a4,0(a5)
   1ebbc:	01c12083          	lw	ra,28(sp)
   1ebc0:	01412483          	lw	s1,20(sp)
   1ebc4:	00e42023          	sw	a4,0(s0)
   1ebc8:	0087a023          	sw	s0,0(a5)
   1ebcc:	01812403          	lw	s0,24(sp)
   1ebd0:	01012903          	lw	s2,16(sp)
   1ebd4:	00c12983          	lw	s3,12(sp)
   1ebd8:	00812a03          	lw	s4,8(sp)
   1ebdc:	00412a83          	lw	s5,4(sp)
   1ebe0:	02010113          	addi	sp,sp,32
   1ebe4:	00008067          	ret
   1ebe8:	0007a703          	lw	a4,0(a5)
   1ebec:	00478793          	addi	a5,a5,4
   1ebf0:	00480813          	addi	a6,a6,4
   1ebf4:	fee82e23          	sw	a4,-4(a6)
   1ebf8:	fb17f4e3          	bgeu	a5,a7,1eba0 <__lshift+0xfc>
   1ebfc:	0007a703          	lw	a4,0(a5)
   1ec00:	00478793          	addi	a5,a5,4
   1ec04:	00480813          	addi	a6,a6,4
   1ec08:	fee82e23          	sw	a4,-4(a6)
   1ec0c:	fd17eee3          	bltu	a5,a7,1ebe8 <__lshift+0x144>
   1ec10:	f91ff06f          	j	1eba0 <__lshift+0xfc>
   1ec14:	000216b7          	lui	a3,0x21
   1ec18:	00021537          	lui	a0,0x21
   1ec1c:	22868693          	addi	a3,a3,552 # 21228 <_getpid_r+0xf0>
   1ec20:	2bc50513          	addi	a0,a0,700 # 212bc <_getpid_r+0x184>
   1ec24:	00000613          	li	a2,0
   1ec28:	1de00593          	li	a1,478
   1ec2c:	3bd000ef          	jal	1f7e8 <__assert_func>

0001ec30 <__mcmp>:
   1ec30:	01052703          	lw	a4,16(a0)
   1ec34:	0105a783          	lw	a5,16(a1)
   1ec38:	00050813          	mv	a6,a0
   1ec3c:	40f70533          	sub	a0,a4,a5
   1ec40:	04f71263          	bne	a4,a5,1ec84 <__mcmp+0x54>
   1ec44:	00279793          	slli	a5,a5,0x2
   1ec48:	01480813          	addi	a6,a6,20
   1ec4c:	01458593          	addi	a1,a1,20
   1ec50:	00f58733          	add	a4,a1,a5
   1ec54:	00f807b3          	add	a5,a6,a5
   1ec58:	0080006f          	j	1ec60 <__mcmp+0x30>
   1ec5c:	02f87463          	bgeu	a6,a5,1ec84 <__mcmp+0x54>
   1ec60:	ffc7a603          	lw	a2,-4(a5)
   1ec64:	ffc72683          	lw	a3,-4(a4)
   1ec68:	ffc78793          	addi	a5,a5,-4
   1ec6c:	ffc70713          	addi	a4,a4,-4
   1ec70:	fed606e3          	beq	a2,a3,1ec5c <__mcmp+0x2c>
   1ec74:	00100513          	li	a0,1
   1ec78:	00d67663          	bgeu	a2,a3,1ec84 <__mcmp+0x54>
   1ec7c:	fff00513          	li	a0,-1
   1ec80:	00008067          	ret
   1ec84:	00008067          	ret

0001ec88 <__mdiff>:
   1ec88:	0105a703          	lw	a4,16(a1)
   1ec8c:	01062783          	lw	a5,16(a2)
   1ec90:	ff010113          	addi	sp,sp,-16
   1ec94:	00812423          	sw	s0,8(sp)
   1ec98:	00912223          	sw	s1,4(sp)
   1ec9c:	01212023          	sw	s2,0(sp)
   1eca0:	00112623          	sw	ra,12(sp)
   1eca4:	00058413          	mv	s0,a1
   1eca8:	00060493          	mv	s1,a2
   1ecac:	40f70933          	sub	s2,a4,a5
   1ecb0:	04f71063          	bne	a4,a5,1ecf0 <__mdiff+0x68>
   1ecb4:	00279693          	slli	a3,a5,0x2
   1ecb8:	01458613          	addi	a2,a1,20
   1ecbc:	01448713          	addi	a4,s1,20
   1ecc0:	00d607b3          	add	a5,a2,a3
   1ecc4:	00d70733          	add	a4,a4,a3
   1ecc8:	0080006f          	j	1ecd0 <__mdiff+0x48>
   1eccc:	18f67463          	bgeu	a2,a5,1ee54 <__mdiff+0x1cc>
   1ecd0:	ffc7a803          	lw	a6,-4(a5)
   1ecd4:	ffc72683          	lw	a3,-4(a4)
   1ecd8:	ffc78793          	addi	a5,a5,-4
   1ecdc:	ffc70713          	addi	a4,a4,-4
   1ece0:	fed806e3          	beq	a6,a3,1eccc <__mdiff+0x44>
   1ece4:	1ad87063          	bgeu	a6,a3,1ee84 <__mdiff+0x1fc>
   1ece8:	00100913          	li	s2,1
   1ecec:	0140006f          	j	1ed00 <__mdiff+0x78>
   1ecf0:	fe094ce3          	bltz	s2,1ece8 <__mdiff+0x60>
   1ecf4:	00000913          	li	s2,0
   1ecf8:	00058493          	mv	s1,a1
   1ecfc:	00060413          	mv	s0,a2
   1ed00:	0044a583          	lw	a1,4(s1)
   1ed04:	cecff0ef          	jal	1e1f0 <_Balloc>
   1ed08:	1a050463          	beqz	a0,1eeb0 <__mdiff+0x228>
   1ed0c:	0104a803          	lw	a6,16(s1)
   1ed10:	01042f03          	lw	t5,16(s0)
   1ed14:	01448493          	addi	s1,s1,20
   1ed18:	00281713          	slli	a4,a6,0x2
   1ed1c:	002f1f13          	slli	t5,t5,0x2
   1ed20:	01440613          	addi	a2,s0,20
   1ed24:	01450f93          	addi	t6,a0,20
   1ed28:	01252623          	sw	s2,12(a0)
   1ed2c:	00e48333          	add	t1,s1,a4
   1ed30:	01e60f33          	add	t5,a2,t5
   1ed34:	00048e93          	mv	t4,s1
   1ed38:	000f8e13          	mv	t3,t6
   1ed3c:	00000893          	li	a7,0
   1ed40:	000ea703          	lw	a4,0(t4)
   1ed44:	00062683          	lw	a3,0(a2)
   1ed48:	004e0e13          	addi	t3,t3,4
   1ed4c:	01071793          	slli	a5,a4,0x10
   1ed50:	01069593          	slli	a1,a3,0x10
   1ed54:	0107d793          	srli	a5,a5,0x10
   1ed58:	0105d593          	srli	a1,a1,0x10
   1ed5c:	40b787b3          	sub	a5,a5,a1
   1ed60:	011787b3          	add	a5,a5,a7
   1ed64:	0106d693          	srli	a3,a3,0x10
   1ed68:	01075713          	srli	a4,a4,0x10
   1ed6c:	40d70733          	sub	a4,a4,a3
   1ed70:	4107d693          	srai	a3,a5,0x10
   1ed74:	00d70733          	add	a4,a4,a3
   1ed78:	01079793          	slli	a5,a5,0x10
   1ed7c:	0107d793          	srli	a5,a5,0x10
   1ed80:	01071693          	slli	a3,a4,0x10
   1ed84:	00d7e7b3          	or	a5,a5,a3
   1ed88:	00460613          	addi	a2,a2,4
   1ed8c:	fefe2e23          	sw	a5,-4(t3)
   1ed90:	004e8e93          	addi	t4,t4,4
   1ed94:	41075893          	srai	a7,a4,0x10
   1ed98:	fbe664e3          	bltu	a2,t5,1ed40 <__mdiff+0xb8>
   1ed9c:	01540693          	addi	a3,s0,21
   1eda0:	00000713          	li	a4,0
   1eda4:	00df6863          	bltu	t5,a3,1edb4 <__mdiff+0x12c>
   1eda8:	408f0f33          	sub	t5,t5,s0
   1edac:	febf0f13          	addi	t5,t5,-21
   1edb0:	ffcf7713          	andi	a4,t5,-4
   1edb4:	00e48eb3          	add	t4,s1,a4
   1edb8:	004e8e93          	addi	t4,t4,4
   1edbc:	01f70733          	add	a4,a4,t6
   1edc0:	409f8e33          	sub	t3,t6,s1
   1edc4:	000e8613          	mv	a2,t4
   1edc8:	00470f13          	addi	t5,a4,4
   1edcc:	046efc63          	bgeu	t4,t1,1ee24 <__mdiff+0x19c>
   1edd0:	00062683          	lw	a3,0(a2)
   1edd4:	01c605b3          	add	a1,a2,t3
   1edd8:	00460613          	addi	a2,a2,4
   1eddc:	01069713          	slli	a4,a3,0x10
   1ede0:	01075713          	srli	a4,a4,0x10
   1ede4:	01170733          	add	a4,a4,a7
   1ede8:	011687b3          	add	a5,a3,a7
   1edec:	41075713          	srai	a4,a4,0x10
   1edf0:	0106d693          	srli	a3,a3,0x10
   1edf4:	00d70733          	add	a4,a4,a3
   1edf8:	01079793          	slli	a5,a5,0x10
   1edfc:	0107d793          	srli	a5,a5,0x10
   1ee00:	01071693          	slli	a3,a4,0x10
   1ee04:	00d7e7b3          	or	a5,a5,a3
   1ee08:	00f5a023          	sw	a5,0(a1)
   1ee0c:	41075893          	srai	a7,a4,0x10
   1ee10:	fc6660e3          	bltu	a2,t1,1edd0 <__mdiff+0x148>
   1ee14:	fff30713          	addi	a4,t1,-1
   1ee18:	41d70733          	sub	a4,a4,t4
   1ee1c:	ffc77713          	andi	a4,a4,-4
   1ee20:	01e70733          	add	a4,a4,t5
   1ee24:	00079a63          	bnez	a5,1ee38 <__mdiff+0x1b0>
   1ee28:	ffc72783          	lw	a5,-4(a4)
   1ee2c:	ffc70713          	addi	a4,a4,-4
   1ee30:	fff80813          	addi	a6,a6,-1
   1ee34:	fe078ae3          	beqz	a5,1ee28 <__mdiff+0x1a0>
   1ee38:	00c12083          	lw	ra,12(sp)
   1ee3c:	00812403          	lw	s0,8(sp)
   1ee40:	01052823          	sw	a6,16(a0)
   1ee44:	00412483          	lw	s1,4(sp)
   1ee48:	00012903          	lw	s2,0(sp)
   1ee4c:	01010113          	addi	sp,sp,16
   1ee50:	00008067          	ret
   1ee54:	00000593          	li	a1,0
   1ee58:	b98ff0ef          	jal	1e1f0 <_Balloc>
   1ee5c:	02050c63          	beqz	a0,1ee94 <__mdiff+0x20c>
   1ee60:	00c12083          	lw	ra,12(sp)
   1ee64:	00812403          	lw	s0,8(sp)
   1ee68:	00100793          	li	a5,1
   1ee6c:	00052a23          	sw	zero,20(a0)
   1ee70:	00f52823          	sw	a5,16(a0)
   1ee74:	00412483          	lw	s1,4(sp)
   1ee78:	00012903          	lw	s2,0(sp)
   1ee7c:	01010113          	addi	sp,sp,16
   1ee80:	00008067          	ret
   1ee84:	00048793          	mv	a5,s1
   1ee88:	00040493          	mv	s1,s0
   1ee8c:	00078413          	mv	s0,a5
   1ee90:	e71ff06f          	j	1ed00 <__mdiff+0x78>
   1ee94:	000216b7          	lui	a3,0x21
   1ee98:	00021537          	lui	a0,0x21
   1ee9c:	22868693          	addi	a3,a3,552 # 21228 <_getpid_r+0xf0>
   1eea0:	2bc50513          	addi	a0,a0,700 # 212bc <_getpid_r+0x184>
   1eea4:	00000613          	li	a2,0
   1eea8:	23700593          	li	a1,567
   1eeac:	13d000ef          	jal	1f7e8 <__assert_func>
   1eeb0:	000216b7          	lui	a3,0x21
   1eeb4:	00021537          	lui	a0,0x21
   1eeb8:	22868693          	addi	a3,a3,552 # 21228 <_getpid_r+0xf0>
   1eebc:	2bc50513          	addi	a0,a0,700 # 212bc <_getpid_r+0x184>
   1eec0:	00000613          	li	a2,0
   1eec4:	24500593          	li	a1,581
   1eec8:	121000ef          	jal	1f7e8 <__assert_func>

0001eecc <__b2d>:
   1eecc:	fe010113          	addi	sp,sp,-32
   1eed0:	00912a23          	sw	s1,20(sp)
   1eed4:	01052483          	lw	s1,16(a0)
   1eed8:	00812c23          	sw	s0,24(sp)
   1eedc:	01450413          	addi	s0,a0,20
   1eee0:	00249493          	slli	s1,s1,0x2
   1eee4:	009404b3          	add	s1,s0,s1
   1eee8:	01412423          	sw	s4,8(sp)
   1eeec:	ffc4aa03          	lw	s4,-4(s1)
   1eef0:	01512223          	sw	s5,4(sp)
   1eef4:	01612023          	sw	s6,0(sp)
   1eef8:	000a0513          	mv	a0,s4
   1eefc:	00058a93          	mv	s5,a1
   1ef00:	00112e23          	sw	ra,28(sp)
   1ef04:	01212823          	sw	s2,16(sp)
   1ef08:	01312623          	sw	s3,12(sp)
   1ef0c:	d24ff0ef          	jal	1e430 <__hi0bits>
   1ef10:	02000713          	li	a4,32
   1ef14:	40a707b3          	sub	a5,a4,a0
   1ef18:	00faa023          	sw	a5,0(s5)
   1ef1c:	00a00793          	li	a5,10
   1ef20:	ffc48b13          	addi	s6,s1,-4
   1ef24:	0aa7d063          	bge	a5,a0,1efc4 <__b2d+0xf8>
   1ef28:	ff550613          	addi	a2,a0,-11
   1ef2c:	05647063          	bgeu	s0,s6,1ef6c <__b2d+0xa0>
   1ef30:	ff84a783          	lw	a5,-8(s1)
   1ef34:	04060c63          	beqz	a2,1ef8c <__b2d+0xc0>
   1ef38:	40c706b3          	sub	a3,a4,a2
   1ef3c:	00d7d733          	srl	a4,a5,a3
   1ef40:	00ca1a33          	sll	s4,s4,a2
   1ef44:	00ea6a33          	or	s4,s4,a4
   1ef48:	ff848593          	addi	a1,s1,-8
   1ef4c:	3ff00737          	lui	a4,0x3ff00
   1ef50:	00c797b3          	sll	a5,a5,a2
   1ef54:	00ea6733          	or	a4,s4,a4
   1ef58:	02b47e63          	bgeu	s0,a1,1ef94 <__b2d+0xc8>
   1ef5c:	ff44a603          	lw	a2,-12(s1)
   1ef60:	00d656b3          	srl	a3,a2,a3
   1ef64:	00d7e7b3          	or	a5,a5,a3
   1ef68:	02c0006f          	j	1ef94 <__b2d+0xc8>
   1ef6c:	00b00793          	li	a5,11
   1ef70:	00f50c63          	beq	a0,a5,1ef88 <__b2d+0xbc>
   1ef74:	00ca1a33          	sll	s4,s4,a2
   1ef78:	3ff00737          	lui	a4,0x3ff00
   1ef7c:	00ea6733          	or	a4,s4,a4
   1ef80:	00000793          	li	a5,0
   1ef84:	0100006f          	j	1ef94 <__b2d+0xc8>
   1ef88:	00000793          	li	a5,0
   1ef8c:	3ff00737          	lui	a4,0x3ff00
   1ef90:	00ea6733          	or	a4,s4,a4
   1ef94:	01c12083          	lw	ra,28(sp)
   1ef98:	01812403          	lw	s0,24(sp)
   1ef9c:	01412483          	lw	s1,20(sp)
   1efa0:	01012903          	lw	s2,16(sp)
   1efa4:	00c12983          	lw	s3,12(sp)
   1efa8:	00812a03          	lw	s4,8(sp)
   1efac:	00412a83          	lw	s5,4(sp)
   1efb0:	00012b03          	lw	s6,0(sp)
   1efb4:	00078513          	mv	a0,a5
   1efb8:	00070593          	mv	a1,a4
   1efbc:	02010113          	addi	sp,sp,32
   1efc0:	00008067          	ret
   1efc4:	00b00693          	li	a3,11
   1efc8:	40a686b3          	sub	a3,a3,a0
   1efcc:	3ff007b7          	lui	a5,0x3ff00
   1efd0:	00da5733          	srl	a4,s4,a3
   1efd4:	00f76733          	or	a4,a4,a5
   1efd8:	00000793          	li	a5,0
   1efdc:	01647663          	bgeu	s0,s6,1efe8 <__b2d+0x11c>
   1efe0:	ff84a783          	lw	a5,-8(s1)
   1efe4:	00d7d7b3          	srl	a5,a5,a3
   1efe8:	01550513          	addi	a0,a0,21
   1efec:	00aa1a33          	sll	s4,s4,a0
   1eff0:	00fa67b3          	or	a5,s4,a5
   1eff4:	fa1ff06f          	j	1ef94 <__b2d+0xc8>

0001eff8 <_realloc_r>:
   1eff8:	fd010113          	addi	sp,sp,-48
   1effc:	02912223          	sw	s1,36(sp)
   1f000:	02112623          	sw	ra,44(sp)
   1f004:	00060493          	mv	s1,a2
   1f008:	1e058863          	beqz	a1,1f1f8 <_realloc_r+0x200>
   1f00c:	02812423          	sw	s0,40(sp)
   1f010:	03212023          	sw	s2,32(sp)
   1f014:	00058413          	mv	s0,a1
   1f018:	01312e23          	sw	s3,28(sp)
   1f01c:	01512a23          	sw	s5,20(sp)
   1f020:	01412c23          	sw	s4,24(sp)
   1f024:	00050913          	mv	s2,a0
   1f028:	dccf80ef          	jal	175f4 <__malloc_lock>
   1f02c:	ffc42703          	lw	a4,-4(s0)
   1f030:	00b48793          	addi	a5,s1,11
   1f034:	01600693          	li	a3,22
   1f038:	ffc77993          	andi	s3,a4,-4
   1f03c:	ff840a93          	addi	s5,s0,-8
   1f040:	10f6f263          	bgeu	a3,a5,1f144 <_realloc_r+0x14c>
   1f044:	ff87fa13          	andi	s4,a5,-8
   1f048:	1007c263          	bltz	a5,1f14c <_realloc_r+0x154>
   1f04c:	109a6063          	bltu	s4,s1,1f14c <_realloc_r+0x154>
   1f050:	1349d263          	bge	s3,s4,1f174 <_realloc_r+0x17c>
   1f054:	000227b7          	lui	a5,0x22
   1f058:	01812423          	sw	s8,8(sp)
   1f05c:	14078c13          	addi	s8,a5,320 # 22140 <__malloc_av_>
   1f060:	008c2603          	lw	a2,8(s8)
   1f064:	013a86b3          	add	a3,s5,s3
   1f068:	0046a783          	lw	a5,4(a3)
   1f06c:	1cd60863          	beq	a2,a3,1f23c <_realloc_r+0x244>
   1f070:	ffe7f613          	andi	a2,a5,-2
   1f074:	00c68633          	add	a2,a3,a2
   1f078:	00462603          	lw	a2,4(a2)
   1f07c:	00167613          	andi	a2,a2,1
   1f080:	14061a63          	bnez	a2,1f1d4 <_realloc_r+0x1dc>
   1f084:	ffc7f793          	andi	a5,a5,-4
   1f088:	00f98633          	add	a2,s3,a5
   1f08c:	0d465863          	bge	a2,s4,1f15c <_realloc_r+0x164>
   1f090:	00177713          	andi	a4,a4,1
   1f094:	02071c63          	bnez	a4,1f0cc <_realloc_r+0xd4>
   1f098:	01712623          	sw	s7,12(sp)
   1f09c:	ff842b83          	lw	s7,-8(s0)
   1f0a0:	01612823          	sw	s6,16(sp)
   1f0a4:	417a8bb3          	sub	s7,s5,s7
   1f0a8:	004ba703          	lw	a4,4(s7)
   1f0ac:	ffc77713          	andi	a4,a4,-4
   1f0b0:	00e787b3          	add	a5,a5,a4
   1f0b4:	01378b33          	add	s6,a5,s3
   1f0b8:	334b5263          	bge	s6,s4,1f3dc <_realloc_r+0x3e4>
   1f0bc:	00e98b33          	add	s6,s3,a4
   1f0c0:	294b5863          	bge	s6,s4,1f350 <_realloc_r+0x358>
   1f0c4:	01012b03          	lw	s6,16(sp)
   1f0c8:	00c12b83          	lw	s7,12(sp)
   1f0cc:	00048593          	mv	a1,s1
   1f0d0:	00090513          	mv	a0,s2
   1f0d4:	d19f70ef          	jal	16dec <_malloc_r>
   1f0d8:	00050493          	mv	s1,a0
   1f0dc:	40050063          	beqz	a0,1f4dc <_realloc_r+0x4e4>
   1f0e0:	ffc42783          	lw	a5,-4(s0)
   1f0e4:	ff850713          	addi	a4,a0,-8
   1f0e8:	ffe7f793          	andi	a5,a5,-2
   1f0ec:	00fa87b3          	add	a5,s5,a5
   1f0f0:	24e78663          	beq	a5,a4,1f33c <_realloc_r+0x344>
   1f0f4:	ffc98613          	addi	a2,s3,-4
   1f0f8:	02400793          	li	a5,36
   1f0fc:	2cc7ea63          	bltu	a5,a2,1f3d0 <_realloc_r+0x3d8>
   1f100:	01300713          	li	a4,19
   1f104:	20c76a63          	bltu	a4,a2,1f318 <_realloc_r+0x320>
   1f108:	00050793          	mv	a5,a0
   1f10c:	00040713          	mv	a4,s0
   1f110:	00072683          	lw	a3,0(a4) # 3ff00000 <__global_pointer$+0x3fedd148>
   1f114:	00d7a023          	sw	a3,0(a5)
   1f118:	00472683          	lw	a3,4(a4)
   1f11c:	00d7a223          	sw	a3,4(a5)
   1f120:	00872703          	lw	a4,8(a4)
   1f124:	00e7a423          	sw	a4,8(a5)
   1f128:	00040593          	mv	a1,s0
   1f12c:	00090513          	mv	a0,s2
   1f130:	9cdf70ef          	jal	16afc <_free_r>
   1f134:	00090513          	mv	a0,s2
   1f138:	cc0f80ef          	jal	175f8 <__malloc_unlock>
   1f13c:	00812c03          	lw	s8,8(sp)
   1f140:	06c0006f          	j	1f1ac <_realloc_r+0x1b4>
   1f144:	01000a13          	li	s4,16
   1f148:	f09a74e3          	bgeu	s4,s1,1f050 <_realloc_r+0x58>
   1f14c:	00c00793          	li	a5,12
   1f150:	00f92023          	sw	a5,0(s2)
   1f154:	00000493          	li	s1,0
   1f158:	0540006f          	j	1f1ac <_realloc_r+0x1b4>
   1f15c:	00c6a783          	lw	a5,12(a3)
   1f160:	0086a703          	lw	a4,8(a3)
   1f164:	00812c03          	lw	s8,8(sp)
   1f168:	00060993          	mv	s3,a2
   1f16c:	00f72623          	sw	a5,12(a4)
   1f170:	00e7a423          	sw	a4,8(a5)
   1f174:	004aa783          	lw	a5,4(s5)
   1f178:	414986b3          	sub	a3,s3,s4
   1f17c:	00f00613          	li	a2,15
   1f180:	0017f793          	andi	a5,a5,1
   1f184:	013a8733          	add	a4,s5,s3
   1f188:	08d66263          	bltu	a2,a3,1f20c <_realloc_r+0x214>
   1f18c:	0137e7b3          	or	a5,a5,s3
   1f190:	00faa223          	sw	a5,4(s5)
   1f194:	00472783          	lw	a5,4(a4)
   1f198:	0017e793          	ori	a5,a5,1
   1f19c:	00f72223          	sw	a5,4(a4)
   1f1a0:	00090513          	mv	a0,s2
   1f1a4:	c54f80ef          	jal	175f8 <__malloc_unlock>
   1f1a8:	00040493          	mv	s1,s0
   1f1ac:	02812403          	lw	s0,40(sp)
   1f1b0:	02c12083          	lw	ra,44(sp)
   1f1b4:	02012903          	lw	s2,32(sp)
   1f1b8:	01c12983          	lw	s3,28(sp)
   1f1bc:	01812a03          	lw	s4,24(sp)
   1f1c0:	01412a83          	lw	s5,20(sp)
   1f1c4:	00048513          	mv	a0,s1
   1f1c8:	02412483          	lw	s1,36(sp)
   1f1cc:	03010113          	addi	sp,sp,48
   1f1d0:	00008067          	ret
   1f1d4:	00177713          	andi	a4,a4,1
   1f1d8:	ee071ae3          	bnez	a4,1f0cc <_realloc_r+0xd4>
   1f1dc:	01712623          	sw	s7,12(sp)
   1f1e0:	ff842b83          	lw	s7,-8(s0)
   1f1e4:	01612823          	sw	s6,16(sp)
   1f1e8:	417a8bb3          	sub	s7,s5,s7
   1f1ec:	004ba703          	lw	a4,4(s7)
   1f1f0:	ffc77713          	andi	a4,a4,-4
   1f1f4:	ec9ff06f          	j	1f0bc <_realloc_r+0xc4>
   1f1f8:	02c12083          	lw	ra,44(sp)
   1f1fc:	02412483          	lw	s1,36(sp)
   1f200:	00060593          	mv	a1,a2
   1f204:	03010113          	addi	sp,sp,48
   1f208:	be5f706f          	j	16dec <_malloc_r>
   1f20c:	0147e7b3          	or	a5,a5,s4
   1f210:	00faa223          	sw	a5,4(s5)
   1f214:	014a85b3          	add	a1,s5,s4
   1f218:	0016e693          	ori	a3,a3,1
   1f21c:	00d5a223          	sw	a3,4(a1)
   1f220:	00472783          	lw	a5,4(a4)
   1f224:	00858593          	addi	a1,a1,8
   1f228:	00090513          	mv	a0,s2
   1f22c:	0017e793          	ori	a5,a5,1
   1f230:	00f72223          	sw	a5,4(a4)
   1f234:	8c9f70ef          	jal	16afc <_free_r>
   1f238:	f69ff06f          	j	1f1a0 <_realloc_r+0x1a8>
   1f23c:	ffc7f793          	andi	a5,a5,-4
   1f240:	013786b3          	add	a3,a5,s3
   1f244:	010a0613          	addi	a2,s4,16
   1f248:	22c6de63          	bge	a3,a2,1f484 <_realloc_r+0x48c>
   1f24c:	00177713          	andi	a4,a4,1
   1f250:	e6071ee3          	bnez	a4,1f0cc <_realloc_r+0xd4>
   1f254:	01712623          	sw	s7,12(sp)
   1f258:	ff842b83          	lw	s7,-8(s0)
   1f25c:	01612823          	sw	s6,16(sp)
   1f260:	417a8bb3          	sub	s7,s5,s7
   1f264:	004ba703          	lw	a4,4(s7)
   1f268:	ffc77713          	andi	a4,a4,-4
   1f26c:	00e787b3          	add	a5,a5,a4
   1f270:	01378b33          	add	s6,a5,s3
   1f274:	e4cb44e3          	blt	s6,a2,1f0bc <_realloc_r+0xc4>
   1f278:	00cba783          	lw	a5,12(s7)
   1f27c:	008ba703          	lw	a4,8(s7)
   1f280:	ffc98613          	addi	a2,s3,-4
   1f284:	02400693          	li	a3,36
   1f288:	00f72623          	sw	a5,12(a4)
   1f28c:	00e7a423          	sw	a4,8(a5)
   1f290:	008b8493          	addi	s1,s7,8
   1f294:	28c6ee63          	bltu	a3,a2,1f530 <_realloc_r+0x538>
   1f298:	01300713          	li	a4,19
   1f29c:	00048793          	mv	a5,s1
   1f2a0:	02c77263          	bgeu	a4,a2,1f2c4 <_realloc_r+0x2cc>
   1f2a4:	00042703          	lw	a4,0(s0)
   1f2a8:	01b00793          	li	a5,27
   1f2ac:	00eba423          	sw	a4,8(s7)
   1f2b0:	00442703          	lw	a4,4(s0)
   1f2b4:	00eba623          	sw	a4,12(s7)
   1f2b8:	2ac7e263          	bltu	a5,a2,1f55c <_realloc_r+0x564>
   1f2bc:	00840413          	addi	s0,s0,8
   1f2c0:	010b8793          	addi	a5,s7,16
   1f2c4:	00042703          	lw	a4,0(s0)
   1f2c8:	00e7a023          	sw	a4,0(a5)
   1f2cc:	00442703          	lw	a4,4(s0)
   1f2d0:	00e7a223          	sw	a4,4(a5)
   1f2d4:	00842703          	lw	a4,8(s0)
   1f2d8:	00e7a423          	sw	a4,8(a5)
   1f2dc:	014b87b3          	add	a5,s7,s4
   1f2e0:	414b0733          	sub	a4,s6,s4
   1f2e4:	00fc2423          	sw	a5,8(s8)
   1f2e8:	00176713          	ori	a4,a4,1
   1f2ec:	00e7a223          	sw	a4,4(a5)
   1f2f0:	004ba783          	lw	a5,4(s7)
   1f2f4:	00090513          	mv	a0,s2
   1f2f8:	0017f793          	andi	a5,a5,1
   1f2fc:	0147e7b3          	or	a5,a5,s4
   1f300:	00fba223          	sw	a5,4(s7)
   1f304:	af4f80ef          	jal	175f8 <__malloc_unlock>
   1f308:	01012b03          	lw	s6,16(sp)
   1f30c:	00c12b83          	lw	s7,12(sp)
   1f310:	00812c03          	lw	s8,8(sp)
   1f314:	e99ff06f          	j	1f1ac <_realloc_r+0x1b4>
   1f318:	00042683          	lw	a3,0(s0)
   1f31c:	01b00713          	li	a4,27
   1f320:	00d52023          	sw	a3,0(a0)
   1f324:	00442683          	lw	a3,4(s0)
   1f328:	00d52223          	sw	a3,4(a0)
   1f32c:	12c76c63          	bltu	a4,a2,1f464 <_realloc_r+0x46c>
   1f330:	00840713          	addi	a4,s0,8
   1f334:	00850793          	addi	a5,a0,8
   1f338:	dd9ff06f          	j	1f110 <_realloc_r+0x118>
   1f33c:	ffc52783          	lw	a5,-4(a0)
   1f340:	00812c03          	lw	s8,8(sp)
   1f344:	ffc7f793          	andi	a5,a5,-4
   1f348:	00f989b3          	add	s3,s3,a5
   1f34c:	e29ff06f          	j	1f174 <_realloc_r+0x17c>
   1f350:	00cba783          	lw	a5,12(s7)
   1f354:	008ba683          	lw	a3,8(s7)
   1f358:	ffc98613          	addi	a2,s3,-4
   1f35c:	02400593          	li	a1,36
   1f360:	00f6a623          	sw	a5,12(a3)
   1f364:	00d7a423          	sw	a3,8(a5)
   1f368:	008b8493          	addi	s1,s7,8
   1f36c:	0ec5e463          	bltu	a1,a2,1f454 <_realloc_r+0x45c>
   1f370:	01300693          	li	a3,19
   1f374:	00048793          	mv	a5,s1
   1f378:	02c6f263          	bgeu	a3,a2,1f39c <_realloc_r+0x3a4>
   1f37c:	00042703          	lw	a4,0(s0)
   1f380:	01b00793          	li	a5,27
   1f384:	00eba423          	sw	a4,8(s7)
   1f388:	00442703          	lw	a4,4(s0)
   1f38c:	00eba623          	sw	a4,12(s7)
   1f390:	12c7e663          	bltu	a5,a2,1f4bc <_realloc_r+0x4c4>
   1f394:	00840413          	addi	s0,s0,8
   1f398:	010b8793          	addi	a5,s7,16
   1f39c:	00042683          	lw	a3,0(s0)
   1f3a0:	00d7a023          	sw	a3,0(a5)
   1f3a4:	00442683          	lw	a3,4(s0)
   1f3a8:	00d7a223          	sw	a3,4(a5)
   1f3ac:	00842683          	lw	a3,8(s0)
   1f3b0:	00d7a423          	sw	a3,8(a5)
   1f3b4:	000b0993          	mv	s3,s6
   1f3b8:	000b8a93          	mv	s5,s7
   1f3bc:	01012b03          	lw	s6,16(sp)
   1f3c0:	00c12b83          	lw	s7,12(sp)
   1f3c4:	00812c03          	lw	s8,8(sp)
   1f3c8:	00048413          	mv	s0,s1
   1f3cc:	da9ff06f          	j	1f174 <_realloc_r+0x17c>
   1f3d0:	00040593          	mv	a1,s0
   1f3d4:	a10fc0ef          	jal	1b5e4 <memmove>
   1f3d8:	d51ff06f          	j	1f128 <_realloc_r+0x130>
   1f3dc:	00c6a783          	lw	a5,12(a3)
   1f3e0:	0086a703          	lw	a4,8(a3)
   1f3e4:	ffc98613          	addi	a2,s3,-4
   1f3e8:	02400693          	li	a3,36
   1f3ec:	00f72623          	sw	a5,12(a4)
   1f3f0:	00e7a423          	sw	a4,8(a5)
   1f3f4:	008ba703          	lw	a4,8(s7)
   1f3f8:	00cba783          	lw	a5,12(s7)
   1f3fc:	008b8493          	addi	s1,s7,8
   1f400:	00f72623          	sw	a5,12(a4)
   1f404:	00e7a423          	sw	a4,8(a5)
   1f408:	04c6e663          	bltu	a3,a2,1f454 <_realloc_r+0x45c>
   1f40c:	01300713          	li	a4,19
   1f410:	00048793          	mv	a5,s1
   1f414:	02c77263          	bgeu	a4,a2,1f438 <_realloc_r+0x440>
   1f418:	00042703          	lw	a4,0(s0)
   1f41c:	01b00793          	li	a5,27
   1f420:	00eba423          	sw	a4,8(s7)
   1f424:	00442703          	lw	a4,4(s0)
   1f428:	00eba623          	sw	a4,12(s7)
   1f42c:	0ec7e063          	bltu	a5,a2,1f50c <_realloc_r+0x514>
   1f430:	00840413          	addi	s0,s0,8
   1f434:	010b8793          	addi	a5,s7,16
   1f438:	00042703          	lw	a4,0(s0)
   1f43c:	00e7a023          	sw	a4,0(a5)
   1f440:	00442703          	lw	a4,4(s0)
   1f444:	00e7a223          	sw	a4,4(a5)
   1f448:	00842703          	lw	a4,8(s0)
   1f44c:	00e7a423          	sw	a4,8(a5)
   1f450:	f65ff06f          	j	1f3b4 <_realloc_r+0x3bc>
   1f454:	00040593          	mv	a1,s0
   1f458:	00048513          	mv	a0,s1
   1f45c:	988fc0ef          	jal	1b5e4 <memmove>
   1f460:	f55ff06f          	j	1f3b4 <_realloc_r+0x3bc>
   1f464:	00842703          	lw	a4,8(s0)
   1f468:	00e52423          	sw	a4,8(a0)
   1f46c:	00c42703          	lw	a4,12(s0)
   1f470:	00e52623          	sw	a4,12(a0)
   1f474:	06f60e63          	beq	a2,a5,1f4f0 <_realloc_r+0x4f8>
   1f478:	01040713          	addi	a4,s0,16
   1f47c:	01050793          	addi	a5,a0,16
   1f480:	c91ff06f          	j	1f110 <_realloc_r+0x118>
   1f484:	014a8ab3          	add	s5,s5,s4
   1f488:	414686b3          	sub	a3,a3,s4
   1f48c:	015c2423          	sw	s5,8(s8)
   1f490:	0016e793          	ori	a5,a3,1
   1f494:	00faa223          	sw	a5,4(s5)
   1f498:	ffc42783          	lw	a5,-4(s0)
   1f49c:	00090513          	mv	a0,s2
   1f4a0:	00040493          	mv	s1,s0
   1f4a4:	0017f793          	andi	a5,a5,1
   1f4a8:	0147e7b3          	or	a5,a5,s4
   1f4ac:	fef42e23          	sw	a5,-4(s0)
   1f4b0:	948f80ef          	jal	175f8 <__malloc_unlock>
   1f4b4:	00812c03          	lw	s8,8(sp)
   1f4b8:	cf5ff06f          	j	1f1ac <_realloc_r+0x1b4>
   1f4bc:	00842783          	lw	a5,8(s0)
   1f4c0:	00fba823          	sw	a5,16(s7)
   1f4c4:	00c42783          	lw	a5,12(s0)
   1f4c8:	00fbaa23          	sw	a5,20(s7)
   1f4cc:	06b60a63          	beq	a2,a1,1f540 <_realloc_r+0x548>
   1f4d0:	01040413          	addi	s0,s0,16
   1f4d4:	018b8793          	addi	a5,s7,24
   1f4d8:	ec5ff06f          	j	1f39c <_realloc_r+0x3a4>
   1f4dc:	00090513          	mv	a0,s2
   1f4e0:	918f80ef          	jal	175f8 <__malloc_unlock>
   1f4e4:	00000493          	li	s1,0
   1f4e8:	00812c03          	lw	s8,8(sp)
   1f4ec:	cc1ff06f          	j	1f1ac <_realloc_r+0x1b4>
   1f4f0:	01042683          	lw	a3,16(s0)
   1f4f4:	01840713          	addi	a4,s0,24
   1f4f8:	01850793          	addi	a5,a0,24
   1f4fc:	00d52823          	sw	a3,16(a0)
   1f500:	01442683          	lw	a3,20(s0)
   1f504:	00d52a23          	sw	a3,20(a0)
   1f508:	c09ff06f          	j	1f110 <_realloc_r+0x118>
   1f50c:	00842703          	lw	a4,8(s0)
   1f510:	02400793          	li	a5,36
   1f514:	00eba823          	sw	a4,16(s7)
   1f518:	00c42703          	lw	a4,12(s0)
   1f51c:	00ebaa23          	sw	a4,20(s7)
   1f520:	04f60e63          	beq	a2,a5,1f57c <_realloc_r+0x584>
   1f524:	01040413          	addi	s0,s0,16
   1f528:	018b8793          	addi	a5,s7,24
   1f52c:	f0dff06f          	j	1f438 <_realloc_r+0x440>
   1f530:	00040593          	mv	a1,s0
   1f534:	00048513          	mv	a0,s1
   1f538:	8acfc0ef          	jal	1b5e4 <memmove>
   1f53c:	da1ff06f          	j	1f2dc <_realloc_r+0x2e4>
   1f540:	01042703          	lw	a4,16(s0)
   1f544:	020b8793          	addi	a5,s7,32
   1f548:	01840413          	addi	s0,s0,24
   1f54c:	00ebac23          	sw	a4,24(s7)
   1f550:	ffc42703          	lw	a4,-4(s0)
   1f554:	00ebae23          	sw	a4,28(s7)
   1f558:	e45ff06f          	j	1f39c <_realloc_r+0x3a4>
   1f55c:	00842783          	lw	a5,8(s0)
   1f560:	00fba823          	sw	a5,16(s7)
   1f564:	00c42783          	lw	a5,12(s0)
   1f568:	00fbaa23          	sw	a5,20(s7)
   1f56c:	02d60663          	beq	a2,a3,1f598 <_realloc_r+0x5a0>
   1f570:	01040413          	addi	s0,s0,16
   1f574:	018b8793          	addi	a5,s7,24
   1f578:	d4dff06f          	j	1f2c4 <_realloc_r+0x2cc>
   1f57c:	01042703          	lw	a4,16(s0)
   1f580:	020b8793          	addi	a5,s7,32
   1f584:	01840413          	addi	s0,s0,24
   1f588:	00ebac23          	sw	a4,24(s7)
   1f58c:	ffc42703          	lw	a4,-4(s0)
   1f590:	00ebae23          	sw	a4,28(s7)
   1f594:	ea5ff06f          	j	1f438 <_realloc_r+0x440>
   1f598:	01042703          	lw	a4,16(s0)
   1f59c:	020b8793          	addi	a5,s7,32
   1f5a0:	01840413          	addi	s0,s0,24
   1f5a4:	00ebac23          	sw	a4,24(s7)
   1f5a8:	ffc42703          	lw	a4,-4(s0)
   1f5ac:	00ebae23          	sw	a4,28(s7)
   1f5b0:	d15ff06f          	j	1f2c4 <_realloc_r+0x2cc>

0001f5b4 <__smakebuf_r>:
   1f5b4:	00c59783          	lh	a5,12(a1)
   1f5b8:	f9010113          	addi	sp,sp,-112
   1f5bc:	06812423          	sw	s0,104(sp)
   1f5c0:	06112623          	sw	ra,108(sp)
   1f5c4:	0027f713          	andi	a4,a5,2
   1f5c8:	00058413          	mv	s0,a1
   1f5cc:	02070463          	beqz	a4,1f5f4 <__smakebuf_r+0x40>
   1f5d0:	04358793          	addi	a5,a1,67
   1f5d4:	00100713          	li	a4,1
   1f5d8:	00f5a023          	sw	a5,0(a1)
   1f5dc:	00f5a823          	sw	a5,16(a1)
   1f5e0:	00e5aa23          	sw	a4,20(a1)
   1f5e4:	06c12083          	lw	ra,108(sp)
   1f5e8:	06812403          	lw	s0,104(sp)
   1f5ec:	07010113          	addi	sp,sp,112
   1f5f0:	00008067          	ret
   1f5f4:	00e59583          	lh	a1,14(a1)
   1f5f8:	07212023          	sw	s2,96(sp)
   1f5fc:	06912223          	sw	s1,100(sp)
   1f600:	00050913          	mv	s2,a0
   1f604:	0605ce63          	bltz	a1,1f680 <__smakebuf_r+0xcc>
   1f608:	00810613          	addi	a2,sp,8
   1f60c:	11c000ef          	jal	1f728 <_fstat_r>
   1f610:	06054663          	bltz	a0,1f67c <__smakebuf_r+0xc8>
   1f614:	40000593          	li	a1,1024
   1f618:	00090513          	mv	a0,s2
   1f61c:	00c12483          	lw	s1,12(sp)
   1f620:	fccf70ef          	jal	16dec <_malloc_r>
   1f624:	00c41783          	lh	a5,12(s0)
   1f628:	0a050a63          	beqz	a0,1f6dc <__smakebuf_r+0x128>
   1f62c:	0000f737          	lui	a4,0xf
   1f630:	0807e793          	ori	a5,a5,128
   1f634:	40000693          	li	a3,1024
   1f638:	00e4f4b3          	and	s1,s1,a4
   1f63c:	00f41623          	sh	a5,12(s0)
   1f640:	00a42023          	sw	a0,0(s0)
   1f644:	00a42823          	sw	a0,16(s0)
   1f648:	00d42a23          	sw	a3,20(s0)
   1f64c:	00002737          	lui	a4,0x2
   1f650:	0ce49663          	bne	s1,a4,1f71c <__smakebuf_r+0x168>
   1f654:	00e41583          	lh	a1,14(s0)
   1f658:	00090513          	mv	a0,s2
   1f65c:	130000ef          	jal	1f78c <_isatty_r>
   1f660:	00001737          	lui	a4,0x1
   1f664:	00c41783          	lh	a5,12(s0)
   1f668:	80070713          	addi	a4,a4,-2048 # 800 <_start-0xf800>
   1f66c:	04050863          	beqz	a0,1f6bc <__smakebuf_r+0x108>
   1f670:	ffc7f793          	andi	a5,a5,-4
   1f674:	0017e793          	ori	a5,a5,1
   1f678:	0440006f          	j	1f6bc <__smakebuf_r+0x108>
   1f67c:	00c41783          	lh	a5,12(s0)
   1f680:	0807f493          	andi	s1,a5,128
   1f684:	0014b493          	seqz	s1,s1
   1f688:	409004b3          	neg	s1,s1
   1f68c:	3c04f493          	andi	s1,s1,960
   1f690:	04048493          	addi	s1,s1,64
   1f694:	00090513          	mv	a0,s2
   1f698:	00048593          	mv	a1,s1
   1f69c:	f50f70ef          	jal	16dec <_malloc_r>
   1f6a0:	00c41783          	lh	a5,12(s0)
   1f6a4:	02050c63          	beqz	a0,1f6dc <__smakebuf_r+0x128>
   1f6a8:	0807e793          	ori	a5,a5,128
   1f6ac:	00a42023          	sw	a0,0(s0)
   1f6b0:	00a42823          	sw	a0,16(s0)
   1f6b4:	00942a23          	sw	s1,20(s0)
   1f6b8:	00000713          	li	a4,0
   1f6bc:	00e7e7b3          	or	a5,a5,a4
   1f6c0:	06c12083          	lw	ra,108(sp)
   1f6c4:	00f41623          	sh	a5,12(s0)
   1f6c8:	06812403          	lw	s0,104(sp)
   1f6cc:	06412483          	lw	s1,100(sp)
   1f6d0:	06012903          	lw	s2,96(sp)
   1f6d4:	07010113          	addi	sp,sp,112
   1f6d8:	00008067          	ret
   1f6dc:	2007f713          	andi	a4,a5,512
   1f6e0:	02071863          	bnez	a4,1f710 <__smakebuf_r+0x15c>
   1f6e4:	ffc7f793          	andi	a5,a5,-4
   1f6e8:	04340713          	addi	a4,s0,67
   1f6ec:	0027e793          	ori	a5,a5,2
   1f6f0:	00100693          	li	a3,1
   1f6f4:	06412483          	lw	s1,100(sp)
   1f6f8:	06012903          	lw	s2,96(sp)
   1f6fc:	00f41623          	sh	a5,12(s0)
   1f700:	00e42023          	sw	a4,0(s0)
   1f704:	00e42823          	sw	a4,16(s0)
   1f708:	00d42a23          	sw	a3,20(s0)
   1f70c:	ed9ff06f          	j	1f5e4 <__smakebuf_r+0x30>
   1f710:	06412483          	lw	s1,100(sp)
   1f714:	06012903          	lw	s2,96(sp)
   1f718:	ecdff06f          	j	1f5e4 <__smakebuf_r+0x30>
   1f71c:	00001737          	lui	a4,0x1
   1f720:	80070713          	addi	a4,a4,-2048 # 800 <_start-0xf800>
   1f724:	f99ff06f          	j	1f6bc <__smakebuf_r+0x108>

0001f728 <_fstat_r>:
   1f728:	ff010113          	addi	sp,sp,-16
   1f72c:	00058713          	mv	a4,a1
   1f730:	00812423          	sw	s0,8(sp)
   1f734:	00912223          	sw	s1,4(sp)
   1f738:	00060593          	mv	a1,a2
   1f73c:	00050413          	mv	s0,a0
   1f740:	00070513          	mv	a0,a4
   1f744:	00112623          	sw	ra,12(sp)
   1f748:	8601aa23          	sw	zero,-1932(gp) # 2272c <errno>
   1f74c:	9cdf00ef          	jal	10118 <_fstat>
   1f750:	fff00793          	li	a5,-1
   1f754:	00f50c63          	beq	a0,a5,1f76c <_fstat_r+0x44>
   1f758:	00c12083          	lw	ra,12(sp)
   1f75c:	00812403          	lw	s0,8(sp)
   1f760:	00412483          	lw	s1,4(sp)
   1f764:	01010113          	addi	sp,sp,16
   1f768:	00008067          	ret
   1f76c:	8741a783          	lw	a5,-1932(gp) # 2272c <errno>
   1f770:	fe0784e3          	beqz	a5,1f758 <_fstat_r+0x30>
   1f774:	00c12083          	lw	ra,12(sp)
   1f778:	00f42023          	sw	a5,0(s0)
   1f77c:	00812403          	lw	s0,8(sp)
   1f780:	00412483          	lw	s1,4(sp)
   1f784:	01010113          	addi	sp,sp,16
   1f788:	00008067          	ret

0001f78c <_isatty_r>:
   1f78c:	ff010113          	addi	sp,sp,-16
   1f790:	00812423          	sw	s0,8(sp)
   1f794:	00912223          	sw	s1,4(sp)
   1f798:	00050413          	mv	s0,a0
   1f79c:	00058513          	mv	a0,a1
   1f7a0:	00112623          	sw	ra,12(sp)
   1f7a4:	8601aa23          	sw	zero,-1932(gp) # 2272c <errno>
   1f7a8:	915f00ef          	jal	100bc <_access>
   1f7ac:	fff00793          	li	a5,-1
   1f7b0:	00f50c63          	beq	a0,a5,1f7c8 <_isatty_r+0x3c>
   1f7b4:	00c12083          	lw	ra,12(sp)
   1f7b8:	00812403          	lw	s0,8(sp)
   1f7bc:	00412483          	lw	s1,4(sp)
   1f7c0:	01010113          	addi	sp,sp,16
   1f7c4:	00008067          	ret
   1f7c8:	8741a783          	lw	a5,-1932(gp) # 2272c <errno>
   1f7cc:	fe0784e3          	beqz	a5,1f7b4 <_isatty_r+0x28>
   1f7d0:	00c12083          	lw	ra,12(sp)
   1f7d4:	00f42023          	sw	a5,0(s0)
   1f7d8:	00812403          	lw	s0,8(sp)
   1f7dc:	00412483          	lw	s1,4(sp)
   1f7e0:	01010113          	addi	sp,sp,16
   1f7e4:	00008067          	ret

0001f7e8 <__assert_func>:
   1f7e8:	8601a783          	lw	a5,-1952(gp) # 22718 <_impure_ptr>
   1f7ec:	ff010113          	addi	sp,sp,-16
   1f7f0:	00060813          	mv	a6,a2
   1f7f4:	00112623          	sw	ra,12(sp)
   1f7f8:	00068613          	mv	a2,a3
   1f7fc:	00058713          	mv	a4,a1
   1f800:	00050693          	mv	a3,a0
   1f804:	00c7a503          	lw	a0,12(a5)
   1f808:	00080e63          	beqz	a6,1f824 <__assert_func+0x3c>
   1f80c:	000217b7          	lui	a5,0x21
   1f810:	34478793          	addi	a5,a5,836 # 21344 <_getpid_r+0x20c>
   1f814:	000215b7          	lui	a1,0x21
   1f818:	35458593          	addi	a1,a1,852 # 21354 <_getpid_r+0x21c>
   1f81c:	260000ef          	jal	1fa7c <fiprintf>
   1f820:	7dc010ef          	jal	20ffc <abort>
   1f824:	00021837          	lui	a6,0x21
   1f828:	18880793          	addi	a5,a6,392 # 21188 <_getpid_r+0x50>
   1f82c:	18880813          	addi	a6,a6,392
   1f830:	fe5ff06f          	j	1f814 <__assert_func+0x2c>

0001f834 <_calloc_r>:
   1f834:	ff010113          	addi	sp,sp,-16
   1f838:	00812423          	sw	s0,8(sp)
   1f83c:	00112623          	sw	ra,12(sp)
   1f840:	0105d713          	srli	a4,a1,0x10
   1f844:	00058793          	mv	a5,a1
   1f848:	00050413          	mv	s0,a0
   1f84c:	01065693          	srli	a3,a2,0x10
   1f850:	0c071063          	bnez	a4,1f910 <_calloc_r+0xdc>
   1f854:	14069863          	bnez	a3,1f9a4 <_calloc_r+0x170>
   1f858:	01061593          	slli	a1,a2,0x10
   1f85c:	01079513          	slli	a0,a5,0x10
   1f860:	0105d593          	srli	a1,a1,0x10
   1f864:	01055513          	srli	a0,a0,0x10
   1f868:	e3cf60ef          	jal	15ea4 <__mulsi3>
   1f86c:	00050593          	mv	a1,a0
   1f870:	00040513          	mv	a0,s0
   1f874:	d78f70ef          	jal	16dec <_malloc_r>
   1f878:	00050413          	mv	s0,a0
   1f87c:	10050863          	beqz	a0,1f98c <_calloc_r+0x158>
   1f880:	ffc52603          	lw	a2,-4(a0)
   1f884:	02400713          	li	a4,36
   1f888:	ffc67613          	andi	a2,a2,-4
   1f88c:	ffc60613          	addi	a2,a2,-4
   1f890:	04c76863          	bltu	a4,a2,1f8e0 <_calloc_r+0xac>
   1f894:	01300693          	li	a3,19
   1f898:	00050793          	mv	a5,a0
   1f89c:	02c6f263          	bgeu	a3,a2,1f8c0 <_calloc_r+0x8c>
   1f8a0:	00052023          	sw	zero,0(a0)
   1f8a4:	00052223          	sw	zero,4(a0)
   1f8a8:	01b00793          	li	a5,27
   1f8ac:	04c7f863          	bgeu	a5,a2,1f8fc <_calloc_r+0xc8>
   1f8b0:	00052423          	sw	zero,8(a0)
   1f8b4:	00052623          	sw	zero,12(a0)
   1f8b8:	01050793          	addi	a5,a0,16
   1f8bc:	0ee60e63          	beq	a2,a4,1f9b8 <_calloc_r+0x184>
   1f8c0:	0007a023          	sw	zero,0(a5)
   1f8c4:	0007a223          	sw	zero,4(a5)
   1f8c8:	0007a423          	sw	zero,8(a5)
   1f8cc:	00c12083          	lw	ra,12(sp)
   1f8d0:	00040513          	mv	a0,s0
   1f8d4:	00812403          	lw	s0,8(sp)
   1f8d8:	01010113          	addi	sp,sp,16
   1f8dc:	00008067          	ret
   1f8e0:	00000593          	li	a1,0
   1f8e4:	879f00ef          	jal	1015c <memset>
   1f8e8:	00c12083          	lw	ra,12(sp)
   1f8ec:	00040513          	mv	a0,s0
   1f8f0:	00812403          	lw	s0,8(sp)
   1f8f4:	01010113          	addi	sp,sp,16
   1f8f8:	00008067          	ret
   1f8fc:	00850793          	addi	a5,a0,8
   1f900:	0007a023          	sw	zero,0(a5)
   1f904:	0007a223          	sw	zero,4(a5)
   1f908:	0007a423          	sw	zero,8(a5)
   1f90c:	fc1ff06f          	j	1f8cc <_calloc_r+0x98>
   1f910:	0c069063          	bnez	a3,1f9d0 <_calloc_r+0x19c>
   1f914:	00912223          	sw	s1,4(sp)
   1f918:	01212023          	sw	s2,0(sp)
   1f91c:	00070493          	mv	s1,a4
   1f920:	00060913          	mv	s2,a2
   1f924:	01061593          	slli	a1,a2,0x10
   1f928:	01079513          	slli	a0,a5,0x10
   1f92c:	0105d593          	srli	a1,a1,0x10
   1f930:	01055513          	srli	a0,a0,0x10
   1f934:	d70f60ef          	jal	15ea4 <__mulsi3>
   1f938:	00050793          	mv	a5,a0
   1f93c:	01049593          	slli	a1,s1,0x10
   1f940:	01091513          	slli	a0,s2,0x10
   1f944:	0105d593          	srli	a1,a1,0x10
   1f948:	01055513          	srli	a0,a0,0x10
   1f94c:	00078493          	mv	s1,a5
   1f950:	d54f60ef          	jal	15ea4 <__mulsi3>
   1f954:	0104d793          	srli	a5,s1,0x10
   1f958:	00f505b3          	add	a1,a0,a5
   1f95c:	0105d793          	srli	a5,a1,0x10
   1f960:	06079463          	bnez	a5,1f9c8 <_calloc_r+0x194>
   1f964:	01049493          	slli	s1,s1,0x10
   1f968:	0104d493          	srli	s1,s1,0x10
   1f96c:	01059593          	slli	a1,a1,0x10
   1f970:	0095e5b3          	or	a1,a1,s1
   1f974:	00040513          	mv	a0,s0
   1f978:	00412483          	lw	s1,4(sp)
   1f97c:	00012903          	lw	s2,0(sp)
   1f980:	c6cf70ef          	jal	16dec <_malloc_r>
   1f984:	00050413          	mv	s0,a0
   1f988:	ee051ce3          	bnez	a0,1f880 <_calloc_r+0x4c>
   1f98c:	00000413          	li	s0,0
   1f990:	00c12083          	lw	ra,12(sp)
   1f994:	00040513          	mv	a0,s0
   1f998:	00812403          	lw	s0,8(sp)
   1f99c:	01010113          	addi	sp,sp,16
   1f9a0:	00008067          	ret
   1f9a4:	00912223          	sw	s1,4(sp)
   1f9a8:	01212023          	sw	s2,0(sp)
   1f9ac:	00068493          	mv	s1,a3
   1f9b0:	00058913          	mv	s2,a1
   1f9b4:	f71ff06f          	j	1f924 <_calloc_r+0xf0>
   1f9b8:	00052823          	sw	zero,16(a0)
   1f9bc:	00052a23          	sw	zero,20(a0)
   1f9c0:	01850793          	addi	a5,a0,24
   1f9c4:	efdff06f          	j	1f8c0 <_calloc_r+0x8c>
   1f9c8:	00412483          	lw	s1,4(sp)
   1f9cc:	00012903          	lw	s2,0(sp)
   1f9d0:	d7df60ef          	jal	1674c <__errno>
   1f9d4:	00c00793          	li	a5,12
   1f9d8:	00f52023          	sw	a5,0(a0)
   1f9dc:	00000413          	li	s0,0
   1f9e0:	fb1ff06f          	j	1f990 <_calloc_r+0x15c>

0001f9e4 <__ascii_mbtowc>:
   1f9e4:	02058063          	beqz	a1,1fa04 <__ascii_mbtowc+0x20>
   1f9e8:	04060263          	beqz	a2,1fa2c <__ascii_mbtowc+0x48>
   1f9ec:	04068863          	beqz	a3,1fa3c <__ascii_mbtowc+0x58>
   1f9f0:	00064783          	lbu	a5,0(a2)
   1f9f4:	00f5a023          	sw	a5,0(a1)
   1f9f8:	00064503          	lbu	a0,0(a2)
   1f9fc:	00a03533          	snez	a0,a0
   1fa00:	00008067          	ret
   1fa04:	ff010113          	addi	sp,sp,-16
   1fa08:	00c10593          	addi	a1,sp,12
   1fa0c:	02060463          	beqz	a2,1fa34 <__ascii_mbtowc+0x50>
   1fa10:	02068a63          	beqz	a3,1fa44 <__ascii_mbtowc+0x60>
   1fa14:	00064783          	lbu	a5,0(a2)
   1fa18:	00f5a023          	sw	a5,0(a1)
   1fa1c:	00064503          	lbu	a0,0(a2)
   1fa20:	00a03533          	snez	a0,a0
   1fa24:	01010113          	addi	sp,sp,16
   1fa28:	00008067          	ret
   1fa2c:	00000513          	li	a0,0
   1fa30:	00008067          	ret
   1fa34:	00000513          	li	a0,0
   1fa38:	fedff06f          	j	1fa24 <__ascii_mbtowc+0x40>
   1fa3c:	ffe00513          	li	a0,-2
   1fa40:	00008067          	ret
   1fa44:	ffe00513          	li	a0,-2
   1fa48:	fddff06f          	j	1fa24 <__ascii_mbtowc+0x40>

0001fa4c <__ascii_wctomb>:
   1fa4c:	02058463          	beqz	a1,1fa74 <__ascii_wctomb+0x28>
   1fa50:	0ff00793          	li	a5,255
   1fa54:	00c7e863          	bltu	a5,a2,1fa64 <__ascii_wctomb+0x18>
   1fa58:	00c58023          	sb	a2,0(a1)
   1fa5c:	00100513          	li	a0,1
   1fa60:	00008067          	ret
   1fa64:	08a00793          	li	a5,138
   1fa68:	00f52023          	sw	a5,0(a0)
   1fa6c:	fff00513          	li	a0,-1
   1fa70:	00008067          	ret
   1fa74:	00000513          	li	a0,0
   1fa78:	00008067          	ret

0001fa7c <fiprintf>:
   1fa7c:	fc010113          	addi	sp,sp,-64
   1fa80:	00050e93          	mv	t4,a0
   1fa84:	8601a503          	lw	a0,-1952(gp) # 22718 <_impure_ptr>
   1fa88:	00058e13          	mv	t3,a1
   1fa8c:	02810313          	addi	t1,sp,40
   1fa90:	02c12423          	sw	a2,40(sp)
   1fa94:	02d12623          	sw	a3,44(sp)
   1fa98:	000e8593          	mv	a1,t4
   1fa9c:	000e0613          	mv	a2,t3
   1faa0:	00030693          	mv	a3,t1
   1faa4:	00112e23          	sw	ra,28(sp)
   1faa8:	02e12823          	sw	a4,48(sp)
   1faac:	02f12a23          	sw	a5,52(sp)
   1fab0:	03012c23          	sw	a6,56(sp)
   1fab4:	03112e23          	sw	a7,60(sp)
   1fab8:	00612623          	sw	t1,12(sp)
   1fabc:	010000ef          	jal	1facc <_vfiprintf_r>
   1fac0:	01c12083          	lw	ra,28(sp)
   1fac4:	04010113          	addi	sp,sp,64
   1fac8:	00008067          	ret

0001facc <_vfiprintf_r>:
   1facc:	ed010113          	addi	sp,sp,-304
   1fad0:	11412c23          	sw	s4,280(sp)
   1fad4:	11812423          	sw	s8,264(sp)
   1fad8:	11a12023          	sw	s10,256(sp)
   1fadc:	12112623          	sw	ra,300(sp)
   1fae0:	11312e23          	sw	s3,284(sp)
   1fae4:	00b12023          	sw	a1,0(sp)
   1fae8:	00050a13          	mv	s4,a0
   1faec:	00060c13          	mv	s8,a2
   1faf0:	00068d13          	mv	s10,a3
   1faf4:	00050863          	beqz	a0,1fb04 <_vfiprintf_r+0x38>
   1faf8:	03452783          	lw	a5,52(a0)
   1fafc:	00079463          	bnez	a5,1fb04 <_vfiprintf_r+0x38>
   1fb00:	1b00106f          	j	20cb0 <_vfiprintf_r+0x11e4>
   1fb04:	00012583          	lw	a1,0(sp)
   1fb08:	00002637          	lui	a2,0x2
   1fb0c:	00c59783          	lh	a5,12(a1)
   1fb10:	0645a703          	lw	a4,100(a1)
   1fb14:	01279693          	slli	a3,a5,0x12
   1fb18:	5a06cee3          	bltz	a3,208d4 <_vfiprintf_r+0xe08>
   1fb1c:	ffffe6b7          	lui	a3,0xffffe
   1fb20:	12812423          	sw	s0,296(sp)
   1fb24:	00c7e7b3          	or	a5,a5,a2
   1fb28:	fff68693          	addi	a3,a3,-1 # ffffdfff <__global_pointer$+0xfffdb147>
   1fb2c:	00d77733          	and	a4,a4,a3
   1fb30:	00f59623          	sh	a5,12(a1)
   1fb34:	01079793          	slli	a5,a5,0x10
   1fb38:	4107d793          	srai	a5,a5,0x10
   1fb3c:	06e5a223          	sw	a4,100(a1)
   1fb40:	0087f713          	andi	a4,a5,8
   1fb44:	2c070263          	beqz	a4,1fe08 <_vfiprintf_r+0x33c>
   1fb48:	00012703          	lw	a4,0(sp)
   1fb4c:	01072703          	lw	a4,16(a4)
   1fb50:	2a070c63          	beqz	a4,1fe08 <_vfiprintf_r+0x33c>
   1fb54:	01a7f793          	andi	a5,a5,26
   1fb58:	00a00713          	li	a4,10
   1fb5c:	2ce78a63          	beq	a5,a4,1fe30 <_vfiprintf_r+0x364>
   1fb60:	11512a23          	sw	s5,276(sp)
   1fb64:	04c10a93          	addi	s5,sp,76
   1fb68:	12912223          	sw	s1,292(sp)
   1fb6c:	13212023          	sw	s2,288(sp)
   1fb70:	11612823          	sw	s6,272(sp)
   1fb74:	11712623          	sw	s7,268(sp)
   1fb78:	11912223          	sw	s9,260(sp)
   1fb7c:	0fb12e23          	sw	s11,252(sp)
   1fb80:	04012423          	sw	zero,72(sp)
   1fb84:	04012223          	sw	zero,68(sp)
   1fb88:	05512023          	sw	s5,64(sp)
   1fb8c:	000a8793          	mv	a5,s5
   1fb90:	00012223          	sw	zero,4(sp)
   1fb94:	00012a23          	sw	zero,20(sp)
   1fb98:	00012c23          	sw	zero,24(sp)
   1fb9c:	00000993          	li	s3,0
   1fba0:	02500413          	li	s0,37
   1fba4:	00700913          	li	s2,7
   1fba8:	01000493          	li	s1,16
   1fbac:	000c4703          	lbu	a4,0(s8)
   1fbb0:	1c070c63          	beqz	a4,1fd88 <_vfiprintf_r+0x2bc>
   1fbb4:	000c0b13          	mv	s6,s8
   1fbb8:	2a870a63          	beq	a4,s0,1fe6c <_vfiprintf_r+0x3a0>
   1fbbc:	001b4703          	lbu	a4,1(s6)
   1fbc0:	001b0b13          	addi	s6,s6,1
   1fbc4:	fe071ae3          	bnez	a4,1fbb8 <_vfiprintf_r+0xec>
   1fbc8:	418b0bb3          	sub	s7,s6,s8
   1fbcc:	1b8b0e63          	beq	s6,s8,1fd88 <_vfiprintf_r+0x2bc>
   1fbd0:	04812683          	lw	a3,72(sp)
   1fbd4:	04412703          	lw	a4,68(sp)
   1fbd8:	0187a023          	sw	s8,0(a5)
   1fbdc:	017686b3          	add	a3,a3,s7
   1fbe0:	00170713          	addi	a4,a4,1
   1fbe4:	0177a223          	sw	s7,4(a5)
   1fbe8:	04d12423          	sw	a3,72(sp)
   1fbec:	04e12223          	sw	a4,68(sp)
   1fbf0:	00878793          	addi	a5,a5,8
   1fbf4:	28e94463          	blt	s2,a4,1fe7c <_vfiprintf_r+0x3b0>
   1fbf8:	000b4703          	lbu	a4,0(s6)
   1fbfc:	017989b3          	add	s3,s3,s7
   1fc00:	18070463          	beqz	a4,1fd88 <_vfiprintf_r+0x2bc>
   1fc04:	00000313          	li	t1,0
   1fc08:	001b4683          	lbu	a3,1(s6)
   1fc0c:	001b0c13          	addi	s8,s6,1
   1fc10:	02010da3          	sb	zero,59(sp)
   1fc14:	fff00c93          	li	s9,-1
   1fc18:	00000e13          	li	t3,0
   1fc1c:	05a00b93          	li	s7,90
   1fc20:	00030b13          	mv	s6,t1
   1fc24:	00078d93          	mv	s11,a5
   1fc28:	001c0c13          	addi	s8,s8,1
   1fc2c:	fe068713          	addi	a4,a3,-32
   1fc30:	04ebe863          	bltu	s7,a4,1fc80 <_vfiprintf_r+0x1b4>
   1fc34:	000217b7          	lui	a5,0x21
   1fc38:	00271713          	slli	a4,a4,0x2
   1fc3c:	79478613          	addi	a2,a5,1940 # 21794 <_ctype_+0x104>
   1fc40:	00c70733          	add	a4,a4,a2
   1fc44:	00072703          	lw	a4,0(a4)
   1fc48:	00070067          	jr	a4
   1fc4c:	fd068713          	addi	a4,a3,-48
   1fc50:	00000b13          	li	s6,0
   1fc54:	00900593          	li	a1,9
   1fc58:	002b1613          	slli	a2,s6,0x2
   1fc5c:	000c4683          	lbu	a3,0(s8)
   1fc60:	01660333          	add	t1,a2,s6
   1fc64:	00131313          	slli	t1,t1,0x1
   1fc68:	00670b33          	add	s6,a4,t1
   1fc6c:	fd068713          	addi	a4,a3,-48
   1fc70:	001c0c13          	addi	s8,s8,1
   1fc74:	fee5f2e3          	bgeu	a1,a4,1fc58 <_vfiprintf_r+0x18c>
   1fc78:	fe068713          	addi	a4,a3,-32
   1fc7c:	faebfce3          	bgeu	s7,a4,1fc34 <_vfiprintf_r+0x168>
   1fc80:	000b0313          	mv	t1,s6
   1fc84:	000d8793          	mv	a5,s11
   1fc88:	10068063          	beqz	a3,1fd88 <_vfiprintf_r+0x2bc>
   1fc8c:	00100d93          	li	s11,1
   1fc90:	08d10623          	sb	a3,140(sp)
   1fc94:	02010da3          	sb	zero,59(sp)
   1fc98:	000d8b93          	mv	s7,s11
   1fc9c:	00000c93          	li	s9,0
   1fca0:	08c10813          	addi	a6,sp,140
   1fca4:	04812583          	lw	a1,72(sp)
   1fca8:	04412603          	lw	a2,68(sp)
   1fcac:	084e7f13          	andi	t5,t3,132
   1fcb0:	00058693          	mv	a3,a1
   1fcb4:	00060713          	mv	a4,a2
   1fcb8:	060f1863          	bnez	t5,1fd28 <_vfiprintf_r+0x25c>
   1fcbc:	41730b33          	sub	s6,t1,s7
   1fcc0:	43604ee3          	bgtz	s6,208fc <_vfiprintf_r+0xe30>
   1fcc4:	03b14603          	lbu	a2,59(sp)
   1fcc8:	06060463          	beqz	a2,1fd30 <_vfiprintf_r+0x264>
   1fccc:	00000f13          	li	t5,0
   1fcd0:	00000e93          	li	t4,0
   1fcd4:	00168693          	addi	a3,a3,1
   1fcd8:	00170713          	addi	a4,a4,1
   1fcdc:	03b10593          	addi	a1,sp,59
   1fce0:	00100613          	li	a2,1
   1fce4:	00b7a023          	sw	a1,0(a5)
   1fce8:	00c7a223          	sw	a2,4(a5)
   1fcec:	04d12423          	sw	a3,72(sp)
   1fcf0:	04e12223          	sw	a4,68(sp)
   1fcf4:	00878793          	addi	a5,a5,8
   1fcf8:	1ae94063          	blt	s2,a4,1fe98 <_vfiprintf_r+0x3cc>
   1fcfc:	020e8663          	beqz	t4,1fd28 <_vfiprintf_r+0x25c>
   1fd00:	00268693          	addi	a3,a3,2
   1fd04:	00170713          	addi	a4,a4,1
   1fd08:	03c10593          	addi	a1,sp,60
   1fd0c:	00200613          	li	a2,2
   1fd10:	00b7a023          	sw	a1,0(a5)
   1fd14:	00c7a223          	sw	a2,4(a5)
   1fd18:	04d12423          	sw	a3,72(sp)
   1fd1c:	04e12223          	sw	a4,68(sp)
   1fd20:	00878793          	addi	a5,a5,8
   1fd24:	36e946e3          	blt	s2,a4,20890 <_vfiprintf_r+0xdc4>
   1fd28:	08000613          	li	a2,128
   1fd2c:	10cf00e3          	beq	t5,a2,2062c <_vfiprintf_r+0xb60>
   1fd30:	41bc8cb3          	sub	s9,s9,s11
   1fd34:	219042e3          	bgtz	s9,20738 <_vfiprintf_r+0xc6c>
   1fd38:	00dd86b3          	add	a3,s11,a3
   1fd3c:	00170713          	addi	a4,a4,1
   1fd40:	0107a023          	sw	a6,0(a5)
   1fd44:	01b7a223          	sw	s11,4(a5)
   1fd48:	04d12423          	sw	a3,72(sp)
   1fd4c:	04e12223          	sw	a4,68(sp)
   1fd50:	00878793          	addi	a5,a5,8
   1fd54:	2ee94ae3          	blt	s2,a4,20848 <_vfiprintf_r+0xd7c>
   1fd58:	004e7e13          	andi	t3,t3,4
   1fd5c:	000e0663          	beqz	t3,1fd68 <_vfiprintf_r+0x29c>
   1fd60:	41730b33          	sub	s6,t1,s7
   1fd64:	19604063          	bgtz	s6,1fee4 <_vfiprintf_r+0x418>
   1fd68:	01735463          	bge	t1,s7,1fd70 <_vfiprintf_r+0x2a4>
   1fd6c:	000b8313          	mv	t1,s7
   1fd70:	006989b3          	add	s3,s3,t1
   1fd74:	300692e3          	bnez	a3,20878 <_vfiprintf_r+0xdac>
   1fd78:	000c4703          	lbu	a4,0(s8)
   1fd7c:	04012223          	sw	zero,68(sp)
   1fd80:	000a8793          	mv	a5,s5
   1fd84:	e20718e3          	bnez	a4,1fbb4 <_vfiprintf_r+0xe8>
   1fd88:	04812783          	lw	a5,72(sp)
   1fd8c:	00078463          	beqz	a5,1fd94 <_vfiprintf_r+0x2c8>
   1fd90:	1280106f          	j	20eb8 <_vfiprintf_r+0x13ec>
   1fd94:	00012783          	lw	a5,0(sp)
   1fd98:	12812403          	lw	s0,296(sp)
   1fd9c:	12412483          	lw	s1,292(sp)
   1fda0:	00c7d783          	lhu	a5,12(a5)
   1fda4:	12012903          	lw	s2,288(sp)
   1fda8:	11412a83          	lw	s5,276(sp)
   1fdac:	0407f793          	andi	a5,a5,64
   1fdb0:	11012b03          	lw	s6,272(sp)
   1fdb4:	10c12b83          	lw	s7,268(sp)
   1fdb8:	10412c83          	lw	s9,260(sp)
   1fdbc:	0fc12d83          	lw	s11,252(sp)
   1fdc0:	00078463          	beqz	a5,1fdc8 <_vfiprintf_r+0x2fc>
   1fdc4:	1200106f          	j	20ee4 <_vfiprintf_r+0x1418>
   1fdc8:	12c12083          	lw	ra,300(sp)
   1fdcc:	11812a03          	lw	s4,280(sp)
   1fdd0:	10812c03          	lw	s8,264(sp)
   1fdd4:	10012d03          	lw	s10,256(sp)
   1fdd8:	00098513          	mv	a0,s3
   1fddc:	11c12983          	lw	s3,284(sp)
   1fde0:	13010113          	addi	sp,sp,304
   1fde4:	00008067          	ret
   1fde8:	000d2b03          	lw	s6,0(s10)
   1fdec:	004d0d13          	addi	s10,s10,4
   1fdf0:	460b4463          	bltz	s6,20258 <_vfiprintf_r+0x78c>
   1fdf4:	000c4683          	lbu	a3,0(s8)
   1fdf8:	e31ff06f          	j	1fc28 <_vfiprintf_r+0x15c>
   1fdfc:	000c4683          	lbu	a3,0(s8)
   1fe00:	020e6e13          	ori	t3,t3,32
   1fe04:	e25ff06f          	j	1fc28 <_vfiprintf_r+0x15c>
   1fe08:	00012403          	lw	s0,0(sp)
   1fe0c:	000a0513          	mv	a0,s4
   1fe10:	00040593          	mv	a1,s0
   1fe14:	bf8fb0ef          	jal	1b20c <__swsetup_r>
   1fe18:	00050463          	beqz	a0,1fe20 <_vfiprintf_r+0x354>
   1fe1c:	0c40106f          	j	20ee0 <_vfiprintf_r+0x1414>
   1fe20:	00c41783          	lh	a5,12(s0)
   1fe24:	00a00713          	li	a4,10
   1fe28:	01a7f793          	andi	a5,a5,26
   1fe2c:	d2e79ae3          	bne	a5,a4,1fb60 <_vfiprintf_r+0x94>
   1fe30:	00012783          	lw	a5,0(sp)
   1fe34:	00e79783          	lh	a5,14(a5)
   1fe38:	d207c4e3          	bltz	a5,1fb60 <_vfiprintf_r+0x94>
   1fe3c:	12812403          	lw	s0,296(sp)
   1fe40:	00012583          	lw	a1,0(sp)
   1fe44:	12c12083          	lw	ra,300(sp)
   1fe48:	11c12983          	lw	s3,284(sp)
   1fe4c:	000d0693          	mv	a3,s10
   1fe50:	000c0613          	mv	a2,s8
   1fe54:	10012d03          	lw	s10,256(sp)
   1fe58:	10812c03          	lw	s8,264(sp)
   1fe5c:	000a0513          	mv	a0,s4
   1fe60:	11812a03          	lw	s4,280(sp)
   1fe64:	13010113          	addi	sp,sp,304
   1fe68:	0d40106f          	j	20f3c <__sbprintf>
   1fe6c:	418b0bb3          	sub	s7,s6,s8
   1fe70:	d78b10e3          	bne	s6,s8,1fbd0 <_vfiprintf_r+0x104>
   1fe74:	000b4703          	lbu	a4,0(s6)
   1fe78:	d89ff06f          	j	1fc00 <_vfiprintf_r+0x134>
   1fe7c:	00012583          	lw	a1,0(sp)
   1fe80:	04010613          	addi	a2,sp,64
   1fe84:	000a0513          	mv	a0,s4
   1fe88:	a95fa0ef          	jal	1a91c <__sprint_r>
   1fe8c:	f00514e3          	bnez	a0,1fd94 <_vfiprintf_r+0x2c8>
   1fe90:	000a8793          	mv	a5,s5
   1fe94:	d65ff06f          	j	1fbf8 <_vfiprintf_r+0x12c>
   1fe98:	00012583          	lw	a1,0(sp)
   1fe9c:	04010613          	addi	a2,sp,64
   1fea0:	000a0513          	mv	a0,s4
   1fea4:	03c12023          	sw	t3,32(sp)
   1fea8:	01012e23          	sw	a6,28(sp)
   1feac:	01e12823          	sw	t5,16(sp)
   1feb0:	01d12623          	sw	t4,12(sp)
   1feb4:	00612423          	sw	t1,8(sp)
   1feb8:	a65fa0ef          	jal	1a91c <__sprint_r>
   1febc:	ec051ce3          	bnez	a0,1fd94 <_vfiprintf_r+0x2c8>
   1fec0:	04812683          	lw	a3,72(sp)
   1fec4:	04412703          	lw	a4,68(sp)
   1fec8:	02012e03          	lw	t3,32(sp)
   1fecc:	01c12803          	lw	a6,28(sp)
   1fed0:	01012f03          	lw	t5,16(sp)
   1fed4:	00c12e83          	lw	t4,12(sp)
   1fed8:	00812303          	lw	t1,8(sp)
   1fedc:	000a8793          	mv	a5,s5
   1fee0:	e1dff06f          	j	1fcfc <_vfiprintf_r+0x230>
   1fee4:	00022f37          	lui	t5,0x22
   1fee8:	01000c93          	li	s9,16
   1feec:	04412703          	lw	a4,68(sp)
   1fef0:	910f0f13          	addi	t5,t5,-1776 # 21910 <blanks.1>
   1fef4:	076cde63          	bge	s9,s6,1ff70 <_vfiprintf_r+0x4a4>
   1fef8:	01712623          	sw	s7,12(sp)
   1fefc:	000c8813          	mv	a6,s9
   1ff00:	00700d93          	li	s11,7
   1ff04:	00612423          	sw	t1,8(sp)
   1ff08:	000f0b93          	mv	s7,t5
   1ff0c:	00c0006f          	j	1ff18 <_vfiprintf_r+0x44c>
   1ff10:	ff0b0b13          	addi	s6,s6,-16
   1ff14:	05685863          	bge	a6,s6,1ff64 <_vfiprintf_r+0x498>
   1ff18:	01068693          	addi	a3,a3,16
   1ff1c:	00170713          	addi	a4,a4,1
   1ff20:	0177a023          	sw	s7,0(a5)
   1ff24:	0197a223          	sw	s9,4(a5)
   1ff28:	04d12423          	sw	a3,72(sp)
   1ff2c:	04e12223          	sw	a4,68(sp)
   1ff30:	00878793          	addi	a5,a5,8
   1ff34:	fceddee3          	bge	s11,a4,1ff10 <_vfiprintf_r+0x444>
   1ff38:	00012583          	lw	a1,0(sp)
   1ff3c:	04010613          	addi	a2,sp,64
   1ff40:	000a0513          	mv	a0,s4
   1ff44:	9d9fa0ef          	jal	1a91c <__sprint_r>
   1ff48:	e40516e3          	bnez	a0,1fd94 <_vfiprintf_r+0x2c8>
   1ff4c:	01000813          	li	a6,16
   1ff50:	ff0b0b13          	addi	s6,s6,-16
   1ff54:	04812683          	lw	a3,72(sp)
   1ff58:	04412703          	lw	a4,68(sp)
   1ff5c:	000a8793          	mv	a5,s5
   1ff60:	fb684ce3          	blt	a6,s6,1ff18 <_vfiprintf_r+0x44c>
   1ff64:	000b8f13          	mv	t5,s7
   1ff68:	00812303          	lw	t1,8(sp)
   1ff6c:	00c12b83          	lw	s7,12(sp)
   1ff70:	016686b3          	add	a3,a3,s6
   1ff74:	00170713          	addi	a4,a4,1
   1ff78:	01e7a023          	sw	t5,0(a5)
   1ff7c:	0167a223          	sw	s6,4(a5)
   1ff80:	04d12423          	sw	a3,72(sp)
   1ff84:	04e12223          	sw	a4,68(sp)
   1ff88:	00700793          	li	a5,7
   1ff8c:	dce7dee3          	bge	a5,a4,1fd68 <_vfiprintf_r+0x29c>
   1ff90:	00012583          	lw	a1,0(sp)
   1ff94:	04010613          	addi	a2,sp,64
   1ff98:	000a0513          	mv	a0,s4
   1ff9c:	00612423          	sw	t1,8(sp)
   1ffa0:	97dfa0ef          	jal	1a91c <__sprint_r>
   1ffa4:	de0518e3          	bnez	a0,1fd94 <_vfiprintf_r+0x2c8>
   1ffa8:	04812683          	lw	a3,72(sp)
   1ffac:	00812303          	lw	t1,8(sp)
   1ffb0:	db9ff06f          	j	1fd68 <_vfiprintf_r+0x29c>
   1ffb4:	020e7713          	andi	a4,t3,32
   1ffb8:	000b0313          	mv	t1,s6
   1ffbc:	000d8793          	mv	a5,s11
   1ffc0:	14071a63          	bnez	a4,20114 <_vfiprintf_r+0x648>
   1ffc4:	010e7693          	andi	a3,t3,16
   1ffc8:	000d2703          	lw	a4,0(s10)
   1ffcc:	004d0613          	addi	a2,s10,4
   1ffd0:	240696e3          	bnez	a3,20a1c <_vfiprintf_r+0xf50>
   1ffd4:	040e7693          	andi	a3,t3,64
   1ffd8:	56068ae3          	beqz	a3,20d4c <_vfiprintf_r+0x1280>
   1ffdc:	01071d93          	slli	s11,a4,0x10
   1ffe0:	410ddd93          	srai	s11,s11,0x10
   1ffe4:	41fdde93          	srai	t4,s11,0x1f
   1ffe8:	00060d13          	mv	s10,a2
   1ffec:	000e8693          	mv	a3,t4
   1fff0:	1406c063          	bltz	a3,20130 <_vfiprintf_r+0x664>
   1fff4:	000cc863          	bltz	s9,20004 <_vfiprintf_r+0x538>
   1fff8:	01dde6b3          	or	a3,s11,t4
   1fffc:	f7fe7e13          	andi	t3,t3,-129
   20000:	2c068ce3          	beqz	a3,20ad8 <_vfiprintf_r+0x100c>
   20004:	140e9863          	bnez	t4,20154 <_vfiprintf_r+0x688>
   20008:	00900693          	li	a3,9
   2000c:	15b6e463          	bltu	a3,s11,20154 <_vfiprintf_r+0x688>
   20010:	030d8713          	addi	a4,s11,48
   20014:	0ff77713          	zext.b	a4,a4
   20018:	0ee107a3          	sb	a4,239(sp)
   2001c:	000c8b93          	mv	s7,s9
   20020:	01904463          	bgtz	s9,20028 <_vfiprintf_r+0x55c>
   20024:	00100b93          	li	s7,1
   20028:	03b14703          	lbu	a4,59(sp)
   2002c:	1a070ee3          	beqz	a4,209e8 <_vfiprintf_r+0xf1c>
   20030:	001b8b93          	addi	s7,s7,1
   20034:	00100d93          	li	s11,1
   20038:	0ef10813          	addi	a6,sp,239
   2003c:	04812683          	lw	a3,72(sp)
   20040:	04412703          	lw	a4,68(sp)
   20044:	084e7f13          	andi	t5,t3,132
   20048:	00068593          	mv	a1,a3
   2004c:	00070613          	mv	a2,a4
   20050:	00000e93          	li	t4,0
   20054:	c80f10e3          	bnez	t5,1fcd4 <_vfiprintf_r+0x208>
   20058:	c65ff06f          	j	1fcbc <_vfiprintf_r+0x1f0>
   2005c:	000d2803          	lw	a6,0(s10)
   20060:	02010da3          	sb	zero,59(sp)
   20064:	000b0313          	mv	t1,s6
   20068:	000d8793          	mv	a5,s11
   2006c:	004d0d13          	addi	s10,s10,4
   20070:	46080ce3          	beqz	a6,20ce8 <_vfiprintf_r+0x121c>
   20074:	01b12e23          	sw	s11,28(sp)
   20078:	01c12823          	sw	t3,16(sp)
   2007c:	01612623          	sw	s6,12(sp)
   20080:	300cc4e3          	bltz	s9,20b88 <_vfiprintf_r+0x10bc>
   20084:	00080513          	mv	a0,a6
   20088:	000c8613          	mv	a2,s9
   2008c:	00000593          	li	a1,0
   20090:	01012423          	sw	a6,8(sp)
   20094:	b1cfb0ef          	jal	1b3b0 <memchr>
   20098:	03b14703          	lbu	a4,59(sp)
   2009c:	00812803          	lw	a6,8(sp)
   200a0:	00c12303          	lw	t1,12(sp)
   200a4:	01012e03          	lw	t3,16(sp)
   200a8:	01c12783          	lw	a5,28(sp)
   200ac:	620500e3          	beqz	a0,20ecc <_vfiprintf_r+0x1400>
   200b0:	41050db3          	sub	s11,a0,a6
   200b4:	fffdcb93          	not	s7,s11
   200b8:	41fbdb93          	srai	s7,s7,0x1f
   200bc:	017dfbb3          	and	s7,s11,s7
   200c0:	2e070ee3          	beqz	a4,20bbc <_vfiprintf_r+0x10f0>
   200c4:	001b8b93          	addi	s7,s7,1
   200c8:	00000c93          	li	s9,0
   200cc:	f71ff06f          	j	2003c <_vfiprintf_r+0x570>
   200d0:	000d2703          	lw	a4,0(s10)
   200d4:	000d8793          	mv	a5,s11
   200d8:	00100d93          	li	s11,1
   200dc:	000b0313          	mv	t1,s6
   200e0:	02010da3          	sb	zero,59(sp)
   200e4:	08e10623          	sb	a4,140(sp)
   200e8:	004d0d13          	addi	s10,s10,4
   200ec:	000d8b93          	mv	s7,s11
   200f0:	00000c93          	li	s9,0
   200f4:	08c10813          	addi	a6,sp,140
   200f8:	badff06f          	j	1fca4 <_vfiprintf_r+0x1d8>
   200fc:	020e7713          	andi	a4,t3,32
   20100:	000b0313          	mv	t1,s6
   20104:	000d8793          	mv	a5,s11
   20108:	010e6e13          	ori	t3,t3,16
   2010c:	004d0613          	addi	a2,s10,4
   20110:	100706e3          	beqz	a4,20a1c <_vfiprintf_r+0xf50>
   20114:	007d0713          	addi	a4,s10,7
   20118:	ff877713          	andi	a4,a4,-8
   2011c:	00472683          	lw	a3,4(a4)
   20120:	00072d83          	lw	s11,0(a4)
   20124:	00870d13          	addi	s10,a4,8
   20128:	00068e93          	mv	t4,a3
   2012c:	ec06d4e3          	bgez	a3,1fff4 <_vfiprintf_r+0x528>
   20130:	02d00613          	li	a2,45
   20134:	01b036b3          	snez	a3,s11
   20138:	41d00eb3          	neg	t4,t4
   2013c:	02c10da3          	sb	a2,59(sp)
   20140:	40de8eb3          	sub	t4,t4,a3
   20144:	41b00db3          	neg	s11,s11
   20148:	ea0ccee3          	bltz	s9,20004 <_vfiprintf_r+0x538>
   2014c:	f7fe7e13          	andi	t3,t3,-129
   20150:	ea0e8ce3          	beqz	t4,20008 <_vfiprintf_r+0x53c>
   20154:	400e7713          	andi	a4,t3,1024
   20158:	0f010b13          	addi	s6,sp,240
   2015c:	02f12023          	sw	a5,32(sp)
   20160:	000d8793          	mv	a5,s11
   20164:	01912e23          	sw	s9,28(sp)
   20168:	03412623          	sw	s4,44(sp)
   2016c:	000d0d93          	mv	s11,s10
   20170:	00e12423          	sw	a4,8(sp)
   20174:	000c0d13          	mv	s10,s8
   20178:	00000b93          	li	s7,0
   2017c:	00612823          	sw	t1,16(sp)
   20180:	03c12223          	sw	t3,36(sp)
   20184:	03312423          	sw	s3,40(sp)
   20188:	000b0a13          	mv	s4,s6
   2018c:	000e8c93          	mv	s9,t4
   20190:	00078c13          	mv	s8,a5
   20194:	0300006f          	j	201c4 <_vfiprintf_r+0x6f8>
   20198:	000c0513          	mv	a0,s8
   2019c:	000c8593          	mv	a1,s9
   201a0:	00a00613          	li	a2,10
   201a4:	00000693          	li	a3,0
   201a8:	01812623          	sw	s8,12(sp)
   201ac:	000c8993          	mv	s3,s9
   201b0:	a04f00ef          	jal	103b4 <__udivdi3>
   201b4:	000b0a13          	mv	s4,s6
   201b8:	00050c13          	mv	s8,a0
   201bc:	00058c93          	mv	s9,a1
   201c0:	460980e3          	beqz	s3,20e20 <_vfiprintf_r+0x1354>
   201c4:	00a00613          	li	a2,10
   201c8:	00000693          	li	a3,0
   201cc:	000c0513          	mv	a0,s8
   201d0:	000c8593          	mv	a1,s9
   201d4:	fa8f00ef          	jal	1097c <__umoddi3>
   201d8:	00812783          	lw	a5,8(sp)
   201dc:	03050513          	addi	a0,a0,48
   201e0:	feaa0fa3          	sb	a0,-1(s4)
   201e4:	fffa0b13          	addi	s6,s4,-1
   201e8:	001b8b93          	addi	s7,s7,1
   201ec:	fa0786e3          	beqz	a5,20198 <_vfiprintf_r+0x6cc>
   201f0:	00412783          	lw	a5,4(sp)
   201f4:	0007c783          	lbu	a5,0(a5)
   201f8:	fb7790e3          	bne	a5,s7,20198 <_vfiprintf_r+0x6cc>
   201fc:	0ff00793          	li	a5,255
   20200:	f8fb8ce3          	beq	s7,a5,20198 <_vfiprintf_r+0x6cc>
   20204:	380c9ae3          	bnez	s9,20d98 <_vfiprintf_r+0x12cc>
   20208:	00900793          	li	a5,9
   2020c:	3987e6e3          	bltu	a5,s8,20d98 <_vfiprintf_r+0x12cc>
   20210:	01c12c83          	lw	s9,28(sp)
   20214:	0f010713          	addi	a4,sp,240
   20218:	000d0c13          	mv	s8,s10
   2021c:	000d8d13          	mv	s10,s11
   20220:	41670db3          	sub	s11,a4,s6
   20224:	01012303          	lw	t1,16(sp)
   20228:	02012783          	lw	a5,32(sp)
   2022c:	02412e03          	lw	t3,36(sp)
   20230:	02812983          	lw	s3,40(sp)
   20234:	02c12a03          	lw	s4,44(sp)
   20238:	000b0813          	mv	a6,s6
   2023c:	000c8b93          	mv	s7,s9
   20240:	01bcd463          	bge	s9,s11,20248 <_vfiprintf_r+0x77c>
   20244:	000d8b93          	mv	s7,s11
   20248:	03b14703          	lbu	a4,59(sp)
   2024c:	a4070ce3          	beqz	a4,1fca4 <_vfiprintf_r+0x1d8>
   20250:	001b8b93          	addi	s7,s7,1
   20254:	de9ff06f          	j	2003c <_vfiprintf_r+0x570>
   20258:	41600b33          	neg	s6,s6
   2025c:	000c4683          	lbu	a3,0(s8)
   20260:	004e6e13          	ori	t3,t3,4
   20264:	9c5ff06f          	j	1fc28 <_vfiprintf_r+0x15c>
   20268:	020e7713          	andi	a4,t3,32
   2026c:	000b0313          	mv	t1,s6
   20270:	000d8793          	mv	a5,s11
   20274:	010e6b93          	ori	s7,t3,16
   20278:	004d0613          	addi	a2,s10,4
   2027c:	7c070c63          	beqz	a4,20a54 <_vfiprintf_r+0xf88>
   20280:	007d0693          	addi	a3,s10,7
   20284:	ff86f693          	andi	a3,a3,-8
   20288:	0006a703          	lw	a4,0(a3)
   2028c:	00868d13          	addi	s10,a3,8
   20290:	0046a683          	lw	a3,4(a3)
   20294:	02010da3          	sb	zero,59(sp)
   20298:	bffbfe13          	andi	t3,s7,-1025
   2029c:	000cc863          	bltz	s9,202ac <_vfiprintf_r+0x7e0>
   202a0:	00d76633          	or	a2,a4,a3
   202a4:	b7fbfe13          	andi	t3,s7,-1153
   202a8:	74060663          	beqz	a2,209f4 <_vfiprintf_r+0xf28>
   202ac:	0f010813          	addi	a6,sp,240
   202b0:	01d69593          	slli	a1,a3,0x1d
   202b4:	00777613          	andi	a2,a4,7
   202b8:	00375713          	srli	a4,a4,0x3
   202bc:	00080513          	mv	a0,a6
   202c0:	03060613          	addi	a2,a2,48 # 2030 <_start-0xdfd0>
   202c4:	00e5e733          	or	a4,a1,a4
   202c8:	0036d693          	srli	a3,a3,0x3
   202cc:	00d765b3          	or	a1,a4,a3
   202d0:	fec80fa3          	sb	a2,-1(a6)
   202d4:	fff80813          	addi	a6,a6,-1
   202d8:	fc059ce3          	bnez	a1,202b0 <_vfiprintf_r+0x7e4>
   202dc:	001e7713          	andi	a4,t3,1
   202e0:	60070263          	beqz	a4,208e4 <_vfiprintf_r+0xe18>
   202e4:	03000713          	li	a4,48
   202e8:	5ee60e63          	beq	a2,a4,208e4 <_vfiprintf_r+0xe18>
   202ec:	ffe50513          	addi	a0,a0,-2
   202f0:	fee80fa3          	sb	a4,-1(a6)
   202f4:	0f010713          	addi	a4,sp,240
   202f8:	40a70db3          	sub	s11,a4,a0
   202fc:	000c8b93          	mv	s7,s9
   20300:	7dbcc263          	blt	s9,s11,20ac4 <_vfiprintf_r+0xff8>
   20304:	00050813          	mv	a6,a0
   20308:	04812683          	lw	a3,72(sp)
   2030c:	04412703          	lw	a4,68(sp)
   20310:	084e7f13          	andi	t5,t3,132
   20314:	00068593          	mv	a1,a3
   20318:	00070613          	mv	a2,a4
   2031c:	9a0f00e3          	beqz	t5,1fcbc <_vfiprintf_r+0x1f0>
   20320:	03b14603          	lbu	a2,59(sp)
   20324:	00000e93          	li	t4,0
   20328:	9a0616e3          	bnez	a2,1fcd4 <_vfiprintf_r+0x208>
   2032c:	9fdff06f          	j	1fd28 <_vfiprintf_r+0x25c>
   20330:	020e7713          	andi	a4,t3,32
   20334:	000b0313          	mv	t1,s6
   20338:	000d8793          	mv	a5,s11
   2033c:	04071863          	bnez	a4,2038c <_vfiprintf_r+0x8c0>
   20340:	010e7713          	andi	a4,t3,16
   20344:	000d2683          	lw	a3,0(s10)
   20348:	004d0613          	addi	a2,s10,4
   2034c:	70071c63          	bnez	a4,20a64 <_vfiprintf_r+0xf98>
   20350:	040e7713          	andi	a4,t3,64
   20354:	20070ce3          	beqz	a4,20d6c <_vfiprintf_r+0x12a0>
   20358:	01069d93          	slli	s11,a3,0x10
   2035c:	02010da3          	sb	zero,59(sp)
   20360:	010ddd93          	srli	s11,s11,0x10
   20364:	00000e93          	li	t4,0
   20368:	700cd663          	bgez	s9,20a74 <_vfiprintf_r+0xfa8>
   2036c:	00060d13          	mv	s10,a2
   20370:	c99ff06f          	j	20008 <_vfiprintf_r+0x53c>
   20374:	020e7713          	andi	a4,t3,32
   20378:	000b0313          	mv	t1,s6
   2037c:	000d8793          	mv	a5,s11
   20380:	010e6e13          	ori	t3,t3,16
   20384:	004d0613          	addi	a2,s10,4
   20388:	6c070e63          	beqz	a4,20a64 <_vfiprintf_r+0xf98>
   2038c:	007d0693          	addi	a3,s10,7
   20390:	ff86f693          	andi	a3,a3,-8
   20394:	02010da3          	sb	zero,59(sp)
   20398:	0006ad83          	lw	s11,0(a3)
   2039c:	0046ae83          	lw	t4,4(a3)
   203a0:	00868d13          	addi	s10,a3,8
   203a4:	c60cc0e3          	bltz	s9,20004 <_vfiprintf_r+0x538>
   203a8:	01dde6b3          	or	a3,s11,t4
   203ac:	f7fe7e13          	andi	t3,t3,-129
   203b0:	c4069ae3          	bnez	a3,20004 <_vfiprintf_r+0x538>
   203b4:	6c0c9863          	bnez	s9,20a84 <_vfiprintf_r+0xfb8>
   203b8:	00000d93          	li	s11,0
   203bc:	00000b93          	li	s7,0
   203c0:	0f010813          	addi	a6,sp,240
   203c4:	8e1ff06f          	j	1fca4 <_vfiprintf_r+0x1d8>
   203c8:	000c4683          	lbu	a3,0(s8)
   203cc:	06800713          	li	a4,104
   203d0:	0ee684e3          	beq	a3,a4,20cb8 <_vfiprintf_r+0x11ec>
   203d4:	040e6e13          	ori	t3,t3,64
   203d8:	851ff06f          	j	1fc28 <_vfiprintf_r+0x15c>
   203dc:	000a0513          	mv	a0,s4
   203e0:	01c12423          	sw	t3,8(sp)
   203e4:	93cfb0ef          	jal	1b520 <_localeconv_r>
   203e8:	00452783          	lw	a5,4(a0)
   203ec:	00078513          	mv	a0,a5
   203f0:	00f12c23          	sw	a5,24(sp)
   203f4:	bfcf60ef          	jal	167f0 <strlen>
   203f8:	00050713          	mv	a4,a0
   203fc:	000a0513          	mv	a0,s4
   20400:	00e12a23          	sw	a4,20(sp)
   20404:	91cfb0ef          	jal	1b520 <_localeconv_r>
   20408:	00852603          	lw	a2,8(a0)
   2040c:	01412783          	lw	a5,20(sp)
   20410:	000c4683          	lbu	a3,0(s8)
   20414:	00c12223          	sw	a2,4(sp)
   20418:	00812e03          	lw	t3,8(sp)
   2041c:	800786e3          	beqz	a5,1fc28 <_vfiprintf_r+0x15c>
   20420:	800604e3          	beqz	a2,1fc28 <_vfiprintf_r+0x15c>
   20424:	00064703          	lbu	a4,0(a2)
   20428:	800700e3          	beqz	a4,1fc28 <_vfiprintf_r+0x15c>
   2042c:	400e6e13          	ori	t3,t3,1024
   20430:	ff8ff06f          	j	1fc28 <_vfiprintf_r+0x15c>
   20434:	000c4683          	lbu	a3,0(s8)
   20438:	001e6e13          	ori	t3,t3,1
   2043c:	fecff06f          	j	1fc28 <_vfiprintf_r+0x15c>
   20440:	03b14703          	lbu	a4,59(sp)
   20444:	000c4683          	lbu	a3,0(s8)
   20448:	fe071063          	bnez	a4,1fc28 <_vfiprintf_r+0x15c>
   2044c:	02000713          	li	a4,32
   20450:	02e10da3          	sb	a4,59(sp)
   20454:	fd4ff06f          	j	1fc28 <_vfiprintf_r+0x15c>
   20458:	000c4683          	lbu	a3,0(s8)
   2045c:	080e6e13          	ori	t3,t3,128
   20460:	fc8ff06f          	j	1fc28 <_vfiprintf_r+0x15c>
   20464:	000c4683          	lbu	a3,0(s8)
   20468:	02a00713          	li	a4,42
   2046c:	001c0593          	addi	a1,s8,1
   20470:	28e686e3          	beq	a3,a4,20efc <_vfiprintf_r+0x1430>
   20474:	00900513          	li	a0,9
   20478:	fd068713          	addi	a4,a3,-48
   2047c:	00000c93          	li	s9,0
   20480:	02e56463          	bltu	a0,a4,204a8 <_vfiprintf_r+0x9dc>
   20484:	002c9613          	slli	a2,s9,0x2
   20488:	0005c683          	lbu	a3,0(a1)
   2048c:	01960cb3          	add	s9,a2,s9
   20490:	001c9c93          	slli	s9,s9,0x1
   20494:	00ec8cb3          	add	s9,s9,a4
   20498:	fd068713          	addi	a4,a3,-48
   2049c:	00158593          	addi	a1,a1,1
   204a0:	fee572e3          	bgeu	a0,a4,20484 <_vfiprintf_r+0x9b8>
   204a4:	620cc463          	bltz	s9,20acc <_vfiprintf_r+0x1000>
   204a8:	00058c13          	mv	s8,a1
   204ac:	f80ff06f          	j	1fc2c <_vfiprintf_r+0x160>
   204b0:	02b00713          	li	a4,43
   204b4:	000c4683          	lbu	a3,0(s8)
   204b8:	02e10da3          	sb	a4,59(sp)
   204bc:	f6cff06f          	j	1fc28 <_vfiprintf_r+0x15c>
   204c0:	00008737          	lui	a4,0x8
   204c4:	83070713          	addi	a4,a4,-2000 # 7830 <_start-0x87d0>
   204c8:	02e11e23          	sh	a4,60(sp)
   204cc:	02010da3          	sb	zero,59(sp)
   204d0:	000d2703          	lw	a4,0(s10)
   204d4:	000b0313          	mv	t1,s6
   204d8:	000d8793          	mv	a5,s11
   204dc:	004d0693          	addi	a3,s10,4
   204e0:	00000613          	li	a2,0
   204e4:	5a0cc463          	bltz	s9,20a8c <_vfiprintf_r+0xfc0>
   204e8:	f7fe7e13          	andi	t3,t3,-129
   204ec:	002e6e13          	ori	t3,t3,2
   204f0:	00070ce3          	beqz	a4,20d08 <_vfiprintf_r+0x123c>
   204f4:	00021537          	lui	a0,0x21
   204f8:	1e450813          	addi	a6,a0,484 # 211e4 <_getpid_r+0xac>
   204fc:	00f77593          	andi	a1,a4,15
   20500:	010585b3          	add	a1,a1,a6
   20504:	00068d13          	mv	s10,a3
   20508:	0005c683          	lbu	a3,0(a1)
   2050c:	1e450513          	addi	a0,a0,484
   20510:	00200b93          	li	s7,2
   20514:	01c61593          	slli	a1,a2,0x1c
   20518:	00475713          	srli	a4,a4,0x4
   2051c:	00e5e733          	or	a4,a1,a4
   20520:	00465613          	srli	a2,a2,0x4
   20524:	0ed107a3          	sb	a3,239(sp)
   20528:	00c766b3          	or	a3,a4,a2
   2052c:	1e0686e3          	beqz	a3,20f18 <_vfiprintf_r+0x144c>
   20530:	0ef10813          	addi	a6,sp,239
   20534:	00f77693          	andi	a3,a4,15
   20538:	00d506b3          	add	a3,a0,a3
   2053c:	0006c683          	lbu	a3,0(a3)
   20540:	01c61593          	slli	a1,a2,0x1c
   20544:	00475713          	srli	a4,a4,0x4
   20548:	00e5e733          	or	a4,a1,a4
   2054c:	00465613          	srli	a2,a2,0x4
   20550:	fed80fa3          	sb	a3,-1(a6)
   20554:	00c766b3          	or	a3,a4,a2
   20558:	fff80813          	addi	a6,a6,-1
   2055c:	fc069ce3          	bnez	a3,20534 <_vfiprintf_r+0xa68>
   20560:	0f010713          	addi	a4,sp,240
   20564:	41070db3          	sub	s11,a4,a6
   20568:	000c8713          	mv	a4,s9
   2056c:	01bcd463          	bge	s9,s11,20574 <_vfiprintf_r+0xaa8>
   20570:	000d8713          	mv	a4,s11
   20574:	1a0b86e3          	beqz	s7,20f20 <_vfiprintf_r+0x1454>
   20578:	04812583          	lw	a1,72(sp)
   2057c:	04412603          	lw	a2,68(sp)
   20580:	084e7f13          	andi	t5,t3,132
   20584:	00270b93          	addi	s7,a4,2
   20588:	00058693          	mv	a3,a1
   2058c:	00060713          	mv	a4,a2
   20590:	f60f1863          	bnez	t5,1fd00 <_vfiprintf_r+0x234>
   20594:	41730b33          	sub	s6,t1,s7
   20598:	f7605463          	blez	s6,1fd00 <_vfiprintf_r+0x234>
   2059c:	00200e93          	li	t4,2
   205a0:	3600006f          	j	20900 <_vfiprintf_r+0xe34>
   205a4:	020e7713          	andi	a4,t3,32
   205a8:	000b0313          	mv	t1,s6
   205ac:	000d8793          	mv	a5,s11
   205b0:	48071c63          	bnez	a4,20a48 <_vfiprintf_r+0xf7c>
   205b4:	010e7693          	andi	a3,t3,16
   205b8:	000d2703          	lw	a4,0(s10)
   205bc:	004d0613          	addi	a2,s10,4
   205c0:	48069863          	bnez	a3,20a50 <_vfiprintf_r+0xf84>
   205c4:	040e7693          	andi	a3,t3,64
   205c8:	76068463          	beqz	a3,20d30 <_vfiprintf_r+0x1264>
   205cc:	01071713          	slli	a4,a4,0x10
   205d0:	01075713          	srli	a4,a4,0x10
   205d4:	00060d13          	mv	s10,a2
   205d8:	000e0b93          	mv	s7,t3
   205dc:	00000693          	li	a3,0
   205e0:	cb5ff06f          	j	20294 <_vfiprintf_r+0x7c8>
   205e4:	020e7713          	andi	a4,t3,32
   205e8:	000d8793          	mv	a5,s11
   205ec:	44071263          	bnez	a4,20a30 <_vfiprintf_r+0xf64>
   205f0:	010e7713          	andi	a4,t3,16
   205f4:	6e071263          	bnez	a4,20cd8 <_vfiprintf_r+0x120c>
   205f8:	040e7713          	andi	a4,t3,64
   205fc:	0a0710e3          	bnez	a4,20e9c <_vfiprintf_r+0x13d0>
   20600:	200e7e13          	andi	t3,t3,512
   20604:	6c0e0a63          	beqz	t3,20cd8 <_vfiprintf_r+0x120c>
   20608:	000d2703          	lw	a4,0(s10)
   2060c:	004d0d13          	addi	s10,s10,4
   20610:	01370023          	sb	s3,0(a4)
   20614:	d98ff06f          	j	1fbac <_vfiprintf_r+0xe0>
   20618:	000c4683          	lbu	a3,0(s8)
   2061c:	06c00713          	li	a4,108
   20620:	6ae68463          	beq	a3,a4,20cc8 <_vfiprintf_r+0x11fc>
   20624:	010e6e13          	ori	t3,t3,16
   20628:	e00ff06f          	j	1fc28 <_vfiprintf_r+0x15c>
   2062c:	41730b33          	sub	s6,t1,s7
   20630:	f1605063          	blez	s6,1fd30 <_vfiprintf_r+0x264>
   20634:	00022eb7          	lui	t4,0x22
   20638:	01000f13          	li	t5,16
   2063c:	900e8e93          	addi	t4,t4,-1792 # 21900 <zeroes.0>
   20640:	096f5a63          	bge	t5,s6,206d4 <_vfiprintf_r+0xc08>
   20644:	01712623          	sw	s7,12(sp)
   20648:	000f0293          	mv	t0,t5
   2064c:	00700f93          	li	t6,7
   20650:	00612423          	sw	t1,8(sp)
   20654:	01012823          	sw	a6,16(sp)
   20658:	01c12e23          	sw	t3,28(sp)
   2065c:	000e8b93          	mv	s7,t4
   20660:	00c0006f          	j	2066c <_vfiprintf_r+0xba0>
   20664:	ff0b0b13          	addi	s6,s6,-16
   20668:	0562dc63          	bge	t0,s6,206c0 <_vfiprintf_r+0xbf4>
   2066c:	01068693          	addi	a3,a3,16
   20670:	00170713          	addi	a4,a4,1
   20674:	0177a023          	sw	s7,0(a5)
   20678:	01e7a223          	sw	t5,4(a5)
   2067c:	04d12423          	sw	a3,72(sp)
   20680:	04e12223          	sw	a4,68(sp)
   20684:	00878793          	addi	a5,a5,8
   20688:	fcefdee3          	bge	t6,a4,20664 <_vfiprintf_r+0xb98>
   2068c:	00012583          	lw	a1,0(sp)
   20690:	04010613          	addi	a2,sp,64
   20694:	000a0513          	mv	a0,s4
   20698:	a84fa0ef          	jal	1a91c <__sprint_r>
   2069c:	ee051c63          	bnez	a0,1fd94 <_vfiprintf_r+0x2c8>
   206a0:	01000293          	li	t0,16
   206a4:	ff0b0b13          	addi	s6,s6,-16
   206a8:	04812683          	lw	a3,72(sp)
   206ac:	04412703          	lw	a4,68(sp)
   206b0:	000a8793          	mv	a5,s5
   206b4:	00700f93          	li	t6,7
   206b8:	00028f13          	mv	t5,t0
   206bc:	fb62c8e3          	blt	t0,s6,2066c <_vfiprintf_r+0xba0>
   206c0:	000b8e93          	mv	t4,s7
   206c4:	00812303          	lw	t1,8(sp)
   206c8:	01012803          	lw	a6,16(sp)
   206cc:	01c12e03          	lw	t3,28(sp)
   206d0:	00c12b83          	lw	s7,12(sp)
   206d4:	016686b3          	add	a3,a3,s6
   206d8:	00170713          	addi	a4,a4,1
   206dc:	01d7a023          	sw	t4,0(a5)
   206e0:	0167a223          	sw	s6,4(a5)
   206e4:	04d12423          	sw	a3,72(sp)
   206e8:	04e12223          	sw	a4,68(sp)
   206ec:	00700613          	li	a2,7
   206f0:	00878793          	addi	a5,a5,8
   206f4:	e2e65e63          	bge	a2,a4,1fd30 <_vfiprintf_r+0x264>
   206f8:	00012583          	lw	a1,0(sp)
   206fc:	04010613          	addi	a2,sp,64
   20700:	000a0513          	mv	a0,s4
   20704:	01c12823          	sw	t3,16(sp)
   20708:	01012623          	sw	a6,12(sp)
   2070c:	00612423          	sw	t1,8(sp)
   20710:	a0cfa0ef          	jal	1a91c <__sprint_r>
   20714:	e8051063          	bnez	a0,1fd94 <_vfiprintf_r+0x2c8>
   20718:	41bc8cb3          	sub	s9,s9,s11
   2071c:	04812683          	lw	a3,72(sp)
   20720:	04412703          	lw	a4,68(sp)
   20724:	01012e03          	lw	t3,16(sp)
   20728:	00c12803          	lw	a6,12(sp)
   2072c:	00812303          	lw	t1,8(sp)
   20730:	000a8793          	mv	a5,s5
   20734:	e1905263          	blez	s9,1fd38 <_vfiprintf_r+0x26c>
   20738:	00022eb7          	lui	t4,0x22
   2073c:	900e8e93          	addi	t4,t4,-1792 # 21900 <zeroes.0>
   20740:	0994d863          	bge	s1,s9,207d0 <_vfiprintf_r+0xd04>
   20744:	01712623          	sw	s7,12(sp)
   20748:	000c8b13          	mv	s6,s9
   2074c:	00612423          	sw	t1,8(sp)
   20750:	000c0c93          	mv	s9,s8
   20754:	01012823          	sw	a6,16(sp)
   20758:	000e0c13          	mv	s8,t3
   2075c:	000e8b93          	mv	s7,t4
   20760:	00c0006f          	j	2076c <_vfiprintf_r+0xca0>
   20764:	ff0b0b13          	addi	s6,s6,-16
   20768:	0564d663          	bge	s1,s6,207b4 <_vfiprintf_r+0xce8>
   2076c:	01068693          	addi	a3,a3,16
   20770:	00170713          	addi	a4,a4,1
   20774:	0177a023          	sw	s7,0(a5)
   20778:	0097a223          	sw	s1,4(a5)
   2077c:	04d12423          	sw	a3,72(sp)
   20780:	04e12223          	sw	a4,68(sp)
   20784:	00878793          	addi	a5,a5,8
   20788:	fce95ee3          	bge	s2,a4,20764 <_vfiprintf_r+0xc98>
   2078c:	00012583          	lw	a1,0(sp)
   20790:	04010613          	addi	a2,sp,64
   20794:	000a0513          	mv	a0,s4
   20798:	984fa0ef          	jal	1a91c <__sprint_r>
   2079c:	de051c63          	bnez	a0,1fd94 <_vfiprintf_r+0x2c8>
   207a0:	ff0b0b13          	addi	s6,s6,-16
   207a4:	04812683          	lw	a3,72(sp)
   207a8:	04412703          	lw	a4,68(sp)
   207ac:	000a8793          	mv	a5,s5
   207b0:	fb64cee3          	blt	s1,s6,2076c <_vfiprintf_r+0xca0>
   207b4:	000b8e93          	mv	t4,s7
   207b8:	00812303          	lw	t1,8(sp)
   207bc:	01012803          	lw	a6,16(sp)
   207c0:	00c12b83          	lw	s7,12(sp)
   207c4:	000c0e13          	mv	t3,s8
   207c8:	000c8c13          	mv	s8,s9
   207cc:	000b0c93          	mv	s9,s6
   207d0:	019686b3          	add	a3,a3,s9
   207d4:	00170713          	addi	a4,a4,1
   207d8:	01d7a023          	sw	t4,0(a5)
   207dc:	0197a223          	sw	s9,4(a5)
   207e0:	04d12423          	sw	a3,72(sp)
   207e4:	04e12223          	sw	a4,68(sp)
   207e8:	00878793          	addi	a5,a5,8
   207ec:	d4e95663          	bge	s2,a4,1fd38 <_vfiprintf_r+0x26c>
   207f0:	00012583          	lw	a1,0(sp)
   207f4:	04010613          	addi	a2,sp,64
   207f8:	000a0513          	mv	a0,s4
   207fc:	01c12823          	sw	t3,16(sp)
   20800:	01012623          	sw	a6,12(sp)
   20804:	00612423          	sw	t1,8(sp)
   20808:	914fa0ef          	jal	1a91c <__sprint_r>
   2080c:	d8051463          	bnez	a0,1fd94 <_vfiprintf_r+0x2c8>
   20810:	04812683          	lw	a3,72(sp)
   20814:	04412703          	lw	a4,68(sp)
   20818:	00c12803          	lw	a6,12(sp)
   2081c:	000a8793          	mv	a5,s5
   20820:	00dd86b3          	add	a3,s11,a3
   20824:	00170713          	addi	a4,a4,1
   20828:	0107a023          	sw	a6,0(a5)
   2082c:	01b7a223          	sw	s11,4(a5)
   20830:	04d12423          	sw	a3,72(sp)
   20834:	04e12223          	sw	a4,68(sp)
   20838:	01012e03          	lw	t3,16(sp)
   2083c:	00812303          	lw	t1,8(sp)
   20840:	00878793          	addi	a5,a5,8
   20844:	d0e95a63          	bge	s2,a4,1fd58 <_vfiprintf_r+0x28c>
   20848:	00012583          	lw	a1,0(sp)
   2084c:	04010613          	addi	a2,sp,64
   20850:	000a0513          	mv	a0,s4
   20854:	01c12623          	sw	t3,12(sp)
   20858:	00612423          	sw	t1,8(sp)
   2085c:	8c0fa0ef          	jal	1a91c <__sprint_r>
   20860:	d2051a63          	bnez	a0,1fd94 <_vfiprintf_r+0x2c8>
   20864:	04812683          	lw	a3,72(sp)
   20868:	00c12e03          	lw	t3,12(sp)
   2086c:	00812303          	lw	t1,8(sp)
   20870:	000a8793          	mv	a5,s5
   20874:	ce4ff06f          	j	1fd58 <_vfiprintf_r+0x28c>
   20878:	00012583          	lw	a1,0(sp)
   2087c:	04010613          	addi	a2,sp,64
   20880:	000a0513          	mv	a0,s4
   20884:	898fa0ef          	jal	1a91c <__sprint_r>
   20888:	ce050863          	beqz	a0,1fd78 <_vfiprintf_r+0x2ac>
   2088c:	d08ff06f          	j	1fd94 <_vfiprintf_r+0x2c8>
   20890:	00012583          	lw	a1,0(sp)
   20894:	04010613          	addi	a2,sp,64
   20898:	000a0513          	mv	a0,s4
   2089c:	01c12e23          	sw	t3,28(sp)
   208a0:	01012823          	sw	a6,16(sp)
   208a4:	01e12623          	sw	t5,12(sp)
   208a8:	00612423          	sw	t1,8(sp)
   208ac:	870fa0ef          	jal	1a91c <__sprint_r>
   208b0:	ce051263          	bnez	a0,1fd94 <_vfiprintf_r+0x2c8>
   208b4:	04812683          	lw	a3,72(sp)
   208b8:	04412703          	lw	a4,68(sp)
   208bc:	01c12e03          	lw	t3,28(sp)
   208c0:	01012803          	lw	a6,16(sp)
   208c4:	00c12f03          	lw	t5,12(sp)
   208c8:	00812303          	lw	t1,8(sp)
   208cc:	000a8793          	mv	a5,s5
   208d0:	c58ff06f          	j	1fd28 <_vfiprintf_r+0x25c>
   208d4:	01271693          	slli	a3,a4,0x12
   208d8:	6006c663          	bltz	a3,20ee4 <_vfiprintf_r+0x1418>
   208dc:	12812423          	sw	s0,296(sp)
   208e0:	a60ff06f          	j	1fb40 <_vfiprintf_r+0x74>
   208e4:	0f010713          	addi	a4,sp,240
   208e8:	41070db3          	sub	s11,a4,a6
   208ec:	000c8b93          	mv	s7,s9
   208f0:	bbbcda63          	bge	s9,s11,1fca4 <_vfiprintf_r+0x1d8>
   208f4:	000d8b93          	mv	s7,s11
   208f8:	bacff06f          	j	1fca4 <_vfiprintf_r+0x1d8>
   208fc:	00000e93          	li	t4,0
   20900:	00022f37          	lui	t5,0x22
   20904:	01000f93          	li	t6,16
   20908:	00058693          	mv	a3,a1
   2090c:	00060713          	mv	a4,a2
   20910:	910f0f13          	addi	t5,t5,-1776 # 21910 <blanks.1>
   20914:	096fde63          	bge	t6,s6,209b0 <_vfiprintf_r+0xee4>
   20918:	01712623          	sw	s7,12(sp)
   2091c:	000f8393          	mv	t2,t6
   20920:	00700293          	li	t0,7
   20924:	00612423          	sw	t1,8(sp)
   20928:	01d12823          	sw	t4,16(sp)
   2092c:	01012e23          	sw	a6,28(sp)
   20930:	03c12023          	sw	t3,32(sp)
   20934:	000f0b93          	mv	s7,t5
   20938:	00c0006f          	j	20944 <_vfiprintf_r+0xe78>
   2093c:	ff0b0b13          	addi	s6,s6,-16
   20940:	0563dc63          	bge	t2,s6,20998 <_vfiprintf_r+0xecc>
   20944:	01068693          	addi	a3,a3,16
   20948:	00170713          	addi	a4,a4,1
   2094c:	0177a023          	sw	s7,0(a5)
   20950:	01f7a223          	sw	t6,4(a5)
   20954:	04d12423          	sw	a3,72(sp)
   20958:	04e12223          	sw	a4,68(sp)
   2095c:	00878793          	addi	a5,a5,8
   20960:	fce2dee3          	bge	t0,a4,2093c <_vfiprintf_r+0xe70>
   20964:	00012583          	lw	a1,0(sp)
   20968:	04010613          	addi	a2,sp,64
   2096c:	000a0513          	mv	a0,s4
   20970:	fadf90ef          	jal	1a91c <__sprint_r>
   20974:	c2051063          	bnez	a0,1fd94 <_vfiprintf_r+0x2c8>
   20978:	01000393          	li	t2,16
   2097c:	ff0b0b13          	addi	s6,s6,-16
   20980:	04812683          	lw	a3,72(sp)
   20984:	04412703          	lw	a4,68(sp)
   20988:	000a8793          	mv	a5,s5
   2098c:	00700293          	li	t0,7
   20990:	00038f93          	mv	t6,t2
   20994:	fb63c8e3          	blt	t2,s6,20944 <_vfiprintf_r+0xe78>
   20998:	000b8f13          	mv	t5,s7
   2099c:	00812303          	lw	t1,8(sp)
   209a0:	01012e83          	lw	t4,16(sp)
   209a4:	01c12803          	lw	a6,28(sp)
   209a8:	02012e03          	lw	t3,32(sp)
   209ac:	00c12b83          	lw	s7,12(sp)
   209b0:	00db06b3          	add	a3,s6,a3
   209b4:	00170713          	addi	a4,a4,1
   209b8:	04d12423          	sw	a3,72(sp)
   209bc:	04e12223          	sw	a4,68(sp)
   209c0:	01e7a023          	sw	t5,0(a5)
   209c4:	0167a223          	sw	s6,4(a5)
   209c8:	00700613          	li	a2,7
   209cc:	26e64063          	blt	a2,a4,20c2c <_vfiprintf_r+0x1160>
   209d0:	03b14603          	lbu	a2,59(sp)
   209d4:	00878793          	addi	a5,a5,8
   209d8:	02061e63          	bnez	a2,20a14 <_vfiprintf_r+0xf48>
   209dc:	b40e8a63          	beqz	t4,1fd30 <_vfiprintf_r+0x264>
   209e0:	00000f13          	li	t5,0
   209e4:	b1cff06f          	j	1fd00 <_vfiprintf_r+0x234>
   209e8:	00100d93          	li	s11,1
   209ec:	0ef10813          	addi	a6,sp,239
   209f0:	ab4ff06f          	j	1fca4 <_vfiprintf_r+0x1d8>
   209f4:	8a0c9ce3          	bnez	s9,202ac <_vfiprintf_r+0x7e0>
   209f8:	001bfb93          	andi	s7,s7,1
   209fc:	220b8263          	beqz	s7,20c20 <_vfiprintf_r+0x1154>
   20a00:	03000713          	li	a4,48
   20a04:	0ee107a3          	sb	a4,239(sp)
   20a08:	000b8d93          	mv	s11,s7
   20a0c:	0ef10813          	addi	a6,sp,239
   20a10:	a94ff06f          	j	1fca4 <_vfiprintf_r+0x1d8>
   20a14:	00000f13          	li	t5,0
   20a18:	abcff06f          	j	1fcd4 <_vfiprintf_r+0x208>
   20a1c:	000d2d83          	lw	s11,0(s10)
   20a20:	00060d13          	mv	s10,a2
   20a24:	41fdde93          	srai	t4,s11,0x1f
   20a28:	000e8693          	mv	a3,t4
   20a2c:	dc4ff06f          	j	1fff0 <_vfiprintf_r+0x524>
   20a30:	000d2703          	lw	a4,0(s10)
   20a34:	41f9d693          	srai	a3,s3,0x1f
   20a38:	004d0d13          	addi	s10,s10,4
   20a3c:	01372023          	sw	s3,0(a4)
   20a40:	00d72223          	sw	a3,4(a4)
   20a44:	968ff06f          	j	1fbac <_vfiprintf_r+0xe0>
   20a48:	000e0b93          	mv	s7,t3
   20a4c:	835ff06f          	j	20280 <_vfiprintf_r+0x7b4>
   20a50:	000e0b93          	mv	s7,t3
   20a54:	000d2703          	lw	a4,0(s10)
   20a58:	00000693          	li	a3,0
   20a5c:	00060d13          	mv	s10,a2
   20a60:	835ff06f          	j	20294 <_vfiprintf_r+0x7c8>
   20a64:	02010da3          	sb	zero,59(sp)
   20a68:	000d2d83          	lw	s11,0(s10)
   20a6c:	00000e93          	li	t4,0
   20a70:	8e0ccee3          	bltz	s9,2036c <_vfiprintf_r+0x8a0>
   20a74:	f7fe7e13          	andi	t3,t3,-129
   20a78:	00060d13          	mv	s10,a2
   20a7c:	d80d9663          	bnez	s11,20008 <_vfiprintf_r+0x53c>
   20a80:	920c8ee3          	beqz	s9,203bc <_vfiprintf_r+0x8f0>
   20a84:	00000d93          	li	s11,0
   20a88:	d88ff06f          	j	20010 <_vfiprintf_r+0x544>
   20a8c:	00021537          	lui	a0,0x21
   20a90:	00f77593          	andi	a1,a4,15
   20a94:	1e450613          	addi	a2,a0,484 # 211e4 <_getpid_r+0xac>
   20a98:	00b60633          	add	a2,a2,a1
   20a9c:	00064603          	lbu	a2,0(a2)
   20aa0:	00475713          	srli	a4,a4,0x4
   20aa4:	002e6e13          	ori	t3,t3,2
   20aa8:	0ec107a3          	sb	a2,239(sp)
   20aac:	00000613          	li	a2,0
   20ab0:	46070c63          	beqz	a4,20f28 <_vfiprintf_r+0x145c>
   20ab4:	00068d13          	mv	s10,a3
   20ab8:	1e450513          	addi	a0,a0,484
   20abc:	00200b93          	li	s7,2
   20ac0:	a71ff06f          	j	20530 <_vfiprintf_r+0xa64>
   20ac4:	000d8b93          	mv	s7,s11
   20ac8:	83dff06f          	j	20304 <_vfiprintf_r+0x838>
   20acc:	fff00c93          	li	s9,-1
   20ad0:	00058c13          	mv	s8,a1
   20ad4:	958ff06f          	j	1fc2c <_vfiprintf_r+0x160>
   20ad8:	340c8c63          	beqz	s9,20e30 <_vfiprintf_r+0x1364>
   20adc:	03000713          	li	a4,48
   20ae0:	d38ff06f          	j	20018 <_vfiprintf_r+0x54c>
   20ae4:	00021537          	lui	a0,0x21
   20ae8:	020e7713          	andi	a4,t3,32
   20aec:	000b0313          	mv	t1,s6
   20af0:	000d8793          	mv	a5,s11
   20af4:	1f850513          	addi	a0,a0,504 # 211f8 <_getpid_r+0xc0>
   20af8:	06070463          	beqz	a4,20b60 <_vfiprintf_r+0x1094>
   20afc:	007d0613          	addi	a2,s10,7
   20b00:	ff867613          	andi	a2,a2,-8
   20b04:	00062703          	lw	a4,0(a2)
   20b08:	00860d13          	addi	s10,a2,8
   20b0c:	00462603          	lw	a2,4(a2)
   20b10:	001e7b93          	andi	s7,t3,1
   20b14:	0a0b8863          	beqz	s7,20bc4 <_vfiprintf_r+0x10f8>
   20b18:	00c765b3          	or	a1,a4,a2
   20b1c:	16059263          	bnez	a1,20c80 <_vfiprintf_r+0x11b4>
   20b20:	02010da3          	sb	zero,59(sp)
   20b24:	2e0cc263          	bltz	s9,20e08 <_vfiprintf_r+0x133c>
   20b28:	b7fe7e13          	andi	t3,t3,-1153
   20b2c:	880c86e3          	beqz	s9,203b8 <_vfiprintf_r+0x8ec>
   20b30:	00054703          	lbu	a4,0(a0)
   20b34:	000b8d93          	mv	s11,s7
   20b38:	0ef10813          	addi	a6,sp,239
   20b3c:	0ee107a3          	sb	a4,239(sp)
   20b40:	000c8b93          	mv	s7,s9
   20b44:	fc4ff06f          	j	20308 <_vfiprintf_r+0x83c>
   20b48:	00021537          	lui	a0,0x21
   20b4c:	020e7713          	andi	a4,t3,32
   20b50:	000b0313          	mv	t1,s6
   20b54:	000d8793          	mv	a5,s11
   20b58:	1e450513          	addi	a0,a0,484 # 211e4 <_getpid_r+0xac>
   20b5c:	fa0710e3          	bnez	a4,20afc <_vfiprintf_r+0x1030>
   20b60:	010e7613          	andi	a2,t3,16
   20b64:	000d2703          	lw	a4,0(s10)
   20b68:	004d0d13          	addi	s10,s10,4
   20b6c:	08061863          	bnez	a2,20bfc <_vfiprintf_r+0x1130>
   20b70:	040e7613          	andi	a2,t3,64
   20b74:	08060063          	beqz	a2,20bf4 <_vfiprintf_r+0x1128>
   20b78:	01071713          	slli	a4,a4,0x10
   20b7c:	01075713          	srli	a4,a4,0x10
   20b80:	00000613          	li	a2,0
   20b84:	f8dff06f          	j	20b10 <_vfiprintf_r+0x1044>
   20b88:	00080513          	mv	a0,a6
   20b8c:	01012423          	sw	a6,8(sp)
   20b90:	c61f50ef          	jal	167f0 <strlen>
   20b94:	03b14703          	lbu	a4,59(sp)
   20b98:	fff54b93          	not	s7,a0
   20b9c:	41fbdb93          	srai	s7,s7,0x1f
   20ba0:	00812803          	lw	a6,8(sp)
   20ba4:	00c12303          	lw	t1,12(sp)
   20ba8:	01012e03          	lw	t3,16(sp)
   20bac:	01c12783          	lw	a5,28(sp)
   20bb0:	00050d93          	mv	s11,a0
   20bb4:	01757bb3          	and	s7,a0,s7
   20bb8:	d0071663          	bnez	a4,200c4 <_vfiprintf_r+0x5f8>
   20bbc:	00000c93          	li	s9,0
   20bc0:	8e4ff06f          	j	1fca4 <_vfiprintf_r+0x1d8>
   20bc4:	02010da3          	sb	zero,59(sp)
   20bc8:	040cc063          	bltz	s9,20c08 <_vfiprintf_r+0x113c>
   20bcc:	00c766b3          	or	a3,a4,a2
   20bd0:	b7fe7e13          	andi	t3,t3,-1153
   20bd4:	0c069663          	bnez	a3,20ca0 <_vfiprintf_r+0x11d4>
   20bd8:	220c8263          	beqz	s9,20dfc <_vfiprintf_r+0x1330>
   20bdc:	00054703          	lbu	a4,0(a0)
   20be0:	000c8b93          	mv	s7,s9
   20be4:	00100d93          	li	s11,1
   20be8:	0ee107a3          	sb	a4,239(sp)
   20bec:	0ef10813          	addi	a6,sp,239
   20bf0:	f18ff06f          	j	20308 <_vfiprintf_r+0x83c>
   20bf4:	200e7613          	andi	a2,t3,512
   20bf8:	2a061a63          	bnez	a2,20eac <_vfiprintf_r+0x13e0>
   20bfc:	00000613          	li	a2,0
   20c00:	f11ff06f          	j	20b10 <_vfiprintf_r+0x1044>
   20c04:	002e6e13          	ori	t3,t3,2
   20c08:	00f77693          	andi	a3,a4,15
   20c0c:	00d506b3          	add	a3,a0,a3
   20c10:	002e7b93          	andi	s7,t3,2
   20c14:	0006c683          	lbu	a3,0(a3)
   20c18:	bffe7e13          	andi	t3,t3,-1025
   20c1c:	8f9ff06f          	j	20514 <_vfiprintf_r+0xa48>
   20c20:	00000d93          	li	s11,0
   20c24:	0f010813          	addi	a6,sp,240
   20c28:	87cff06f          	j	1fca4 <_vfiprintf_r+0x1d8>
   20c2c:	00012583          	lw	a1,0(sp)
   20c30:	04010613          	addi	a2,sp,64
   20c34:	000a0513          	mv	a0,s4
   20c38:	01c12e23          	sw	t3,28(sp)
   20c3c:	01012823          	sw	a6,16(sp)
   20c40:	01d12623          	sw	t4,12(sp)
   20c44:	00612423          	sw	t1,8(sp)
   20c48:	cd5f90ef          	jal	1a91c <__sprint_r>
   20c4c:	00050f13          	mv	t5,a0
   20c50:	94051263          	bnez	a0,1fd94 <_vfiprintf_r+0x2c8>
   20c54:	03b14783          	lbu	a5,59(sp)
   20c58:	04812683          	lw	a3,72(sp)
   20c5c:	04412703          	lw	a4,68(sp)
   20c60:	00812303          	lw	t1,8(sp)
   20c64:	00c12e83          	lw	t4,12(sp)
   20c68:	01012803          	lw	a6,16(sp)
   20c6c:	01c12e03          	lw	t3,28(sp)
   20c70:	0a079c63          	bnez	a5,20d28 <_vfiprintf_r+0x125c>
   20c74:	000a8793          	mv	a5,s5
   20c78:	880e9463          	bnez	t4,1fd00 <_vfiprintf_r+0x234>
   20c7c:	8b4ff06f          	j	1fd30 <_vfiprintf_r+0x264>
   20c80:	03000593          	li	a1,48
   20c84:	02d10ea3          	sb	a3,61(sp)
   20c88:	02010da3          	sb	zero,59(sp)
   20c8c:	02b10e23          	sb	a1,60(sp)
   20c90:	f60ccae3          	bltz	s9,20c04 <_vfiprintf_r+0x1138>
   20c94:	b7fe7e13          	andi	t3,t3,-1153
   20c98:	002e6e13          	ori	t3,t3,2
   20c9c:	00200b93          	li	s7,2
   20ca0:	00f77693          	andi	a3,a4,15
   20ca4:	00d506b3          	add	a3,a0,a3
   20ca8:	0006c683          	lbu	a3,0(a3)
   20cac:	869ff06f          	j	20514 <_vfiprintf_r+0xa48>
   20cb0:	da8f50ef          	jal	16258 <__sinit>
   20cb4:	e51fe06f          	j	1fb04 <_vfiprintf_r+0x38>
   20cb8:	001c4683          	lbu	a3,1(s8)
   20cbc:	200e6e13          	ori	t3,t3,512
   20cc0:	001c0c13          	addi	s8,s8,1
   20cc4:	f65fe06f          	j	1fc28 <_vfiprintf_r+0x15c>
   20cc8:	001c4683          	lbu	a3,1(s8)
   20ccc:	020e6e13          	ori	t3,t3,32
   20cd0:	001c0c13          	addi	s8,s8,1
   20cd4:	f55fe06f          	j	1fc28 <_vfiprintf_r+0x15c>
   20cd8:	000d2703          	lw	a4,0(s10)
   20cdc:	004d0d13          	addi	s10,s10,4
   20ce0:	01372023          	sw	s3,0(a4)
   20ce4:	ec9fe06f          	j	1fbac <_vfiprintf_r+0xe0>
   20ce8:	00600713          	li	a4,6
   20cec:	000c8b93          	mv	s7,s9
   20cf0:	15976c63          	bltu	a4,s9,20e48 <_vfiprintf_r+0x137c>
   20cf4:	00021837          	lui	a6,0x21
   20cf8:	20c80813          	addi	a6,a6,524 # 2120c <_getpid_r+0xd4>
   20cfc:	000b8d93          	mv	s11,s7
   20d00:	00000c93          	li	s9,0
   20d04:	fa1fe06f          	j	1fca4 <_vfiprintf_r+0x1d8>
   20d08:	140c8463          	beqz	s9,20e50 <_vfiprintf_r+0x1384>
   20d0c:	03000713          	li	a4,48
   20d10:	0ee107a3          	sb	a4,239(sp)
   20d14:	00068d13          	mv	s10,a3
   20d18:	000c8713          	mv	a4,s9
   20d1c:	0ef10813          	addi	a6,sp,239
   20d20:	00100d93          	li	s11,1
   20d24:	855ff06f          	j	20578 <_vfiprintf_r+0xaac>
   20d28:	000a8793          	mv	a5,s5
   20d2c:	fa9fe06f          	j	1fcd4 <_vfiprintf_r+0x208>
   20d30:	200e7693          	andi	a3,t3,512
   20d34:	14068c63          	beqz	a3,20e8c <_vfiprintf_r+0x13c0>
   20d38:	0ff77713          	zext.b	a4,a4
   20d3c:	00060d13          	mv	s10,a2
   20d40:	000e0b93          	mv	s7,t3
   20d44:	00000693          	li	a3,0
   20d48:	d4cff06f          	j	20294 <_vfiprintf_r+0x7c8>
   20d4c:	200e7693          	andi	a3,t3,512
   20d50:	12068463          	beqz	a3,20e78 <_vfiprintf_r+0x13ac>
   20d54:	01871d93          	slli	s11,a4,0x18
   20d58:	418ddd93          	srai	s11,s11,0x18
   20d5c:	41fdde93          	srai	t4,s11,0x1f
   20d60:	00060d13          	mv	s10,a2
   20d64:	000e8693          	mv	a3,t4
   20d68:	a88ff06f          	j	1fff0 <_vfiprintf_r+0x524>
   20d6c:	200e7713          	andi	a4,t3,512
   20d70:	02010da3          	sb	zero,59(sp)
   20d74:	0e071863          	bnez	a4,20e64 <_vfiprintf_r+0x1398>
   20d78:	00068d93          	mv	s11,a3
   20d7c:	00000e93          	li	t4,0
   20d80:	de0cc663          	bltz	s9,2036c <_vfiprintf_r+0x8a0>
   20d84:	f7fe7e13          	andi	t3,t3,-129
   20d88:	00060d13          	mv	s10,a2
   20d8c:	a6069e63          	bnez	a3,20008 <_vfiprintf_r+0x53c>
   20d90:	ce0c9ae3          	bnez	s9,20a84 <_vfiprintf_r+0xfb8>
   20d94:	e24ff06f          	j	203b8 <_vfiprintf_r+0x8ec>
   20d98:	01412603          	lw	a2,20(sp)
   20d9c:	01812583          	lw	a1,24(sp)
   20da0:	00100b93          	li	s7,1
   20da4:	40cb09b3          	sub	s3,s6,a2
   20da8:	00098513          	mv	a0,s3
   20dac:	ed0fa0ef          	jal	1b47c <strncpy>
   20db0:	00412703          	lw	a4,4(sp)
   20db4:	000c0513          	mv	a0,s8
   20db8:	000c8593          	mv	a1,s9
   20dbc:	00174783          	lbu	a5,1(a4)
   20dc0:	00a00613          	li	a2,10
   20dc4:	00000693          	li	a3,0
   20dc8:	00f037b3          	snez	a5,a5
   20dcc:	00f707b3          	add	a5,a4,a5
   20dd0:	00f12223          	sw	a5,4(sp)
   20dd4:	de0ef0ef          	jal	103b4 <__udivdi3>
   20dd8:	00a00613          	li	a2,10
   20ddc:	00000693          	li	a3,0
   20de0:	00050c13          	mv	s8,a0
   20de4:	00058c93          	mv	s9,a1
   20de8:	b95ef0ef          	jal	1097c <__umoddi3>
   20dec:	03050793          	addi	a5,a0,48
   20df0:	fff98b13          	addi	s6,s3,-1
   20df4:	fef98fa3          	sb	a5,-1(s3)
   20df8:	bf8ff06f          	j	201f0 <_vfiprintf_r+0x724>
   20dfc:	00000d93          	li	s11,0
   20e00:	0f010813          	addi	a6,sp,240
   20e04:	d04ff06f          	j	20308 <_vfiprintf_r+0x83c>
   20e08:	00054703          	lbu	a4,0(a0)
   20e0c:	bffe7e13          	andi	t3,t3,-1025
   20e10:	000b8d93          	mv	s11,s7
   20e14:	0ee107a3          	sb	a4,239(sp)
   20e18:	0ef10813          	addi	a6,sp,239
   20e1c:	cecff06f          	j	20308 <_vfiprintf_r+0x83c>
   20e20:	00c12783          	lw	a5,12(sp)
   20e24:	00900693          	li	a3,9
   20e28:	b8f6ee63          	bltu	a3,a5,201c4 <_vfiprintf_r+0x6f8>
   20e2c:	be4ff06f          	j	20210 <_vfiprintf_r+0x744>
   20e30:	03b14703          	lbu	a4,59(sp)
   20e34:	00000d93          	li	s11,0
   20e38:	0f010813          	addi	a6,sp,240
   20e3c:	00100b93          	li	s7,1
   20e40:	9e071e63          	bnez	a4,2003c <_vfiprintf_r+0x570>
   20e44:	d78ff06f          	j	203bc <_vfiprintf_r+0x8f0>
   20e48:	00070b93          	mv	s7,a4
   20e4c:	ea9ff06f          	j	20cf4 <_vfiprintf_r+0x1228>
   20e50:	00068d13          	mv	s10,a3
   20e54:	00000d93          	li	s11,0
   20e58:	00000713          	li	a4,0
   20e5c:	0f010813          	addi	a6,sp,240
   20e60:	f18ff06f          	j	20578 <_vfiprintf_r+0xaac>
   20e64:	0ff6fd93          	zext.b	s11,a3
   20e68:	00000e93          	li	t4,0
   20e6c:	c00cd4e3          	bgez	s9,20a74 <_vfiprintf_r+0xfa8>
   20e70:	00060d13          	mv	s10,a2
   20e74:	994ff06f          	j	20008 <_vfiprintf_r+0x53c>
   20e78:	41f75e93          	srai	t4,a4,0x1f
   20e7c:	00070d93          	mv	s11,a4
   20e80:	00060d13          	mv	s10,a2
   20e84:	000e8693          	mv	a3,t4
   20e88:	968ff06f          	j	1fff0 <_vfiprintf_r+0x524>
   20e8c:	00060d13          	mv	s10,a2
   20e90:	000e0b93          	mv	s7,t3
   20e94:	00000693          	li	a3,0
   20e98:	bfcff06f          	j	20294 <_vfiprintf_r+0x7c8>
   20e9c:	000d2703          	lw	a4,0(s10)
   20ea0:	004d0d13          	addi	s10,s10,4
   20ea4:	01371023          	sh	s3,0(a4)
   20ea8:	d05fe06f          	j	1fbac <_vfiprintf_r+0xe0>
   20eac:	0ff77713          	zext.b	a4,a4
   20eb0:	00000613          	li	a2,0
   20eb4:	c5dff06f          	j	20b10 <_vfiprintf_r+0x1044>
   20eb8:	00012583          	lw	a1,0(sp)
   20ebc:	000a0513          	mv	a0,s4
   20ec0:	04010613          	addi	a2,sp,64
   20ec4:	a59f90ef          	jal	1a91c <__sprint_r>
   20ec8:	ecdfe06f          	j	1fd94 <_vfiprintf_r+0x2c8>
   20ecc:	02070063          	beqz	a4,20eec <_vfiprintf_r+0x1420>
   20ed0:	001c8b93          	addi	s7,s9,1
   20ed4:	000c8d93          	mv	s11,s9
   20ed8:	00000c93          	li	s9,0
   20edc:	960ff06f          	j	2003c <_vfiprintf_r+0x570>
   20ee0:	12812403          	lw	s0,296(sp)
   20ee4:	fff00993          	li	s3,-1
   20ee8:	ee1fe06f          	j	1fdc8 <_vfiprintf_r+0x2fc>
   20eec:	000c8d93          	mv	s11,s9
   20ef0:	000c8b93          	mv	s7,s9
   20ef4:	00000c93          	li	s9,0
   20ef8:	dadfe06f          	j	1fca4 <_vfiprintf_r+0x1d8>
   20efc:	000d2c83          	lw	s9,0(s10)
   20f00:	004d0d13          	addi	s10,s10,4
   20f04:	000cd463          	bgez	s9,20f0c <_vfiprintf_r+0x1440>
   20f08:	fff00c93          	li	s9,-1
   20f0c:	001c4683          	lbu	a3,1(s8)
   20f10:	00058c13          	mv	s8,a1
   20f14:	d15fe06f          	j	1fc28 <_vfiprintf_r+0x15c>
   20f18:	0ef10813          	addi	a6,sp,239
   20f1c:	e44ff06f          	j	20560 <_vfiprintf_r+0xa94>
   20f20:	00070b93          	mv	s7,a4
   20f24:	be4ff06f          	j	20308 <_vfiprintf_r+0x83c>
   20f28:	00100713          	li	a4,1
   20f2c:	00068d13          	mv	s10,a3
   20f30:	00070d93          	mv	s11,a4
   20f34:	0ef10813          	addi	a6,sp,239
   20f38:	e40ff06f          	j	20578 <_vfiprintf_r+0xaac>

00020f3c <__sbprintf>:
   20f3c:	00c5d783          	lhu	a5,12(a1)
   20f40:	0645ae83          	lw	t4,100(a1)
   20f44:	00e5de03          	lhu	t3,14(a1)
   20f48:	01c5a303          	lw	t1,28(a1)
   20f4c:	0245a883          	lw	a7,36(a1)
   20f50:	b8010113          	addi	sp,sp,-1152
   20f54:	07010813          	addi	a6,sp,112
   20f58:	40000713          	li	a4,1024
   20f5c:	46812c23          	sw	s0,1144(sp)
   20f60:	ffd7f793          	andi	a5,a5,-3
   20f64:	00058413          	mv	s0,a1
   20f68:	00810593          	addi	a1,sp,8
   20f6c:	46912a23          	sw	s1,1140(sp)
   20f70:	47212823          	sw	s2,1136(sp)
   20f74:	46112e23          	sw	ra,1148(sp)
   20f78:	02012023          	sw	zero,32(sp)
   20f7c:	00f11a23          	sh	a5,20(sp)
   20f80:	07d12623          	sw	t4,108(sp)
   20f84:	01c11b23          	sh	t3,22(sp)
   20f88:	02612223          	sw	t1,36(sp)
   20f8c:	03112623          	sw	a7,44(sp)
   20f90:	00050913          	mv	s2,a0
   20f94:	01012423          	sw	a6,8(sp)
   20f98:	01012c23          	sw	a6,24(sp)
   20f9c:	00e12823          	sw	a4,16(sp)
   20fa0:	00e12e23          	sw	a4,28(sp)
   20fa4:	b29fe0ef          	jal	1facc <_vfiprintf_r>
   20fa8:	00050493          	mv	s1,a0
   20fac:	02055c63          	bgez	a0,20fe4 <__sbprintf+0xa8>
   20fb0:	01415783          	lhu	a5,20(sp)
   20fb4:	0407f793          	andi	a5,a5,64
   20fb8:	00078863          	beqz	a5,20fc8 <__sbprintf+0x8c>
   20fbc:	00c45783          	lhu	a5,12(s0)
   20fc0:	0407e793          	ori	a5,a5,64
   20fc4:	00f41623          	sh	a5,12(s0)
   20fc8:	47c12083          	lw	ra,1148(sp)
   20fcc:	47812403          	lw	s0,1144(sp)
   20fd0:	47012903          	lw	s2,1136(sp)
   20fd4:	00048513          	mv	a0,s1
   20fd8:	47412483          	lw	s1,1140(sp)
   20fdc:	48010113          	addi	sp,sp,1152
   20fe0:	00008067          	ret
   20fe4:	00810593          	addi	a1,sp,8
   20fe8:	00090513          	mv	a0,s2
   20fec:	cddf90ef          	jal	1acc8 <_fflush_r>
   20ff0:	fc0500e3          	beqz	a0,20fb0 <__sbprintf+0x74>
   20ff4:	fff00493          	li	s1,-1
   20ff8:	fb9ff06f          	j	20fb0 <__sbprintf+0x74>

00020ffc <abort>:
   20ffc:	ff010113          	addi	sp,sp,-16
   21000:	00600513          	li	a0,6
   21004:	00112623          	sw	ra,12(sp)
   21008:	00c000ef          	jal	21014 <raise>
   2100c:	00100513          	li	a0,1
   21010:	948ef0ef          	jal	10158 <_exit>

00021014 <raise>:
   21014:	ff010113          	addi	sp,sp,-16
   21018:	00912223          	sw	s1,4(sp)
   2101c:	00112623          	sw	ra,12(sp)
   21020:	01f00793          	li	a5,31
   21024:	8601a483          	lw	s1,-1952(gp) # 22718 <_impure_ptr>
   21028:	08a7ee63          	bltu	a5,a0,210c4 <raise+0xb0>
   2102c:	1184a783          	lw	a5,280(s1)
   21030:	00812423          	sw	s0,8(sp)
   21034:	00050413          	mv	s0,a0
   21038:	04078263          	beqz	a5,2107c <raise+0x68>
   2103c:	00251713          	slli	a4,a0,0x2
   21040:	00e787b3          	add	a5,a5,a4
   21044:	0007a703          	lw	a4,0(a5)
   21048:	02070a63          	beqz	a4,2107c <raise+0x68>
   2104c:	00100693          	li	a3,1
   21050:	00d70a63          	beq	a4,a3,21064 <raise+0x50>
   21054:	fff00613          	li	a2,-1
   21058:	04c70663          	beq	a4,a2,210a4 <raise+0x90>
   2105c:	0007a023          	sw	zero,0(a5)
   21060:	000700e7          	jalr	a4
   21064:	00812403          	lw	s0,8(sp)
   21068:	00000513          	li	a0,0
   2106c:	00c12083          	lw	ra,12(sp)
   21070:	00412483          	lw	s1,4(sp)
   21074:	01010113          	addi	sp,sp,16
   21078:	00008067          	ret
   2107c:	00048513          	mv	a0,s1
   21080:	0b8000ef          	jal	21138 <_getpid_r>
   21084:	00040613          	mv	a2,s0
   21088:	00812403          	lw	s0,8(sp)
   2108c:	00c12083          	lw	ra,12(sp)
   21090:	00050593          	mv	a1,a0
   21094:	00048513          	mv	a0,s1
   21098:	00412483          	lw	s1,4(sp)
   2109c:	01010113          	addi	sp,sp,16
   210a0:	0340006f          	j	210d4 <_kill_r>
   210a4:	00812403          	lw	s0,8(sp)
   210a8:	00c12083          	lw	ra,12(sp)
   210ac:	01600793          	li	a5,22
   210b0:	00f4a023          	sw	a5,0(s1)
   210b4:	00068513          	mv	a0,a3
   210b8:	00412483          	lw	s1,4(sp)
   210bc:	01010113          	addi	sp,sp,16
   210c0:	00008067          	ret
   210c4:	01600793          	li	a5,22
   210c8:	00f4a023          	sw	a5,0(s1)
   210cc:	fff00513          	li	a0,-1
   210d0:	f9dff06f          	j	2106c <raise+0x58>

000210d4 <_kill_r>:
   210d4:	ff010113          	addi	sp,sp,-16
   210d8:	00058713          	mv	a4,a1
   210dc:	00812423          	sw	s0,8(sp)
   210e0:	00912223          	sw	s1,4(sp)
   210e4:	00060593          	mv	a1,a2
   210e8:	00050413          	mv	s0,a0
   210ec:	00070513          	mv	a0,a4
   210f0:	00112623          	sw	ra,12(sp)
   210f4:	8601aa23          	sw	zero,-1932(gp) # 2272c <errno>
   210f8:	fc5ee0ef          	jal	100bc <_access>
   210fc:	fff00793          	li	a5,-1
   21100:	00f50c63          	beq	a0,a5,21118 <_kill_r+0x44>
   21104:	00c12083          	lw	ra,12(sp)
   21108:	00812403          	lw	s0,8(sp)
   2110c:	00412483          	lw	s1,4(sp)
   21110:	01010113          	addi	sp,sp,16
   21114:	00008067          	ret
   21118:	8741a783          	lw	a5,-1932(gp) # 2272c <errno>
   2111c:	fe0784e3          	beqz	a5,21104 <_kill_r+0x30>
   21120:	00c12083          	lw	ra,12(sp)
   21124:	00f42023          	sw	a5,0(s0)
   21128:	00812403          	lw	s0,8(sp)
   2112c:	00412483          	lw	s1,4(sp)
   21130:	01010113          	addi	sp,sp,16
   21134:	00008067          	ret

00021138 <_getpid_r>:
   21138:	f85ee06f          	j	100bc <_access>
